; ModuleID = 'init.7rcbfp3g-cgu.0'
source_filename = "init.7rcbfp3g-cgu.0"
target datalayout = "e-m:o-i64:64-f80:128-n8:16:32:64-S128"
target triple = "x86_64-apple-macosx10.7.0"

%"serde_json::value::Value" = type { [0 x i8], i8, [31 x i8] }
%"core::fmt::Formatter" = type { [0 x i64], { i64, i64 }, [0 x i64], { i64, i64 }, [0 x i64], { {}*, [3 x i64]* }, [0 x i64], { i64*, i64* }, [0 x i64], { [0 x { i8*, i8* }]*, i64 }, [0 x i32], i32, [0 x i32], i32, [0 x i8], i8, [7 x i8] }
%"core::alloc::LayoutErr" = type { [0 x i8], {}, [0 x i8] }
%"alloc::collections::btree::node::NodeHeader<(), (), ()>" = type { [0 x i64], %"alloc::collections::btree::node::InternalNode<(), ()>"*, [0 x i16], i16, [0 x i16], i16, [0 x i8], [0 x {}], [4 x i8] }
%"alloc::collections::btree::node::InternalNode<(), ()>" = type { [0 x i64], %"alloc::collections::btree::node::LeafNode<(), ()>", [0 x i64], [12 x i8*], [0 x i64] }
%"alloc::collections::btree::node::LeafNode<(), ()>" = type { [0 x i64], %"alloc::collections::btree::node::InternalNode<(), ()>"*, [0 x i16], i16, [0 x i16], i16, [0 x i8], [11 x %"core::mem::maybe_uninit::MaybeUninit<()>"], [0 x i8], [11 x %"core::mem::maybe_uninit::MaybeUninit<()>"], [4 x i8] }
%"core::mem::maybe_uninit::MaybeUninit<()>" = type { [0 x i8] }
%"alloc::vec::Vec<u8>" = type { [0 x i64], { i8*, i64 }, [0 x i64], i64, [0 x i64] }
%"core::result::Result<serde_json::value::Value, serde_json::error::Error>" = type { [0 x i64], i64, [4 x i64] }
%"serde_json::read::StrRead" = type { [0 x i64], %"serde_json::read::SliceRead", [0 x i64] }
%"serde_json::read::SliceRead" = type { [0 x i64], { [0 x i8]*, i64 }, [0 x i64], i64, [0 x i64] }
%"serde_json::de::Deserializer<serde_json::read::StrRead>" = type { [0 x i64], %"serde_json::read::StrRead", [0 x i64], %"alloc::vec::Vec<u8>", [0 x i8], i8, [7 x i8] }
%"core::result::Result<serde_json::value::Value, serde_json::error::Error>::Ok" = type { [1 x i64], %"serde_json::value::Value", [0 x i64] }
%"core::result::Result<serde_json::value::Value, serde_json::error::Error>::Err" = type { [1 x i64], i64*, [0 x i64] }
%"serde_json::de::ParserNumber" = type { [0 x i64], i64, [1 x i64] }
%"serde_json::de::ParserNumber::F64" = type { [1 x i64], double, [0 x i64] }
%"serde_json::de::ParserNumber::U64" = type { [1 x i64], i64, [0 x i64] }
%"serde_json::de::ParserNumber::I64" = type { [1 x i64], i64, [0 x i64] }
%"serde_json::error::ErrorCode" = type { [0 x i64], i64, [2 x i64] }
%"core::result::Result<core::option::Option<u8>, serde_json::error::Error>" = type { [0 x i8], i8, [15 x i8] }
%"core::result::Result<(), serde_json::error::Error>::Ok" = type { [0 x i8], {}, [0 x i8] }
%"core::result::Result<core::option::Option<u8>, serde_json::error::Error>::Ok" = type { [1 x i8], { i8, i8 }, [0 x i8] }
%"core::result::Result<core::option::Option<u8>, serde_json::error::Error>::Err" = type { [1 x i64], i64*, [0 x i64] }
%"core::option::Option<u8>::Some" = type { [1 x i8], i8, [0 x i8] }
%"core::result::Result<serde_json::de::ParserNumber, serde_json::error::Error>" = type { [0 x i64], i64, [2 x i64] }
%"core::result::Result<f64, serde_json::error::Error>" = type { [0 x i64], i64, [1 x i64] }
%"core::result::Result<u8, serde_json::error::Error>" = type { [0 x i8], i8, [15 x i8] }
%"core::result::Result<u8, serde_json::error::Error>::Ok" = type { [1 x i8], i8, [0 x i8] }
%"core::result::Result<u8, serde_json::error::Error>::Err" = type { [1 x i64], i64*, [0 x i64] }
%"core::result::Result<serde_json::de::ParserNumber, serde_json::error::Error>::Err" = type { [1 x i64], i64*, [0 x i64] }
%"core::result::Result<f64, serde_json::error::Error>::Ok" = type { [1 x i64], double, [0 x i64] }
%"core::result::Result<f64, serde_json::error::Error>::Err" = type { [1 x i64], i64*, [0 x i64] }
%"core::result::Result<serde_json::de::ParserNumber, serde_json::error::Error>::Ok" = type { [1 x i64], %"serde_json::de::ParserNumber", [0 x i64] }
%"core::panic::Location" = type { [0 x i64], { [0 x i8]*, i64 }, [0 x i32], i32, [0 x i32], i32, [0 x i32] }
%"serde_json::map::Map<alloc::string::String, serde_json::value::Value>" = type { [0 x i64], %"alloc::collections::btree::map::BTreeMap<alloc::string::String, serde_json::value::Value>", [0 x i64] }
%"alloc::collections::btree::map::BTreeMap<alloc::string::String, serde_json::value::Value>" = type { [0 x i64], { i64*, i64 }, [0 x i64], i64, [0 x i64] }
%"core::option::Option<serde_json::value::Value>" = type { [0 x i8], i8, [31 x i8] }
%"alloc::string::String" = type { [0 x i64], %"alloc::vec::Vec<u8>", [0 x i64] }
%"serde_json::error::ErrorImpl" = type { [0 x i64], %"serde_json::error::ErrorCode", [0 x i64], i64, [0 x i64], i64, [0 x i64] }
%"serde_json::value::de::{{impl}}::deserialize::ValueVisitor" = type {}
%"serde_json::number::Number" = type { [0 x i64], %"serde_json::number::N", [0 x i64] }
%"serde_json::number::N" = type { [0 x i64], i64, [1 x i64] }
%"serde_json::value::Value::Number" = type { [1 x i64], %"serde_json::number::Number", [0 x i64] }
%"core::option::Option<serde_json::number::Number>" = type { [0 x i64], i64, [1 x i64] }
%"serde_json::number::N::Float" = type { [1 x i64], double, [0 x i64] }
%"core::option::Option<serde_json::number::Number>::Some" = type { [0 x i64], %"serde_json::number::Number", [0 x i64] }
%"core::option::Option<(alloc::string::String, serde_json::value::Value)>" = type { [24 x i8], i8, [31 x i8] }
%"alloc::collections::btree::map::IntoIter<alloc::string::String, serde_json::value::Value>" = type { [0 x i64], %"alloc::collections::btree::node::Handle<alloc::collections::btree::node::NodeRef<alloc::collections::btree::node::marker::Owned, alloc::string::String, serde_json::value::Value, alloc::collections::btree::node::marker::Leaf>, alloc::collections::btree::node::marker::Edge>", [0 x i64], %"alloc::collections::btree::node::Handle<alloc::collections::btree::node::NodeRef<alloc::collections::btree::node::marker::Owned, alloc::string::String, serde_json::value::Value, alloc::collections::btree::node::marker::Leaf>, alloc::collections::btree::node::marker::Edge>", [0 x i64], i64, [0 x i64] }
%"alloc::collections::btree::node::Handle<alloc::collections::btree::node::NodeRef<alloc::collections::btree::node::marker::Owned, alloc::string::String, serde_json::value::Value, alloc::collections::btree::node::marker::Leaf>, alloc::collections::btree::node::marker::Edge>" = type { [0 x i8], %"core::marker::PhantomData<alloc::collections::btree::node::marker::Edge>", [0 x i8], %"alloc::collections::btree::node::NodeRef<alloc::collections::btree::node::marker::Owned, alloc::string::String, serde_json::value::Value, alloc::collections::btree::node::marker::Leaf>", [0 x i64], i64, [0 x i64] }
%"core::marker::PhantomData<alloc::collections::btree::node::marker::Edge>" = type {}
%"alloc::collections::btree::node::NodeRef<alloc::collections::btree::node::marker::Owned, alloc::string::String, serde_json::value::Value, alloc::collections::btree::node::marker::Leaf>" = type { [0 x i8], %"core::marker::PhantomData<(alloc::collections::btree::node::marker::Owned, alloc::collections::btree::node::marker::Leaf)>", [0 x i8], i64, [0 x i64], i64*, [0 x i64], { i64*, i64 }*, [0 x i64] }
%"core::marker::PhantomData<(alloc::collections::btree::node::marker::Owned, alloc::collections::btree::node::marker::Leaf)>" = type {}
%"core::option::Option<alloc::collections::btree::node::Handle<alloc::collections::btree::node::NodeRef<alloc::collections::btree::node::marker::Owned, alloc::string::String, serde_json::value::Value, alloc::collections::btree::node::marker::Internal>, alloc::collections::btree::node::marker::Edge>>" = type { [1 x i64], {}*, [2 x i64] }
%"alloc::collections::btree::node::Handle<alloc::collections::btree::node::NodeRef<alloc::collections::btree::node::marker::Owned, alloc::string::String, serde_json::value::Value, alloc::collections::btree::node::marker::Internal>, alloc::collections::btree::node::marker::Edge>" = type { [0 x i8], %"core::marker::PhantomData<alloc::collections::btree::node::marker::Edge>", [0 x i8], %"alloc::collections::btree::node::NodeRef<alloc::collections::btree::node::marker::Owned, alloc::string::String, serde_json::value::Value, alloc::collections::btree::node::marker::Internal>", [0 x i64], i64, [0 x i64] }
%"alloc::collections::btree::node::NodeRef<alloc::collections::btree::node::marker::Owned, alloc::string::String, serde_json::value::Value, alloc::collections::btree::node::marker::Internal>" = type { [0 x i8], %"core::marker::PhantomData<(alloc::collections::btree::node::marker::Owned, alloc::collections::btree::node::marker::Internal)>", [0 x i8], i64, [0 x i64], i64*, [0 x i64], { i64*, i64 }*, [0 x i64] }
%"core::marker::PhantomData<(alloc::collections::btree::node::marker::Owned, alloc::collections::btree::node::marker::Internal)>" = type {}
%"alloc::collections::btree::node::Handle<alloc::collections::btree::node::NodeRef<alloc::collections::btree::node::marker::Owned, alloc::string::String, serde_json::value::Value, alloc::collections::btree::node::marker::Internal>, alloc::collections::btree::node::marker::KV>" = type { [0 x i8], %"core::marker::PhantomData<alloc::collections::btree::node::marker::KV>", [0 x i8], %"alloc::collections::btree::node::NodeRef<alloc::collections::btree::node::marker::Owned, alloc::string::String, serde_json::value::Value, alloc::collections::btree::node::marker::Internal>", [0 x i64], i64, [0 x i64] }
%"core::marker::PhantomData<alloc::collections::btree::node::marker::KV>" = type {}
%"alloc::collections::btree::node::NodeRef<alloc::collections::btree::node::marker::Owned, alloc::string::String, serde_json::value::Value, alloc::collections::btree::node::marker::LeafOrInternal>" = type { [0 x i8], %"core::marker::PhantomData<(alloc::collections::btree::node::marker::Owned, alloc::collections::btree::node::marker::LeafOrInternal)>", [0 x i8], i64, [0 x i64], i64*, [0 x i64], { i64*, i64 }*, [0 x i64] }
%"core::marker::PhantomData<(alloc::collections::btree::node::marker::Owned, alloc::collections::btree::node::marker::LeafOrInternal)>" = type {}
%"alloc::collections::btree::node::Handle<alloc::collections::btree::node::NodeRef<alloc::collections::btree::node::marker::Immut, alloc::string::String, serde_json::value::Value, alloc::collections::btree::node::marker::Internal>, alloc::collections::btree::node::marker::KV>" = type { [0 x i8], %"core::marker::PhantomData<alloc::collections::btree::node::marker::KV>", [0 x i8], %"alloc::collections::btree::node::NodeRef<alloc::collections::btree::node::marker::Immut, alloc::string::String, serde_json::value::Value, alloc::collections::btree::node::marker::Internal>", [0 x i64], i64, [0 x i64] }
%"alloc::collections::btree::node::NodeRef<alloc::collections::btree::node::marker::Immut, alloc::string::String, serde_json::value::Value, alloc::collections::btree::node::marker::Internal>" = type { [0 x i8], %"core::marker::PhantomData<(alloc::collections::btree::node::marker::Immut, alloc::collections::btree::node::marker::Internal)>", [0 x i8], i64, [0 x i64], i64*, [0 x i64], { i64*, i64 }*, [0 x i64] }
%"core::marker::PhantomData<(alloc::collections::btree::node::marker::Immut, alloc::collections::btree::node::marker::Internal)>" = type {}
%"core::result::Result<alloc::collections::btree::node::Handle<alloc::collections::btree::node::NodeRef<alloc::collections::btree::node::marker::Owned, alloc::string::String, serde_json::value::Value, alloc::collections::btree::node::marker::Internal>, alloc::collections::btree::node::marker::KV>, alloc::collections::btree::node::Handle<alloc::collections::btree::node::NodeRef<alloc::collections::btree::node::marker::Owned, alloc::string::String, serde_json::value::Value, alloc::collections::btree::node::marker::Internal>, alloc::collections::btree::node::marker::Edge>>" = type { [0 x i64], i64, [4 x i64] }
%"alloc::collections::btree::node::Handle<alloc::collections::btree::node::NodeRef<alloc::collections::btree::node::marker::Owned, alloc::string::String, serde_json::value::Value, alloc::collections::btree::node::marker::Leaf>, alloc::collections::btree::node::marker::KV>" = type { [0 x i8], %"core::marker::PhantomData<alloc::collections::btree::node::marker::KV>", [0 x i8], %"alloc::collections::btree::node::NodeRef<alloc::collections::btree::node::marker::Owned, alloc::string::String, serde_json::value::Value, alloc::collections::btree::node::marker::Leaf>", [0 x i64], i64, [0 x i64] }
%"alloc::collections::btree::node::Handle<alloc::collections::btree::node::NodeRef<alloc::collections::btree::node::marker::Immut, alloc::string::String, serde_json::value::Value, alloc::collections::btree::node::marker::Leaf>, alloc::collections::btree::node::marker::KV>" = type { [0 x i8], %"core::marker::PhantomData<alloc::collections::btree::node::marker::KV>", [0 x i8], %"alloc::collections::btree::node::NodeRef<alloc::collections::btree::node::marker::Immut, alloc::string::String, serde_json::value::Value, alloc::collections::btree::node::marker::Leaf>", [0 x i64], i64, [0 x i64] }
%"alloc::collections::btree::node::NodeRef<alloc::collections::btree::node::marker::Immut, alloc::string::String, serde_json::value::Value, alloc::collections::btree::node::marker::Leaf>" = type { [0 x i8], %"core::marker::PhantomData<(alloc::collections::btree::node::marker::Immut, alloc::collections::btree::node::marker::Leaf)>", [0 x i8], i64, [0 x i64], i64*, [0 x i64], { i64*, i64 }*, [0 x i64] }
%"core::marker::PhantomData<(alloc::collections::btree::node::marker::Immut, alloc::collections::btree::node::marker::Leaf)>" = type {}
%"core::result::Result<alloc::collections::btree::node::Handle<alloc::collections::btree::node::NodeRef<alloc::collections::btree::node::marker::Owned, alloc::string::String, serde_json::value::Value, alloc::collections::btree::node::marker::Leaf>, alloc::collections::btree::node::marker::KV>, alloc::collections::btree::node::Handle<alloc::collections::btree::node::NodeRef<alloc::collections::btree::node::marker::Owned, alloc::string::String, serde_json::value::Value, alloc::collections::btree::node::marker::Leaf>, alloc::collections::btree::node::marker::Edge>>" = type { [0 x i64], i64, [4 x i64] }
%"core::result::Result<alloc::collections::btree::node::Handle<alloc::collections::btree::node::NodeRef<alloc::collections::btree::node::marker::Owned, alloc::string::String, serde_json::value::Value, alloc::collections::btree::node::marker::Leaf>, alloc::collections::btree::node::marker::KV>, alloc::collections::btree::node::Handle<alloc::collections::btree::node::NodeRef<alloc::collections::btree::node::marker::Owned, alloc::string::String, serde_json::value::Value, alloc::collections::btree::node::marker::Leaf>, alloc::collections::btree::node::marker::Edge>>::Ok" = type { [1 x i64], %"alloc::collections::btree::node::Handle<alloc::collections::btree::node::NodeRef<alloc::collections::btree::node::marker::Owned, alloc::string::String, serde_json::value::Value, alloc::collections::btree::node::marker::Leaf>, alloc::collections::btree::node::marker::KV>", [0 x i64] }
%"core::option::Option<(alloc::string::String, serde_json::value::Value)>::Some" = type { [0 x i64], { [0 x i64], %"alloc::string::String", [0 x i64], %"serde_json::value::Value", [0 x i64] }, [0 x i64] }
%"core::result::Result<alloc::collections::btree::node::Handle<alloc::collections::btree::node::NodeRef<alloc::collections::btree::node::marker::Owned, alloc::string::String, serde_json::value::Value, alloc::collections::btree::node::marker::Leaf>, alloc::collections::btree::node::marker::KV>, alloc::collections::btree::node::Handle<alloc::collections::btree::node::NodeRef<alloc::collections::btree::node::marker::Owned, alloc::string::String, serde_json::value::Value, alloc::collections::btree::node::marker::Leaf>, alloc::collections::btree::node::marker::Edge>>::Err" = type { [1 x i64], %"alloc::collections::btree::node::Handle<alloc::collections::btree::node::NodeRef<alloc::collections::btree::node::marker::Owned, alloc::string::String, serde_json::value::Value, alloc::collections::btree::node::marker::Leaf>, alloc::collections::btree::node::marker::Edge>", [0 x i64] }
%"core::result::Result<alloc::collections::btree::node::Handle<alloc::collections::btree::node::NodeRef<alloc::collections::btree::node::marker::Owned, alloc::string::String, serde_json::value::Value, alloc::collections::btree::node::marker::Internal>, alloc::collections::btree::node::marker::KV>, alloc::collections::btree::node::Handle<alloc::collections::btree::node::NodeRef<alloc::collections::btree::node::marker::Owned, alloc::string::String, serde_json::value::Value, alloc::collections::btree::node::marker::Internal>, alloc::collections::btree::node::marker::Edge>>::Ok" = type { [1 x i64], %"alloc::collections::btree::node::Handle<alloc::collections::btree::node::NodeRef<alloc::collections::btree::node::marker::Owned, alloc::string::String, serde_json::value::Value, alloc::collections::btree::node::marker::Internal>, alloc::collections::btree::node::marker::KV>", [0 x i64] }
%"core::result::Result<alloc::collections::btree::node::Handle<alloc::collections::btree::node::NodeRef<alloc::collections::btree::node::marker::Owned, alloc::string::String, serde_json::value::Value, alloc::collections::btree::node::marker::Internal>, alloc::collections::btree::node::marker::KV>, alloc::collections::btree::node::Handle<alloc::collections::btree::node::NodeRef<alloc::collections::btree::node::marker::Owned, alloc::string::String, serde_json::value::Value, alloc::collections::btree::node::marker::Internal>, alloc::collections::btree::node::marker::Edge>>::Err" = type { [1 x i64], %"alloc::collections::btree::node::Handle<alloc::collections::btree::node::NodeRef<alloc::collections::btree::node::marker::Owned, alloc::string::String, serde_json::value::Value, alloc::collections::btree::node::marker::Internal>, alloc::collections::btree::node::marker::Edge>", [0 x i64] }
%"alloc::collections::btree::node::InternalNode<alloc::string::String, serde_json::value::Value>" = type { [0 x i64], %"alloc::collections::btree::node::LeafNode<alloc::string::String, serde_json::value::Value>", [0 x i64], [12 x i8*], [0 x i64] }
%"alloc::collections::btree::node::LeafNode<alloc::string::String, serde_json::value::Value>" = type { [0 x i64], %"alloc::collections::btree::node::InternalNode<alloc::string::String, serde_json::value::Value>"*, [0 x i16], i16, [0 x i16], i16, [2 x i16], [11 x %"core::mem::maybe_uninit::MaybeUninit<alloc::string::String>"], [0 x i64], [11 x %"core::mem::maybe_uninit::MaybeUninit<serde_json::value::Value>"], [0 x i64] }
%"core::mem::maybe_uninit::MaybeUninit<alloc::string::String>" = type { [3 x i64] }
%"core::mem::maybe_uninit::MaybeUninit<serde_json::value::Value>" = type { [4 x i64] }
%"serde_json::value::Value::Bool" = type { [1 x i8], i8, [0 x i8] }
%"serde_json::value::Value::String" = type { [1 x i64], %"alloc::string::String", [0 x i64] }
%"core::result::Result<core::option::Option<(alloc::string::String, serde_json::value::Value)>, serde_json::error::Error>" = type { [0 x i64], i64, [7 x i64] }
%"core::option::Option<serde_json::value::de::KeyClass>" = type { [0 x i64], {}*, [2 x i64] }
%"serde_json::value::de::KeyClassifier" = type {}
%"core::result::Result<core::option::Option<serde_json::value::de::KeyClass>, serde_json::error::Error>" = type { [0 x i64], i64, [3 x i64] }
%"core::result::Result<core::option::Option<serde_json::value::de::KeyClass>, serde_json::error::Error>::Err" = type { [1 x i64], i64*, [0 x i64] }
%"core::result::Result<core::option::Option<serde_json::value::de::KeyClass>, serde_json::error::Error>::Ok" = type { [1 x i64], %"core::option::Option<serde_json::value::de::KeyClass>", [0 x i64] }
%"core::option::Option<serde_json::value::de::KeyClass>::Some" = type { [0 x i64], %"serde_json::value::de::KeyClass::Map", [0 x i64] }
%"serde_json::value::de::KeyClass::Map" = type { [0 x i64], %"alloc::string::String", [0 x i64] }
%"core::result::Result<core::option::Option<(alloc::string::String, serde_json::value::Value)>, serde_json::error::Error>::Ok" = type { [1 x i64], %"core::option::Option<(alloc::string::String, serde_json::value::Value)>", [0 x i64] }
%"core::result::Result<core::option::Option<(alloc::string::String, serde_json::value::Value)>, serde_json::error::Error>::Err" = type { [1 x i64], i64*, [0 x i64] }
%"serde_json::value::Value::Object" = type { [1 x i64], %"serde_json::map::Map<alloc::string::String, serde_json::value::Value>", [0 x i64] }
%"alloc::vec::Vec<serde_json::value::Value>" = type { [0 x i64], { i64*, i64 }, [0 x i64], i64, [0 x i64] }
%"core::result::Result<core::option::Option<serde_json::value::Value>, serde_json::error::Error>" = type { [0 x i64], i64, [4 x i64] }
%"core::result::Result<core::option::Option<serde_json::value::Value>, serde_json::error::Error>::Ok" = type { [1 x i64], %"core::option::Option<serde_json::value::Value>", [0 x i64] }
%"core::result::Result<core::option::Option<serde_json::value::Value>, serde_json::error::Error>::Err" = type { [1 x i64], i64*, [0 x i64] }
%"core::option::Option<serde_json::value::Value>::Some" = type { [0 x i64], %"serde_json::value::Value", [0 x i64] }
%"serde_json::value::Value::Array" = type { [1 x i64], %"alloc::vec::Vec<serde_json::value::Value>", [0 x i64] }
%"core::fmt::Void" = type { [0 x i8], {}, [0 x i8], %"core::marker::PhantomData<*mut core::ops::function::Fn<(), Output=()>>", [0 x i8] }
%"core::marker::PhantomData<*mut core::ops::function::Fn<(), Output=()>>" = type {}
%"core::fmt::Arguments" = type { [0 x i64], { [0 x { [0 x i8]*, i64 }]*, i64 }, [0 x i64], { i64*, i64 }, [0 x i64], { [0 x { i8*, i8* }]*, i64 }, [0 x i64] }
%"core::mem::manually_drop::ManuallyDrop<alloc::collections::btree::map::BTreeMap<alloc::string::String, serde_json::value::Value>>" = type { [0 x i64], %"alloc::collections::btree::map::BTreeMap<alloc::string::String, serde_json::value::Value>", [0 x i64] }
%"core::option::Option<usize>::Some" = type { [1 x i64], i64, [0 x i64] }
%"core::option::Option<alloc::string::String>" = type { [0 x i64], {}*, [2 x i64] }
%"alloc::collections::btree::map::VacantEntry<alloc::string::String, serde_json::value::Value>" = type { [0 x i8], %"core::marker::PhantomData<&mut (alloc::string::String, serde_json::value::Value)>", [0 x i8], %"alloc::string::String", [0 x i64], %"alloc::collections::btree::node::Handle<alloc::collections::btree::node::NodeRef<alloc::collections::btree::node::marker::Mut, alloc::string::String, serde_json::value::Value, alloc::collections::btree::node::marker::Leaf>, alloc::collections::btree::node::marker::Edge>", [0 x i64], i64*, [0 x i64] }
%"core::marker::PhantomData<&mut (alloc::string::String, serde_json::value::Value)>" = type {}
%"alloc::collections::btree::node::Handle<alloc::collections::btree::node::NodeRef<alloc::collections::btree::node::marker::Mut, alloc::string::String, serde_json::value::Value, alloc::collections::btree::node::marker::Leaf>, alloc::collections::btree::node::marker::Edge>" = type { [0 x i8], %"core::marker::PhantomData<alloc::collections::btree::node::marker::Edge>", [0 x i8], %"alloc::collections::btree::node::NodeRef<alloc::collections::btree::node::marker::Mut, alloc::string::String, serde_json::value::Value, alloc::collections::btree::node::marker::Leaf>", [0 x i64], i64, [0 x i64] }
%"alloc::collections::btree::node::NodeRef<alloc::collections::btree::node::marker::Mut, alloc::string::String, serde_json::value::Value, alloc::collections::btree::node::marker::Leaf>" = type { [0 x i8], %"core::marker::PhantomData<(alloc::collections::btree::node::marker::Mut, alloc::collections::btree::node::marker::Leaf)>", [0 x i8], i64, [0 x i64], i64*, [0 x i64], { i64*, i64 }*, [0 x i64] }
%"core::marker::PhantomData<(alloc::collections::btree::node::marker::Mut, alloc::collections::btree::node::marker::Leaf)>" = type {}
%"std::io::error::Custom" = type { [0 x i64], { {}*, [3 x i64]* }, [0 x i8], i8, [7 x i8] }
%"std::io::error::Repr" = type { [0 x i8], i8, [15 x i8] }
%"std::io::error::Repr::Custom" = type { [1 x i64], %"std::io::error::Custom"*, [0 x i64] }
%"serde_json::error::ErrorCode::Message" = type { [1 x i64], { [0 x i8]*, i64 }, [0 x i64] }
%"serde_json::error::ErrorCode::Io" = type { [1 x i64], %"std::io::error::Error", [0 x i64] }
%"std::io::error::Error" = type { [0 x i64], %"std::io::error::Repr", [0 x i64] }
%"core::option::Option<alloc::string::String>::Some" = type { [0 x i64], %"alloc::string::String", [0 x i64] }
%"alloc::collections::btree::node::InsertResult<alloc::string::String, serde_json::value::Value, alloc::collections::btree::node::marker::Internal>" = type { [0 x i64], i64, [12 x i64] }
%"alloc::collections::btree::node::InsertResult<alloc::string::String, serde_json::value::Value, alloc::collections::btree::node::marker::Internal>::Split" = type { [1 x i64], %"alloc::collections::btree::node::NodeRef<alloc::collections::btree::node::marker::Mut, alloc::string::String, serde_json::value::Value, alloc::collections::btree::node::marker::Internal>", [0 x i64], %"alloc::string::String", [0 x i64], %"serde_json::value::Value", [0 x i64], { i64*, i64 }, [0 x i64] }
%"alloc::collections::btree::node::NodeRef<alloc::collections::btree::node::marker::Mut, alloc::string::String, serde_json::value::Value, alloc::collections::btree::node::marker::Internal>" = type { [0 x i8], %"core::marker::PhantomData<(alloc::collections::btree::node::marker::Mut, alloc::collections::btree::node::marker::Internal)>", [0 x i8], i64, [0 x i64], i64*, [0 x i64], { i64*, i64 }*, [0 x i64] }
%"core::marker::PhantomData<(alloc::collections::btree::node::marker::Mut, alloc::collections::btree::node::marker::Internal)>" = type {}
%"core::ptr::Repr<alloc::string::String>" = type { [2 x i64] }
%"core::ptr::Repr<u8>" = type { [2 x i64] }
%"core::ptr::Repr<serde_json::value::Value>" = type { [2 x i64] }
%"core::ptr::Repr<alloc::collections::btree::node::BoxedNode<alloc::string::String, serde_json::value::Value>>" = type { [2 x i64] }
%"core::mem::manually_drop::ManuallyDrop<core::ptr::swap_nonoverlapping_bytes::UnalignedBlock>" = type { [0 x i64], %"core::ptr::swap_nonoverlapping_bytes::UnalignedBlock", [0 x i64] }
%"core::ptr::swap_nonoverlapping_bytes::UnalignedBlock" = type { [0 x i64], i64, [0 x i64], i64, [0 x i64], i64, [0 x i64], i64, [0 x i64] }
%"core::mem::maybe_uninit::MaybeUninit<core::ptr::swap_nonoverlapping_bytes::UnalignedBlock>" = type { [4 x i64] }
%"alloc::collections::btree::node::NodeHeader<alloc::string::String, serde_json::value::Value, ()>" = type { [0 x i64], %"alloc::collections::btree::node::InternalNode<alloc::string::String, serde_json::value::Value>"*, [0 x i16], i16, [0 x i16], i16, [0 x i8], [0 x {}], [4 x i8] }
%"core::mem::manually_drop::ManuallyDrop<alloc::collections::btree::node::NodeRef<alloc::collections::btree::node::marker::Immut, alloc::string::String, serde_json::value::Value, alloc::collections::btree::node::marker::Leaf>>" = type { [0 x i64], %"alloc::collections::btree::node::NodeRef<alloc::collections::btree::node::marker::Immut, alloc::string::String, serde_json::value::Value, alloc::collections::btree::node::marker::Leaf>", [0 x i64] }
%"core::mem::maybe_uninit::MaybeUninit<alloc::collections::btree::node::NodeRef<alloc::collections::btree::node::marker::Immut, alloc::string::String, serde_json::value::Value, alloc::collections::btree::node::marker::Leaf>>" = type { [3 x i64] }
%"core::mem::manually_drop::ManuallyDrop<serde_json::value::Value>" = type { [0 x i64], %"serde_json::value::Value", [0 x i64] }
%"core::mem::manually_drop::ManuallyDrop<alloc::collections::btree::node::NodeRef<alloc::collections::btree::node::marker::Immut, alloc::string::String, serde_json::value::Value, alloc::collections::btree::node::marker::Internal>>" = type { [0 x i64], %"alloc::collections::btree::node::NodeRef<alloc::collections::btree::node::marker::Immut, alloc::string::String, serde_json::value::Value, alloc::collections::btree::node::marker::Internal>", [0 x i64] }
%"core::mem::maybe_uninit::MaybeUninit<alloc::collections::btree::node::NodeRef<alloc::collections::btree::node::marker::Immut, alloc::string::String, serde_json::value::Value, alloc::collections::btree::node::marker::Internal>>" = type { [3 x i64] }
%"core::mem::manually_drop::ManuallyDrop<alloc::string::String>" = type { [0 x i64], %"alloc::string::String", [0 x i64] }
%"core::mem::maybe_uninit::MaybeUninit<alloc::collections::btree::map::BTreeMap<alloc::string::String, serde_json::value::Value>>" = type { [3 x i64] }
%"core::mem::manually_drop::ManuallyDrop<alloc::collections::btree::node::Handle<alloc::collections::btree::node::NodeRef<alloc::collections::btree::node::marker::Owned, alloc::string::String, serde_json::value::Value, alloc::collections::btree::node::marker::Leaf>, alloc::collections::btree::node::marker::Edge>>" = type { [0 x i64], %"alloc::collections::btree::node::Handle<alloc::collections::btree::node::NodeRef<alloc::collections::btree::node::marker::Owned, alloc::string::String, serde_json::value::Value, alloc::collections::btree::node::marker::Leaf>, alloc::collections::btree::node::marker::Edge>", [0 x i64] }
%"core::mem::maybe_uninit::MaybeUninit<alloc::collections::btree::node::Handle<alloc::collections::btree::node::NodeRef<alloc::collections::btree::node::marker::Owned, alloc::string::String, serde_json::value::Value, alloc::collections::btree::node::marker::Leaf>, alloc::collections::btree::node::marker::Edge>>" = type { [4 x i64] }
%"core::marker::PhantomData<alloc::collections::btree::node::InternalNode<alloc::string::String, serde_json::value::Value>>" = type {}
%"core::marker::PhantomData<serde_json::value::Value>" = type {}
%"core::marker::PhantomData<alloc::collections::btree::node::LeafNode<alloc::string::String, serde_json::value::Value>>" = type {}
%"core::marker::PhantomData<u8>" = type {}
%"core::iter::traits::iterator::Iterator::fold::ok::{{closure}}<(), (alloc::string::String, serde_json::value::Value), core::iter::traits::iterator::Iterator::for_each::call::{{closure}}<(alloc::string::String, serde_json::value::Value), fn((alloc::string::String, serde_json::value::Value))>>" = type { [0 x i8], %"core::iter::traits::iterator::Iterator::for_each::call::{{closure}}<(alloc::string::String, serde_json::value::Value), fn((alloc::string::String, serde_json::value::Value))>", [0 x i8] }
%"core::iter::traits::iterator::Iterator::for_each::call::{{closure}}<(alloc::string::String, serde_json::value::Value), fn((alloc::string::String, serde_json::value::Value))>" = type { [0 x i8], {}, [0 x i8] }
%"core::result::Result<(), !>::Ok" = type { [0 x i8], {}, [0 x i8] }
%"core::iter::adapters::Enumerate<core::slice::Iter<alloc::string::String>>" = type { [0 x i64], { i64*, i64* }, [0 x i64], i64, [0 x i64] }
%"core::result::Result<core::alloc::Layout, core::alloc::LayoutErr>::Err" = type { [0 x i8], %"core::alloc::LayoutErr", [0 x i8] }
%"core::alloc::{{impl}}::array::{{closure}}<serde_json::value::Value>" = type {}
%"core::result::Result<(core::alloc::Layout, usize), core::alloc::LayoutErr>" = type { [1 x i64], i64, [1 x i64] }
%"core::alloc::{{impl}}::array::{{closure}}<u8>" = type {}
%"core::result::Result<usize, core::alloc::LayoutErr>::Ok" = type { [1 x i64], i64, [0 x i64] }
%"core::result::Result<(core::alloc::Layout, usize), core::alloc::LayoutErr>::Ok" = type { [0 x i64], { [0 x i64], { i64, i64 }, [0 x i64], i64, [0 x i64] }, [0 x i64] }
%"core::ptr::Repr<f64>" = type { [2 x i64] }
%"core::marker::PhantomData<&alloc::string::String>" = type {}
%"core::marker::PhantomData<&u8>" = type {}
%"core::option::Option<alloc::collections::btree::node::Handle<alloc::collections::btree::node::NodeRef<alloc::collections::btree::node::marker::Owned, alloc::string::String, serde_json::value::Value, alloc::collections::btree::node::marker::Internal>, alloc::collections::btree::node::marker::Edge>>::Some" = type { [0 x i64], %"alloc::collections::btree::node::Handle<alloc::collections::btree::node::NodeRef<alloc::collections::btree::node::marker::Owned, alloc::string::String, serde_json::value::Value, alloc::collections::btree::node::marker::Internal>, alloc::collections::btree::node::marker::Edge>", [0 x i64] }
%"core::result::Result<usize, core::alloc::LayoutErr>::Err" = type { [8 x i8], %"core::alloc::LayoutErr", [0 x i8] }
%"core::result::Result<core::ptr::non_null::NonNull<u8>, core::alloc::AllocErr>::Err" = type { [0 x i8], %"core::alloc::AllocErr", [0 x i8] }
%"core::alloc::AllocErr" = type {}
%"core::result::Result<&alloc::string::String, core::option::NoneError>::Err" = type { [0 x i8], %"core::option::NoneError", [0 x i8] }
%"core::option::NoneError" = type {}
%"core::result::Result<usize, alloc::collections::TryReserveError>" = type { [0 x i64], i64, [2 x i64] }
%"core::result::Result<usize, alloc::collections::TryReserveError>::Err" = type { [1 x i64], { i64, i64 }, [0 x i64] }
%"core::result::Result<usize, alloc::collections::TryReserveError>::Ok" = type { [1 x i64], i64, [0 x i64] }
%"core::result::Result<(), alloc::collections::TryReserveError>" = type { [0 x i64], i64, [2 x i64] }
%"core::result::Result<(), alloc::collections::TryReserveError>::Err" = type { [1 x i64], { i64, i64 }, [0 x i64] }
%"core::result::Result<alloc::collections::btree::node::Handle<alloc::collections::btree::node::NodeRef<alloc::collections::btree::node::marker::Owned, alloc::string::String, serde_json::value::Value, alloc::collections::btree::node::marker::Internal>, alloc::collections::btree::node::marker::Edge>, alloc::collections::btree::node::NodeRef<alloc::collections::btree::node::marker::Owned, alloc::string::String, serde_json::value::Value, alloc::collections::btree::node::marker::Leaf>>" = type { [0 x i64], i64, [4 x i64] }
%"core::result::Result<alloc::collections::btree::node::Handle<alloc::collections::btree::node::NodeRef<alloc::collections::btree::node::marker::Owned, alloc::string::String, serde_json::value::Value, alloc::collections::btree::node::marker::Internal>, alloc::collections::btree::node::marker::Edge>, alloc::collections::btree::node::NodeRef<alloc::collections::btree::node::marker::Owned, alloc::string::String, serde_json::value::Value, alloc::collections::btree::node::marker::Leaf>>::Ok" = type { [1 x i64], %"alloc::collections::btree::node::Handle<alloc::collections::btree::node::NodeRef<alloc::collections::btree::node::marker::Owned, alloc::string::String, serde_json::value::Value, alloc::collections::btree::node::marker::Internal>, alloc::collections::btree::node::marker::Edge>", [0 x i64] }
%"core::result::Result<alloc::collections::btree::node::Handle<alloc::collections::btree::node::NodeRef<alloc::collections::btree::node::marker::Owned, alloc::string::String, serde_json::value::Value, alloc::collections::btree::node::marker::Internal>, alloc::collections::btree::node::marker::Edge>, alloc::collections::btree::node::NodeRef<alloc::collections::btree::node::marker::Owned, alloc::string::String, serde_json::value::Value, alloc::collections::btree::node::marker::Internal>>" = type { [0 x i64], i64, [4 x i64] }
%"core::result::Result<alloc::collections::btree::node::Handle<alloc::collections::btree::node::NodeRef<alloc::collections::btree::node::marker::Owned, alloc::string::String, serde_json::value::Value, alloc::collections::btree::node::marker::Internal>, alloc::collections::btree::node::marker::Edge>, alloc::collections::btree::node::NodeRef<alloc::collections::btree::node::marker::Owned, alloc::string::String, serde_json::value::Value, alloc::collections::btree::node::marker::Internal>>::Ok" = type { [1 x i64], %"alloc::collections::btree::node::Handle<alloc::collections::btree::node::NodeRef<alloc::collections::btree::node::marker::Owned, alloc::string::String, serde_json::value::Value, alloc::collections::btree::node::marker::Internal>, alloc::collections::btree::node::marker::Edge>", [0 x i64] }
%"core::result::Result<serde_json::value::de::KeyClass, serde_json::error::Error>" = type { [0 x i64], i64, [3 x i64] }
%"core::result::Result<serde_json::value::de::KeyClass, serde_json::error::Error>::Ok" = type { [1 x i64], %"serde_json::value::de::KeyClass::Map", [0 x i64] }
%"core::result::Result<serde_json::value::de::KeyClass, serde_json::error::Error>::Err" = type { [1 x i64], i64*, [0 x i64] }
%"core::result::Result<core::option::Option<alloc::string::String>, serde_json::error::Error>" = type { [0 x i64], i64, [3 x i64] }
%"core::result::Result<alloc::string::String, serde_json::error::Error>" = type { [0 x i64], i64, [3 x i64] }
%"core::result::Result<alloc::string::String, serde_json::error::Error>::Ok" = type { [1 x i64], %"alloc::string::String", [0 x i64] }
%"core::result::Result<core::option::Option<alloc::string::String>, serde_json::error::Error>::Ok" = type { [1 x i64], %"core::option::Option<alloc::string::String>", [0 x i64] }
%"core::result::Result<alloc::string::String, serde_json::error::Error>::Err" = type { [1 x i64], i64*, [0 x i64] }
%"core::result::Result<core::option::Option<alloc::string::String>, serde_json::error::Error>::Err" = type { [1 x i64], i64*, [0 x i64] }
%"core::result::Result<core::alloc::Layout, alloc::collections::TryReserveError>" = type { [0 x i64], i64, [2 x i64] }
%"core::result::Result<core::alloc::Layout, alloc::collections::TryReserveError>::Ok" = type { [1 x i64], { i64, i64 }, [0 x i64] }
%"core::result::Result<core::alloc::Layout, alloc::collections::TryReserveError>::Err" = type { [1 x i64], { i64, i64 }, [0 x i64] }
%"core::result::Result<alloc::collections::btree::node::Handle<alloc::collections::btree::node::NodeRef<alloc::collections::btree::node::marker::Mut, alloc::string::String, serde_json::value::Value, alloc::collections::btree::node::marker::Internal>, alloc::collections::btree::node::marker::Edge>, &mut alloc::collections::btree::node::Root<alloc::string::String, serde_json::value::Value>>" = type { [0 x i64], i64, [4 x i64] }
%"core::result::Result<alloc::collections::btree::node::Handle<alloc::collections::btree::node::NodeRef<alloc::collections::btree::node::marker::Mut, alloc::string::String, serde_json::value::Value, alloc::collections::btree::node::marker::Internal>, alloc::collections::btree::node::marker::Edge>, alloc::collections::btree::node::NodeRef<alloc::collections::btree::node::marker::Mut, alloc::string::String, serde_json::value::Value, alloc::collections::btree::node::marker::Internal>>" = type { [0 x i64], i64, [4 x i64] }
%"alloc::collections::btree::node::Handle<alloc::collections::btree::node::NodeRef<alloc::collections::btree::node::marker::Mut, alloc::string::String, serde_json::value::Value, alloc::collections::btree::node::marker::Internal>, alloc::collections::btree::node::marker::Edge>" = type { [0 x i8], %"core::marker::PhantomData<alloc::collections::btree::node::marker::Edge>", [0 x i8], %"alloc::collections::btree::node::NodeRef<alloc::collections::btree::node::marker::Mut, alloc::string::String, serde_json::value::Value, alloc::collections::btree::node::marker::Internal>", [0 x i64], i64, [0 x i64] }
%"core::result::Result<alloc::collections::btree::node::Handle<alloc::collections::btree::node::NodeRef<alloc::collections::btree::node::marker::Mut, alloc::string::String, serde_json::value::Value, alloc::collections::btree::node::marker::Internal>, alloc::collections::btree::node::marker::Edge>, alloc::collections::btree::node::NodeRef<alloc::collections::btree::node::marker::Mut, alloc::string::String, serde_json::value::Value, alloc::collections::btree::node::marker::Internal>>::Ok" = type { [1 x i64], %"alloc::collections::btree::node::Handle<alloc::collections::btree::node::NodeRef<alloc::collections::btree::node::marker::Mut, alloc::string::String, serde_json::value::Value, alloc::collections::btree::node::marker::Internal>, alloc::collections::btree::node::marker::Edge>", [0 x i64] }
%"core::result::Result<alloc::collections::btree::node::Handle<alloc::collections::btree::node::NodeRef<alloc::collections::btree::node::marker::Mut, alloc::string::String, serde_json::value::Value, alloc::collections::btree::node::marker::Internal>, alloc::collections::btree::node::marker::Edge>, &mut alloc::collections::btree::node::Root<alloc::string::String, serde_json::value::Value>>::Ok" = type { [1 x i64], %"alloc::collections::btree::node::Handle<alloc::collections::btree::node::NodeRef<alloc::collections::btree::node::marker::Mut, alloc::string::String, serde_json::value::Value, alloc::collections::btree::node::marker::Internal>, alloc::collections::btree::node::marker::Edge>", [0 x i64] }
%"core::result::Result<alloc::collections::btree::node::Handle<alloc::collections::btree::node::NodeRef<alloc::collections::btree::node::marker::Mut, alloc::string::String, serde_json::value::Value, alloc::collections::btree::node::marker::Internal>, alloc::collections::btree::node::marker::Edge>, alloc::collections::btree::node::NodeRef<alloc::collections::btree::node::marker::Mut, alloc::string::String, serde_json::value::Value, alloc::collections::btree::node::marker::Internal>>::Err" = type { [1 x i64], %"alloc::collections::btree::node::NodeRef<alloc::collections::btree::node::marker::Mut, alloc::string::String, serde_json::value::Value, alloc::collections::btree::node::marker::Internal>", [0 x i64] }
%"core::result::Result<alloc::collections::btree::node::Handle<alloc::collections::btree::node::NodeRef<alloc::collections::btree::node::marker::Mut, alloc::string::String, serde_json::value::Value, alloc::collections::btree::node::marker::Internal>, alloc::collections::btree::node::marker::Edge>, &mut alloc::collections::btree::node::Root<alloc::string::String, serde_json::value::Value>>::Err" = type { [1 x i64], { i64*, i64 }*, [0 x i64] }
%"core::result::Result<alloc::collections::btree::node::Handle<alloc::collections::btree::node::NodeRef<alloc::collections::btree::node::marker::Mut, alloc::string::String, serde_json::value::Value, alloc::collections::btree::node::marker::Internal>, alloc::collections::btree::node::marker::Edge>, alloc::collections::btree::node::NodeRef<alloc::collections::btree::node::marker::Mut, alloc::string::String, serde_json::value::Value, alloc::collections::btree::node::marker::Leaf>>" = type { [0 x i64], i64, [4 x i64] }
%"core::result::Result<alloc::collections::btree::node::Handle<alloc::collections::btree::node::NodeRef<alloc::collections::btree::node::marker::Mut, alloc::string::String, serde_json::value::Value, alloc::collections::btree::node::marker::Internal>, alloc::collections::btree::node::marker::Edge>, alloc::collections::btree::node::NodeRef<alloc::collections::btree::node::marker::Mut, alloc::string::String, serde_json::value::Value, alloc::collections::btree::node::marker::Leaf>>::Ok" = type { [1 x i64], %"alloc::collections::btree::node::Handle<alloc::collections::btree::node::NodeRef<alloc::collections::btree::node::marker::Mut, alloc::string::String, serde_json::value::Value, alloc::collections::btree::node::marker::Internal>, alloc::collections::btree::node::marker::Edge>", [0 x i64] }
%"core::result::Result<alloc::collections::btree::node::Handle<alloc::collections::btree::node::NodeRef<alloc::collections::btree::node::marker::Mut, alloc::string::String, serde_json::value::Value, alloc::collections::btree::node::marker::Internal>, alloc::collections::btree::node::marker::Edge>, alloc::collections::btree::node::NodeRef<alloc::collections::btree::node::marker::Mut, alloc::string::String, serde_json::value::Value, alloc::collections::btree::node::marker::Leaf>>::Err" = type { [1 x i64], %"alloc::collections::btree::node::NodeRef<alloc::collections::btree::node::marker::Mut, alloc::string::String, serde_json::value::Value, alloc::collections::btree::node::marker::Leaf>", [0 x i64] }
%"alloc::alloc::Global" = type {}
%"alloc::collections::btree::node::ForceResult<alloc::collections::btree::node::NodeRef<alloc::collections::btree::node::marker::Owned, alloc::string::String, serde_json::value::Value, alloc::collections::btree::node::marker::Leaf>, alloc::collections::btree::node::NodeRef<alloc::collections::btree::node::marker::Owned, alloc::string::String, serde_json::value::Value, alloc::collections::btree::node::marker::Internal>>" = type { [0 x i64], i64, [3 x i64] }
%"alloc::collections::btree::node::ForceResult<alloc::collections::btree::node::NodeRef<alloc::collections::btree::node::marker::Owned, alloc::string::String, serde_json::value::Value, alloc::collections::btree::node::marker::Leaf>, alloc::collections::btree::node::NodeRef<alloc::collections::btree::node::marker::Owned, alloc::string::String, serde_json::value::Value, alloc::collections::btree::node::marker::Internal>>::Leaf" = type { [1 x i64], %"alloc::collections::btree::node::NodeRef<alloc::collections::btree::node::marker::Owned, alloc::string::String, serde_json::value::Value, alloc::collections::btree::node::marker::Leaf>", [0 x i64] }
%"alloc::collections::btree::node::ForceResult<alloc::collections::btree::node::NodeRef<alloc::collections::btree::node::marker::Owned, alloc::string::String, serde_json::value::Value, alloc::collections::btree::node::marker::Leaf>, alloc::collections::btree::node::NodeRef<alloc::collections::btree::node::marker::Owned, alloc::string::String, serde_json::value::Value, alloc::collections::btree::node::marker::Internal>>::Internal" = type { [1 x i64], %"alloc::collections::btree::node::NodeRef<alloc::collections::btree::node::marker::Owned, alloc::string::String, serde_json::value::Value, alloc::collections::btree::node::marker::Internal>", [0 x i64] }
%"alloc::collections::btree::map::Entry<alloc::string::String, serde_json::value::Value>" = type { [0 x i64], i64, [8 x i64] }
%"alloc::collections::btree::node::Handle<alloc::collections::btree::node::NodeRef<alloc::collections::btree::node::marker::Mut, alloc::string::String, serde_json::value::Value, alloc::collections::btree::node::marker::LeafOrInternal>, alloc::collections::btree::node::marker::KV>" = type { [0 x i8], %"core::marker::PhantomData<alloc::collections::btree::node::marker::KV>", [0 x i8], %"alloc::collections::btree::node::NodeRef<alloc::collections::btree::node::marker::Mut, alloc::string::String, serde_json::value::Value, alloc::collections::btree::node::marker::LeafOrInternal>", [0 x i64], i64, [0 x i64] }
%"alloc::collections::btree::node::NodeRef<alloc::collections::btree::node::marker::Mut, alloc::string::String, serde_json::value::Value, alloc::collections::btree::node::marker::LeafOrInternal>" = type { [0 x i8], %"core::marker::PhantomData<(alloc::collections::btree::node::marker::Mut, alloc::collections::btree::node::marker::LeafOrInternal)>", [0 x i8], i64, [0 x i64], i64*, [0 x i64], { i64*, i64 }*, [0 x i64] }
%"core::marker::PhantomData<(alloc::collections::btree::node::marker::Mut, alloc::collections::btree::node::marker::LeafOrInternal)>" = type {}
%"alloc::collections::btree::map::OccupiedEntry<alloc::string::String, serde_json::value::Value>" = type { [0 x i8], %"core::marker::PhantomData<&mut (alloc::string::String, serde_json::value::Value)>", [0 x i8], %"alloc::collections::btree::node::Handle<alloc::collections::btree::node::NodeRef<alloc::collections::btree::node::marker::Mut, alloc::string::String, serde_json::value::Value, alloc::collections::btree::node::marker::LeafOrInternal>, alloc::collections::btree::node::marker::KV>", [0 x i64], i64*, [0 x i64] }
%"alloc::collections::btree::search::SearchResult<alloc::collections::btree::node::marker::Mut, alloc::string::String, serde_json::value::Value, alloc::collections::btree::node::marker::LeafOrInternal, alloc::collections::btree::node::marker::Leaf>" = type { [0 x i64], i64, [4 x i64] }
%"alloc::collections::btree::search::SearchResult<alloc::collections::btree::node::marker::Mut, alloc::string::String, serde_json::value::Value, alloc::collections::btree::node::marker::LeafOrInternal, alloc::collections::btree::node::marker::Leaf>::Found" = type { [1 x i64], %"alloc::collections::btree::node::Handle<alloc::collections::btree::node::NodeRef<alloc::collections::btree::node::marker::Mut, alloc::string::String, serde_json::value::Value, alloc::collections::btree::node::marker::LeafOrInternal>, alloc::collections::btree::node::marker::KV>", [0 x i64] }
%"alloc::collections::btree::map::Entry<alloc::string::String, serde_json::value::Value>::Occupied" = type { [1 x i64], %"alloc::collections::btree::map::OccupiedEntry<alloc::string::String, serde_json::value::Value>", [0 x i64] }
%"alloc::collections::btree::search::SearchResult<alloc::collections::btree::node::marker::Mut, alloc::string::String, serde_json::value::Value, alloc::collections::btree::node::marker::LeafOrInternal, alloc::collections::btree::node::marker::Leaf>::GoDown" = type { [1 x i64], %"alloc::collections::btree::node::Handle<alloc::collections::btree::node::NodeRef<alloc::collections::btree::node::marker::Mut, alloc::string::String, serde_json::value::Value, alloc::collections::btree::node::marker::Leaf>, alloc::collections::btree::node::marker::Edge>", [0 x i64] }
%"alloc::collections::btree::map::Entry<alloc::string::String, serde_json::value::Value>::Vacant" = type { [1 x i64], %"alloc::collections::btree::map::VacantEntry<alloc::string::String, serde_json::value::Value>", [0 x i64] }
%"alloc::collections::btree::map::{{impl}}::insert::{{closure}}<alloc::string::String, serde_json::value::Value>" = type {}
%"alloc::collections::btree::map::{{impl}}::insert::{{closure}}<alloc::string::String, serde_json::value::Value>.1" = type {}
%"alloc::collections::btree::node::Handle<alloc::collections::btree::node::NodeRef<alloc::collections::btree::node::marker::Mut, alloc::string::String, serde_json::value::Value, alloc::collections::btree::node::marker::Leaf>, alloc::collections::btree::node::marker::KV>" = type { [0 x i8], %"core::marker::PhantomData<alloc::collections::btree::node::marker::KV>", [0 x i8], %"alloc::collections::btree::node::NodeRef<alloc::collections::btree::node::marker::Mut, alloc::string::String, serde_json::value::Value, alloc::collections::btree::node::marker::Leaf>", [0 x i64], i64, [0 x i64] }
%"alloc::collections::btree::node::InsertResult<alloc::string::String, serde_json::value::Value, alloc::collections::btree::node::marker::Leaf>" = type { [0 x i64], i64, [12 x i64] }
%"alloc::collections::btree::node::InsertResult<alloc::string::String, serde_json::value::Value, alloc::collections::btree::node::marker::Leaf>::Fit" = type { [1 x i64], %"alloc::collections::btree::node::Handle<alloc::collections::btree::node::NodeRef<alloc::collections::btree::node::marker::Mut, alloc::string::String, serde_json::value::Value, alloc::collections::btree::node::marker::Leaf>, alloc::collections::btree::node::marker::KV>", [0 x i64] }
%"alloc::collections::btree::node::InsertResult<alloc::string::String, serde_json::value::Value, alloc::collections::btree::node::marker::Leaf>::Split" = type { [1 x i64], %"alloc::collections::btree::node::NodeRef<alloc::collections::btree::node::marker::Mut, alloc::string::String, serde_json::value::Value, alloc::collections::btree::node::marker::Leaf>", [0 x i64], %"alloc::string::String", [0 x i64], %"serde_json::value::Value", [0 x i64], { i64*, i64 }, [0 x i64] }
%"alloc::collections::btree::node::Handle<alloc::collections::btree::node::NodeRef<alloc::collections::btree::node::marker::Mut, alloc::string::String, serde_json::value::Value, alloc::collections::btree::node::marker::Internal>, alloc::collections::btree::node::marker::KV>" = type { [0 x i8], %"core::marker::PhantomData<alloc::collections::btree::node::marker::KV>", [0 x i8], %"alloc::collections::btree::node::NodeRef<alloc::collections::btree::node::marker::Mut, alloc::string::String, serde_json::value::Value, alloc::collections::btree::node::marker::Internal>", [0 x i64], i64, [0 x i64] }
%"alloc::collections::btree::node::Handle<alloc::collections::btree::node::NodeRef<alloc::collections::btree::node::marker::Mut, alloc::string::String, serde_json::value::Value, alloc::collections::btree::node::marker::LeafOrInternal>, alloc::collections::btree::node::marker::Edge>" = type { [0 x i8], %"core::marker::PhantomData<alloc::collections::btree::node::marker::Edge>", [0 x i8], %"alloc::collections::btree::node::NodeRef<alloc::collections::btree::node::marker::Mut, alloc::string::String, serde_json::value::Value, alloc::collections::btree::node::marker::LeafOrInternal>", [0 x i64], i64, [0 x i64] }
%"alloc::collections::btree::node::ForceResult<alloc::collections::btree::node::Handle<alloc::collections::btree::node::NodeRef<alloc::collections::btree::node::marker::Mut, alloc::string::String, serde_json::value::Value, alloc::collections::btree::node::marker::Leaf>, alloc::collections::btree::node::marker::Edge>, alloc::collections::btree::node::Handle<alloc::collections::btree::node::NodeRef<alloc::collections::btree::node::marker::Mut, alloc::string::String, serde_json::value::Value, alloc::collections::btree::node::marker::Internal>, alloc::collections::btree::node::marker::Edge>>" = type { [0 x i64], i64, [4 x i64] }
%"alloc::collections::btree::node::ForceResult<alloc::collections::btree::node::NodeRef<alloc::collections::btree::node::marker::Mut, alloc::string::String, serde_json::value::Value, alloc::collections::btree::node::marker::Leaf>, alloc::collections::btree::node::NodeRef<alloc::collections::btree::node::marker::Mut, alloc::string::String, serde_json::value::Value, alloc::collections::btree::node::marker::Internal>>" = type { [0 x i64], i64, [3 x i64] }
%"alloc::collections::btree::node::ForceResult<alloc::collections::btree::node::NodeRef<alloc::collections::btree::node::marker::Mut, alloc::string::String, serde_json::value::Value, alloc::collections::btree::node::marker::Leaf>, alloc::collections::btree::node::NodeRef<alloc::collections::btree::node::marker::Mut, alloc::string::String, serde_json::value::Value, alloc::collections::btree::node::marker::Internal>>::Leaf" = type { [1 x i64], %"alloc::collections::btree::node::NodeRef<alloc::collections::btree::node::marker::Mut, alloc::string::String, serde_json::value::Value, alloc::collections::btree::node::marker::Leaf>", [0 x i64] }
%"alloc::collections::btree::node::ForceResult<alloc::collections::btree::node::Handle<alloc::collections::btree::node::NodeRef<alloc::collections::btree::node::marker::Mut, alloc::string::String, serde_json::value::Value, alloc::collections::btree::node::marker::Leaf>, alloc::collections::btree::node::marker::Edge>, alloc::collections::btree::node::Handle<alloc::collections::btree::node::NodeRef<alloc::collections::btree::node::marker::Mut, alloc::string::String, serde_json::value::Value, alloc::collections::btree::node::marker::Internal>, alloc::collections::btree::node::marker::Edge>>::Leaf" = type { [1 x i64], %"alloc::collections::btree::node::Handle<alloc::collections::btree::node::NodeRef<alloc::collections::btree::node::marker::Mut, alloc::string::String, serde_json::value::Value, alloc::collections::btree::node::marker::Leaf>, alloc::collections::btree::node::marker::Edge>", [0 x i64] }
%"alloc::collections::btree::node::ForceResult<alloc::collections::btree::node::NodeRef<alloc::collections::btree::node::marker::Mut, alloc::string::String, serde_json::value::Value, alloc::collections::btree::node::marker::Leaf>, alloc::collections::btree::node::NodeRef<alloc::collections::btree::node::marker::Mut, alloc::string::String, serde_json::value::Value, alloc::collections::btree::node::marker::Internal>>::Internal" = type { [1 x i64], %"alloc::collections::btree::node::NodeRef<alloc::collections::btree::node::marker::Mut, alloc::string::String, serde_json::value::Value, alloc::collections::btree::node::marker::Internal>", [0 x i64] }
%"alloc::collections::btree::node::ForceResult<alloc::collections::btree::node::Handle<alloc::collections::btree::node::NodeRef<alloc::collections::btree::node::marker::Mut, alloc::string::String, serde_json::value::Value, alloc::collections::btree::node::marker::Leaf>, alloc::collections::btree::node::marker::Edge>, alloc::collections::btree::node::Handle<alloc::collections::btree::node::NodeRef<alloc::collections::btree::node::marker::Mut, alloc::string::String, serde_json::value::Value, alloc::collections::btree::node::marker::Internal>, alloc::collections::btree::node::marker::Edge>>::Internal" = type { [1 x i64], %"alloc::collections::btree::node::Handle<alloc::collections::btree::node::NodeRef<alloc::collections::btree::node::marker::Mut, alloc::string::String, serde_json::value::Value, alloc::collections::btree::node::marker::Internal>, alloc::collections::btree::node::marker::Edge>", [0 x i64] }
%"alloc::collections::btree::node::NodeRef<alloc::collections::btree::node::marker::Immut, alloc::string::String, serde_json::value::Value, alloc::collections::btree::node::marker::LeafOrInternal>" = type { [0 x i8], %"core::marker::PhantomData<(alloc::collections::btree::node::marker::Immut, alloc::collections::btree::node::marker::LeafOrInternal)>", [0 x i8], i64, [0 x i64], i64*, [0 x i64], { i64*, i64 }*, [0 x i64] }
%"core::marker::PhantomData<(alloc::collections::btree::node::marker::Immut, alloc::collections::btree::node::marker::LeafOrInternal)>" = type {}
%"alloc::collections::btree::node::InsertResult<alloc::string::String, serde_json::value::Value, alloc::collections::btree::node::marker::Internal>::Fit" = type { [1 x i64], %"alloc::collections::btree::node::Handle<alloc::collections::btree::node::NodeRef<alloc::collections::btree::node::marker::Mut, alloc::string::String, serde_json::value::Value, alloc::collections::btree::node::marker::Internal>, alloc::collections::btree::node::marker::KV>", [0 x i64] }
%"core::result::Result<alloc::collections::btree::node::Handle<alloc::collections::btree::node::NodeRef<alloc::collections::btree::node::marker::Owned, alloc::string::String, serde_json::value::Value, alloc::collections::btree::node::marker::Internal>, alloc::collections::btree::node::marker::Edge>, alloc::collections::btree::node::NodeRef<alloc::collections::btree::node::marker::Owned, alloc::string::String, serde_json::value::Value, alloc::collections::btree::node::marker::Internal>>::Err" = type { [1 x i64], %"alloc::collections::btree::node::NodeRef<alloc::collections::btree::node::marker::Owned, alloc::string::String, serde_json::value::Value, alloc::collections::btree::node::marker::Internal>", [0 x i64] }
%"core::result::Result<alloc::collections::btree::node::Handle<alloc::collections::btree::node::NodeRef<alloc::collections::btree::node::marker::Owned, alloc::string::String, serde_json::value::Value, alloc::collections::btree::node::marker::Internal>, alloc::collections::btree::node::marker::Edge>, alloc::collections::btree::node::NodeRef<alloc::collections::btree::node::marker::Owned, alloc::string::String, serde_json::value::Value, alloc::collections::btree::node::marker::Leaf>>::Err" = type { [1 x i64], %"alloc::collections::btree::node::NodeRef<alloc::collections::btree::node::marker::Owned, alloc::string::String, serde_json::value::Value, alloc::collections::btree::node::marker::Leaf>", [0 x i64] }
%"alloc::collections::btree::node::NodeHeader<alloc::string::String, serde_json::value::Value, alloc::string::String>" = type { [0 x i64], %"alloc::collections::btree::node::InternalNode<alloc::string::String, serde_json::value::Value>"*, [0 x i16], i16, [0 x i16], i16, [2 x i16], [0 x %"alloc::string::String"], [0 x i64] }
%"alloc::collections::btree::search::SearchResult<alloc::collections::btree::node::marker::Mut, alloc::string::String, serde_json::value::Value, alloc::collections::btree::node::marker::LeafOrInternal, alloc::collections::btree::node::marker::LeafOrInternal>" = type { [0 x i64], i64, [4 x i64] }
%"alloc::collections::btree::search::SearchResult<alloc::collections::btree::node::marker::Mut, alloc::string::String, serde_json::value::Value, alloc::collections::btree::node::marker::LeafOrInternal, alloc::collections::btree::node::marker::LeafOrInternal>::Found" = type { [1 x i64], %"alloc::collections::btree::node::Handle<alloc::collections::btree::node::NodeRef<alloc::collections::btree::node::marker::Mut, alloc::string::String, serde_json::value::Value, alloc::collections::btree::node::marker::LeafOrInternal>, alloc::collections::btree::node::marker::KV>", [0 x i64] }
%"alloc::collections::btree::search::SearchResult<alloc::collections::btree::node::marker::Mut, alloc::string::String, serde_json::value::Value, alloc::collections::btree::node::marker::LeafOrInternal, alloc::collections::btree::node::marker::LeafOrInternal>::GoDown" = type { [1 x i64], %"alloc::collections::btree::node::Handle<alloc::collections::btree::node::NodeRef<alloc::collections::btree::node::marker::Mut, alloc::string::String, serde_json::value::Value, alloc::collections::btree::node::marker::LeafOrInternal>, alloc::collections::btree::node::marker::Edge>", [0 x i64] }
%"core::str::{{impl}}::as_bytes::Slices" = type { [2 x i64] }
%"core::result::Result<(), alloc::collections::TryReserveError>::Ok" = type { [8 x i8], {}, [0 x i8] }
%"alloc::raw_vec::{{impl}}::allocate_in::{{closure}}<u8, alloc::alloc::Global>.0" = type {}
%"alloc::raw_vec::{{impl}}::allocate_in::{{closure}}<u8, alloc::alloc::Global>" = type {}
%"alloc::raw_vec::{{impl}}::reserve_internal::{{closure}}<serde_json::value::Value, alloc::alloc::Global>" = type {}
%"alloc::raw_vec::{{impl}}::reserve_internal::{{closure}}<u8, alloc::alloc::Global>" = type {}
%"serde::de::impls::StringVisitor" = type {}
%"core::marker::PhantomData<alloc::string::String>" = type {}
%"core::ops::range::RangeFull" = type {}
%"core::result::Result<(), !>::Err" = type { [0 x i8] }
%"core::result::Result<(core::alloc::Layout, usize), core::alloc::LayoutErr>::Err" = type { [0 x i8], %"core::alloc::LayoutErr", [0 x i8] }
%"serde_json::read::Reference<str>" = type { [0 x i64], i64, [2 x i64] }
%"core::result::Result<serde_json::read::Reference<str>, serde_json::error::Error>" = type { [0 x i64], i64, [3 x i64] }
%"core::result::Result<serde_json::read::Reference<str>, serde_json::error::Error>::Ok" = type { [1 x i64], %"serde_json::read::Reference<str>", [0 x i64] }
%"core::result::Result<serde_json::read::Reference<str>, serde_json::error::Error>::Err" = type { [1 x i64], i64*, [0 x i64] }
%"serde_json::read::Reference<str>::Borrowed" = type { [1 x i64], { [0 x i8]*, i64 }, [0 x i64] }
%"serde_json::read::Reference<str>::Copied" = type { [1 x i64], { [0 x i8]*, i64 }, [0 x i64] }
%"serde_json::number::N::PosInt" = type { [1 x i64], i64, [0 x i64] }
%"serde_json::number::N::NegInt" = type { [1 x i64], i64, [0 x i64] }
%"unwind::libunwind::_Unwind_Exception" = type { [0 x i64], i64, [0 x i64], void (i32, %"unwind::libunwind::_Unwind_Exception"*)*, [0 x i64], [6 x i64], [0 x i64] }
%"unwind::libunwind::_Unwind_Context" = type { [0 x i8] }

@_ZN10serde_json2de5POW1017hf5de5bb0e948b3cfE = external global [309 x double]
@0 = private unnamed_addr constant <{ [89 x i8] }> <{ [89 x i8] c"/Users/runner/.cargo/registry/src/github.com-1ecc6299db9ec823/serde_json-1.0.40/src/de.rs" }>, align 1
@1 = private unnamed_addr constant <{ i8*, [16 x i8] }> <{ i8* getelementptr inbounds (<{ [89 x i8] }>, <{ [89 x i8] }>* @0, i32 0, i32 0, i32 0), [16 x i8] c"Y\00\00\00\00\00\00\00\5C\00\00\00\0F\00\00\00" }>, align 8
@str.0 = internal constant [31 x i8] c"attempt to divide with overflow"
@2 = private unnamed_addr constant <{ i8*, [16 x i8] }> <{ i8* getelementptr inbounds (<{ [89 x i8] }>, <{ [89 x i8] }>* @0, i32 0, i32 0, i32 0), [16 x i8] c"Y\00\00\00\00\00\00\00\5C\00\00\00 \00\00\00" }>, align 8
@3 = private unnamed_addr constant <{ i8*, [16 x i8] }> <{ i8* getelementptr inbounds (<{ [89 x i8] }>, <{ [89 x i8] }>* @0, i32 0, i32 0, i32 0), [16 x i8] c"Y\00\00\00\00\00\00\00\5C\00\00\000\00\00\00" }>, align 8
@str.1 = internal constant [48 x i8] c"attempt to calculate the remainder with overflow"
@"_ZN10serde_json5value5index87_$LT$impl$u20$core..ops..index..Index$LT$I$GT$$u20$for$u20$serde_json..value..Value$GT$5index4NULL17h6f0e269ee7495f91E" = external global %"serde_json::value::Value"
@vtable.2 = private unnamed_addr constant { void (i8**)*, i64, i64, i32 (i8**)*, i32 (i8**)*, i32 (i8**)* } { void (i8**)* @_ZN4core3ptr18real_drop_in_place17h52a3dcad0a6096bfE, i64 8, i64 8, i32 (i8**)* @"_ZN3std2rt10lang_start28_$u7b$$u7b$closure$u7d$$u7d$17h841fc13b70591440E", i32 (i8**)* @"_ZN3std2rt10lang_start28_$u7b$$u7b$closure$u7d$$u7d$17h841fc13b70591440E", i32 (i8**)* @"_ZN4core3ops8function6FnOnce40call_once$u7b$$u7b$vtable.shim$u7d$$u7d$17hc2a9e62f9b7d09cdE" }, align 8
@4 = private unnamed_addr constant <{ [46 x i8] }> <{ [46 x i8] c"attempt to copy from unaligned or null pointer" }>, align 1
@5 = private unnamed_addr constant <{ [25 x i8] }> <{ [25 x i8] c"src/libcore/intrinsics.rs" }>, align 1
@6 = private unnamed_addr constant <{ i8*, [16 x i8] }> <{ i8* getelementptr inbounds (<{ [25 x i8] }>, <{ [25 x i8] }>* @5, i32 0, i32 0, i32 0), [16 x i8] c"\19\00\00\00\00\00\00\00\BC\05\00\00\05\00\00\00" }>, align 8
@7 = private unnamed_addr constant <{ [44 x i8] }> <{ [44 x i8] c"attempt to copy to unaligned or null pointer" }>, align 1
@8 = private unnamed_addr constant <{ i8*, [16 x i8] }> <{ i8* getelementptr inbounds (<{ [25 x i8] }>, <{ [25 x i8] }>* @5, i32 0, i32 0, i32 0), [16 x i8] c"\19\00\00\00\00\00\00\00\BD\05\00\00\05\00\00\00" }>, align 8
@9 = private unnamed_addr constant <{ [37 x i8] }> <{ [37 x i8] c"attempt to copy to overlapping memory" }>, align 1
@10 = private unnamed_addr constant <{ i8*, [16 x i8] }> <{ i8* getelementptr inbounds (<{ [25 x i8] }>, <{ [25 x i8] }>* @5, i32 0, i32 0, i32 0), [16 x i8] c"\19\00\00\00\00\00\00\00\BE\05\00\00\05\00\00\00" }>, align 8
@11 = private unnamed_addr constant <{ [73 x i8] }> <{ [73 x i8] c"/rustc/b520af6fd515b186caed436d75162a42aa183d95/src/libcore/intrinsics.rs" }>, align 1
@12 = private unnamed_addr constant <{ i8*, [16 x i8] }> <{ i8* getelementptr inbounds (<{ [73 x i8] }>, <{ [73 x i8] }>* @11, i32 0, i32 0, i32 0), [16 x i8] c"I\00\00\00\00\00\00\00Q\05\00\00\17\00\00\00" }>, align 8
@str.3 = internal constant [57 x i8] c"attempt to calculate the remainder with a divisor of zero"
@13 = private unnamed_addr constant <{ i8*, [16 x i8] }> <{ i8* getelementptr inbounds (<{ [25 x i8] }>, <{ [25 x i8] }>* @5, i32 0, i32 0, i32 0), [16 x i8] c"\19\00\00\00\00\00\00\00\FC\05\00\00\05\00\00\00" }>, align 8
@14 = private unnamed_addr constant <{ i8*, [16 x i8] }> <{ i8* getelementptr inbounds (<{ [25 x i8] }>, <{ [25 x i8] }>* @5, i32 0, i32 0, i32 0), [16 x i8] c"\19\00\00\00\00\00\00\00\FD\05\00\00\05\00\00\00" }>, align 8
@15 = private unnamed_addr constant <{ [62 x i8] }> <{ [62 x i8] c"assertion failed: Layout::from_size_align(size, align).is_ok()" }>, align 1
@16 = private unnamed_addr constant <{ [20 x i8] }> <{ [20 x i8] c"src/libcore/alloc.rs" }>, align 1
@17 = private unnamed_addr constant <{ i8*, [16 x i8] }> <{ i8* getelementptr inbounds (<{ [20 x i8] }>, <{ [20 x i8] }>* @16, i32 0, i32 0, i32 0), [16 x i8] c"\14\00\00\00\00\00\00\00}\00\00\00\09\00\00\00" }>, align 8
@18 = private unnamed_addr constant <{ [45 x i8] }> <{ [45 x i8] c"assertion failed: offs == mem::size_of::<T>()" }>, align 1
@19 = private unnamed_addr constant <{ i8*, [16 x i8] }> <{ i8* getelementptr inbounds (<{ [20 x i8] }>, <{ [20 x i8] }>* @16, i32 0, i32 0, i32 0), [16 x i8] c"\14\00\00\00\00\00\00\00C\01\00\00\11\00\00\00" }>, align 8
@20 = private unnamed_addr constant <{ [41 x i8] }> <{ [41 x i8] c"attempt to create unaligned or null slice" }>, align 1
@21 = private unnamed_addr constant <{ [24 x i8] }> <{ [24 x i8] c"src/libcore/slice/mod.rs" }>, align 1
@22 = private unnamed_addr constant <{ i8*, [16 x i8] }> <{ i8* getelementptr inbounds (<{ [24 x i8] }>, <{ [24 x i8] }>* @21, i32 0, i32 0, i32 0), [16 x i8] c"\18\00\00\00\00\00\00\00\C1\14\00\00\05\00\00\00" }>, align 8
@23 = private unnamed_addr constant <{ [55 x i8] }> <{ [55 x i8] c"attempt to create slice covering half the address space" }>, align 1
@24 = private unnamed_addr constant <{ i8*, [16 x i8] }> <{ i8* getelementptr inbounds (<{ [24 x i8] }>, <{ [24 x i8] }>* @21, i32 0, i32 0, i32 0), [16 x i8] c"\18\00\00\00\00\00\00\00\C2\14\00\00\05\00\00\00" }>, align 8
@25 = private unnamed_addr constant <{ i8*, [16 x i8] }> <{ i8* getelementptr inbounds (<{ [24 x i8] }>, <{ [24 x i8] }>* @21, i32 0, i32 0, i32 0), [16 x i8] c"\18\00\00\00\00\00\00\00\D6\14\00\00\05\00\00\00" }>, align 8
@26 = private unnamed_addr constant <{ i8*, [16 x i8] }> <{ i8* getelementptr inbounds (<{ [24 x i8] }>, <{ [24 x i8] }>* @21, i32 0, i32 0, i32 0), [16 x i8] c"\18\00\00\00\00\00\00\00\D7\14\00\00\05\00\00\00" }>, align 8
@27 = private unnamed_addr constant <{ [45 x i8] }> <{ [45 x i8] c"assertion failed: `(left == right)`\0A  left: `" }>, align 1
@28 = private unnamed_addr constant <{ [12 x i8] }> <{ [12 x i8] c"`,\0A right: `" }>, align 1
@29 = private unnamed_addr constant <{ [3 x i8] }> <{ [3 x i8] c"`: " }>, align 1
@30 = private unnamed_addr constant <{ i8*, [8 x i8], i8*, [8 x i8], i8*, [8 x i8] }> <{ i8* getelementptr inbounds (<{ [45 x i8] }>, <{ [45 x i8] }>* @27, i32 0, i32 0, i32 0), [8 x i8] c"-\00\00\00\00\00\00\00", i8* getelementptr inbounds (<{ [12 x i8] }>, <{ [12 x i8] }>* @28, i32 0, i32 0, i32 0), [8 x i8] c"\0C\00\00\00\00\00\00\00", i8* getelementptr inbounds (<{ [3 x i8] }>, <{ [3 x i8] }>* @29, i32 0, i32 0, i32 0), [8 x i8] c"\03\00\00\00\00\00\00\00" }>, align 8
@31 = private unnamed_addr constant <{ [52 x i8] }> <{ [52 x i8] c"destination and source slices have different lengths" }>, align 1
@32 = private unnamed_addr constant <{ i8*, [8 x i8] }> <{ i8* getelementptr inbounds (<{ [52 x i8] }>, <{ [52 x i8] }>* @31, i32 0, i32 0, i32 0), [8 x i8] c"4\00\00\00\00\00\00\00" }>, align 8
@33 = private unnamed_addr constant <{ i8*, [16 x i8] }> <{ i8* getelementptr inbounds (<{ [24 x i8] }>, <{ [24 x i8] }>* @21, i32 0, i32 0, i32 0), [16 x i8] c"\18\00\00\00\00\00\00\00\A9\08\00\00\09\00\00\00" }>, align 8
@34 = private unnamed_addr constant <{ [43 x i8] }> <{ [43 x i8] c"called `Option::unwrap()` on a `None` value" }>, align 1
@35 = private unnamed_addr constant <{ [21 x i8] }> <{ [21 x i8] c"src/libcore/option.rs" }>, align 1
@36 = private unnamed_addr constant <{ i8*, [16 x i8] }> <{ i8* getelementptr inbounds (<{ [21 x i8] }>, <{ [21 x i8] }>* @35, i32 0, i32 0, i32 0), [16 x i8] c"\15\00\00\00\00\00\00\00z\01\00\00\15\00\00\00" }>, align 8
@vtable.4 = private unnamed_addr constant { void (i64**)*, i64, i64, i1 (i64**, %"core::fmt::Formatter"*)* } { void (i64**)* @_ZN4core3ptr18real_drop_in_place17h94d8d2616b716ae2E, i64 8, i64 8, i1 (i64**, %"core::fmt::Formatter"*)* @"_ZN61_$LT$serde_json..error..Error$u20$as$u20$core..fmt..Debug$GT$3fmt17h12d67353ba91dfdbE" }, align 8
@37 = private unnamed_addr constant <{ [43 x i8] }> <{ [43 x i8] c"called `Result::unwrap()` on an `Err` value" }>, align 1
@vtable.5 = private unnamed_addr constant { void (%"core::alloc::LayoutErr"*)*, i64, i64, i1 (%"core::alloc::LayoutErr"*, %"core::fmt::Formatter"*)* } { void (%"core::alloc::LayoutErr"*)* @_ZN4core3ptr18real_drop_in_place17h4ac5e5cd794556ddE, i64 0, i64 1, i1 (%"core::alloc::LayoutErr"*, %"core::fmt::Formatter"*)* @"_ZN59_$LT$core..alloc..LayoutErr$u20$as$u20$core..fmt..Debug$GT$3fmt17h7f2cfe2f03b2687cE" }, align 8
@vtable.6 = private unnamed_addr constant { void ({ [0 x i8] }*)*, i64, i64, i1 ({ [0 x i8] }*, %"core::fmt::Formatter"*)* } { void ({ [0 x i8] }*)* @_ZN4core3ptr18real_drop_in_place17h7479a83b6311fd5fE, i64 0, i64 1, i1 ({ [0 x i8] }*, %"core::fmt::Formatter"*)* @"_ZN42_$LT$$u21$$u20$as$u20$core..fmt..Debug$GT$3fmt17h2885998fd11a212fE" }, align 8
@38 = private unnamed_addr constant <{ [72 x i8] }> <{ [72 x i8] c"/rustc/b520af6fd515b186caed436d75162a42aa183d95/src/libcore/ops/arith.rs" }>, align 1
@39 = private unnamed_addr constant <{ i8*, [16 x i8] }> <{ i8* getelementptr inbounds (<{ [72 x i8] }>, <{ [72 x i8] }>* @38, i32 0, i32 0, i32 0), [16 x i8] c"H\00\00\00\00\00\00\00\BA\02\00\003\00\00\00" }>, align 8
@str.7 = internal constant [28 x i8] c"attempt to add with overflow"
@40 = private unnamed_addr constant <{ [38 x i8] }> <{ [38 x i8] c"'unchecked' unwrap on None in BTreeMap" }>, align 1
@41 = private unnamed_addr constant <{ [37 x i8] }> <{ [37 x i8] c"src/liballoc/collections/btree/map.rs" }>, align 1
@42 = private unnamed_addr constant <{ i8*, [16 x i8] }> <{ i8* getelementptr inbounds (<{ [37 x i8] }>, <{ [37 x i8] }>* @41, i32 0, i32 0, i32 0), [16 x i8] c"%\00\00\00\00\00\00\00\96\07\00\00\0D\00\00\00" }>, align 8
@43 = private unnamed_addr constant <{ [40 x i8] }> <{ [40 x i8] c"assertion failed: !self.is_shared_root()" }>, align 1
@44 = private unnamed_addr constant <{ [38 x i8] }> <{ [38 x i8] c"src/liballoc/collections/btree/node.rs" }>, align 1
@45 = private unnamed_addr constant <{ i8*, [16 x i8] }> <{ i8* getelementptr inbounds (<{ [38 x i8] }>, <{ [38 x i8] }>* @44, i32 0, i32 0, i32 0), [16 x i8] c"&\00\00\00\00\00\00\00\F5\01\00\00\09\00\00\00" }>, align 8
@46 = private unnamed_addr constant <{ [48 x i8] }> <{ [48 x i8] c"assertion failed: edge.height == self.height - 1" }>, align 1
@47 = private unnamed_addr constant <{ i8*, [16 x i8] }> <{ i8* getelementptr inbounds (<{ [38 x i8] }>, <{ [38 x i8] }>* @44, i32 0, i32 0, i32 0), [16 x i8] c"&\00\00\00\00\00\00\00\DC\02\00\00\09\00\00\00" }>, align 8
@48 = private unnamed_addr constant <{ [39 x i8] }> <{ [39 x i8] c"assertion failed: self.len() < CAPACITY" }>, align 1
@49 = private unnamed_addr constant <{ i8*, [16 x i8] }> <{ i8* getelementptr inbounds (<{ [38 x i8] }>, <{ [38 x i8] }>* @44, i32 0, i32 0, i32 0), [16 x i8] c"&\00\00\00\00\00\00\00\DD\02\00\00\09\00\00\00" }>, align 8
@50 = private unnamed_addr constant <{ [34 x i8] }> <{ [34 x i8] c"assertion failed: idx < node.len()" }>, align 1
@51 = private unnamed_addr constant <{ i8*, [16 x i8] }> <{ i8* getelementptr inbounds (<{ [38 x i8] }>, <{ [38 x i8] }>* @44, i32 0, i32 0, i32 0), [16 x i8] c"&\00\00\00\00\00\00\00\97\03\00\00\09\00\00\00" }>, align 8
@52 = private unnamed_addr constant <{ [35 x i8] }> <{ [35 x i8] c"assertion failed: idx <= node.len()" }>, align 1
@53 = private unnamed_addr constant <{ i8*, [16 x i8] }> <{ i8* getelementptr inbounds (<{ [38 x i8] }>, <{ [38 x i8] }>* @44, i32 0, i32 0, i32 0), [16 x i8] c"&\00\00\00\00\00\00\00\E1\03\00\00\09\00\00\00" }>, align 8
@54 = private unnamed_addr constant <{ i8*, [16 x i8] }> <{ i8* getelementptr inbounds (<{ [38 x i8] }>, <{ [38 x i8] }>* @44, i32 0, i32 0, i32 0), [16 x i8] c"&\00\00\00\00\00\00\00\06\01\00\00\09\00\00\00" }>, align 8
@_ZN5alloc11collections5btree4node15EMPTY_ROOT_NODE17h6eb12c3df8cca51dE = external global %"alloc::collections::btree::node::NodeHeader<(), (), ()>"
@55 = private unnamed_addr constant <{ [45 x i8] }> <{ [45 x i8] c"assertion failed: !self.node.is_shared_root()" }>, align 1
@56 = private unnamed_addr constant <{ i8*, [16 x i8] }> <{ i8* getelementptr inbounds (<{ [38 x i8] }>, <{ [38 x i8] }>* @44, i32 0, i32 0, i32 0), [16 x i8] c"&\00\00\00\00\00\00\00\BE\04\00\00\09\00\00\00" }>, align 8
@57 = private unnamed_addr constant <{ [44 x i8] }> <{ [44 x i8] c"assertion failed: self.node.len() < CAPACITY" }>, align 1
@58 = private unnamed_addr constant <{ i8*, [16 x i8] }> <{ i8* getelementptr inbounds (<{ [38 x i8] }>, <{ [38 x i8] }>* @44, i32 0, i32 0, i32 0), [16 x i8] c"&\00\00\00\00\00\00\00\07\04\00\00\09\00\00\00" }>, align 8
@59 = private unnamed_addr constant <{ i8*, [16 x i8] }> <{ i8* getelementptr inbounds (<{ [38 x i8] }>, <{ [38 x i8] }>* @44, i32 0, i32 0, i32 0), [16 x i8] c"&\00\00\00\00\00\00\00\08\04\00\00\09\00\00\00" }>, align 8
@60 = private unnamed_addr constant <{ i8*, [16 x i8] }> <{ i8* getelementptr inbounds (<{ [38 x i8] }>, <{ [38 x i8] }>* @44, i32 0, i32 0, i32 0), [16 x i8] c"&\00\00\00\00\00\00\00L\04\00\00\09\00\00\00" }>, align 8
@61 = private unnamed_addr constant <{ [53 x i8] }> <{ [53 x i8] c"assertion failed: edge.height == self.node.height - 1" }>, align 1
@62 = private unnamed_addr constant <{ i8*, [16 x i8] }> <{ i8* getelementptr inbounds (<{ [38 x i8] }>, <{ [38 x i8] }>* @44, i32 0, i32 0, i32 0), [16 x i8] c"&\00\00\00\00\00\00\00M\04\00\00\09\00\00\00" }>, align 8
@63 = private unnamed_addr constant <{ i8*, [16 x i8] }> <{ i8* getelementptr inbounds (<{ [38 x i8] }>, <{ [38 x i8] }>* @44, i32 0, i32 0, i32 0), [16 x i8] c"&\00\00\00\00\00\00\00i\04\00\00\09\00\00\00" }>, align 8
@64 = private unnamed_addr constant <{ [24 x i8] }> zeroinitializer, align 8
@65 = private unnamed_addr constant <{ [32 x i8] }> zeroinitializer, align 8
@66 = private unnamed_addr constant <{ [8 x i8] }> zeroinitializer, align 8
@67 = private unnamed_addr constant <{ i8*, [16 x i8] }> <{ i8* getelementptr inbounds (<{ [38 x i8] }>, <{ [38 x i8] }>* @44, i32 0, i32 0, i32 0), [16 x i8] c"&\00\00\00\00\00\00\00\A1\02\00\00\09\00\00\00" }>, align 8
@68 = private unnamed_addr constant <{ i8*, [16 x i8] }> <{ i8* getelementptr inbounds (<{ [38 x i8] }>, <{ [38 x i8] }>* @44, i32 0, i32 0, i32 0), [16 x i8] c"&\00\00\00\00\00\00\00\97\02\00\00\09\00\00\00" }>, align 8
@69 = private unnamed_addr constant <{ [93 x i8] }> <{ [93 x i8] c"assertion failed: mem::size_of::<NodeHeader<K, V>>() == mem::size_of::<NodeHeader<K, V, K>>()" }>, align 1
@70 = private unnamed_addr constant <{ i8*, [16 x i8] }> <{ i8* getelementptr inbounds (<{ [38 x i8] }>, <{ [38 x i8] }>* @44, i32 0, i32 0, i32 0), [16 x i8] c"&\00\00\00\00\00\00\00d\02\00\00\0D\00\00\00" }>, align 8
@71 = private unnamed_addr constant <{ i8*, [16 x i8] }> <{ i8* getelementptr inbounds (<{ [38 x i8] }>, <{ [38 x i8] }>* @44, i32 0, i32 0, i32 0), [16 x i8] c"&\00\00\00\00\00\00\00n\02\00\00\09\00\00\00" }>, align 8
@72 = private unnamed_addr constant <{ [16 x i8] }> <{ [16 x i8] c"\01\00\00\00\00\00\00\00\00\00\00\00\00\00\00\00" }>, align 8
@73 = private unnamed_addr constant <{ [16 x i8] }> <{ [16 x i8] c"\08\00\00\00\00\00\00\00\00\00\00\00\00\00\00\00" }>, align 8
@74 = private unnamed_addr constant <{ [44 x i8] }> <{ [44 x i8] c"assertion failed: new_len <= self.capacity()" }>, align 1
@75 = private unnamed_addr constant <{ [19 x i8] }> <{ [19 x i8] c"src/liballoc/vec.rs" }>, align 1
@76 = private unnamed_addr constant <{ i8*, [16 x i8] }> <{ i8* getelementptr inbounds (<{ [19 x i8] }>, <{ [19 x i8] }>* @75, i32 0, i32 0, i32 0), [16 x i8] c"\13\00\00\00\00\00\00\00\A8\03\00\00\09\00\00\00" }>, align 8
@77 = private unnamed_addr constant <{ [54 x i8] }> <{ [54 x i8] c"assertion failed: new_layout.align() == layout.align()" }>, align 1
@78 = private unnamed_addr constant <{ [23 x i8] }> <{ [23 x i8] c"src/liballoc/raw_vec.rs" }>, align 1
@79 = private unnamed_addr constant <{ i8*, [16 x i8] }> <{ i8* getelementptr inbounds (<{ [23 x i8] }>, <{ [23 x i8] }>* @78, i32 0, i32 0, i32 0), [16 x i8] c"\17\00\00\00\00\00\00\00\B4\02\00\00\15\00\00\00" }>, align 8
@80 = private unnamed_addr constant <{ [40 x i8] }> <{ [40 x i8] c"internal error: entered unreachable code" }>, align 1
@81 = private unnamed_addr constant <{ i8*, [16 x i8] }> <{ i8* getelementptr inbounds (<{ [23 x i8] }>, <{ [23 x i8] }>* @78, i32 0, i32 0, i32 0), [16 x i8] c"\17\00\00\00\00\00\00\00\0A\02\00\00'\00\00\00" }>, align 8
@82 = private unnamed_addr constant <{ [91 x i8] }> <{ [91 x i8] c"/Users/runner/.cargo/registry/src/github.com-1ecc6299db9ec823/serde_json-1.0.40/src/read.rs" }>, align 1
@83 = private unnamed_addr constant <{ i8*, [16 x i8] }> <{ i8* getelementptr inbounds (<{ [91 x i8] }>, <{ [91 x i8] }>* @82, i32 0, i32 0, i32 0), [16 x i8] c"[\00\00\00\00\00\00\00\D6\01\00\00\16\00\00\00" }>, align 8
@84 = private unnamed_addr constant <{ i8*, [16 x i8] }> <{ i8* getelementptr inbounds (<{ [91 x i8] }>, <{ [91 x i8] }>* @82, i32 0, i32 0, i32 0), [16 x i8] c"[\00\00\00\00\00\00\00\E3\01\00\00\12\00\00\00" }>, align 8
@85 = private unnamed_addr constant <{ [4 x i8] }> <{ [4 x i8] c"alse" }>, align 1
@86 = private unnamed_addr constant <{ [3 x i8] }> <{ [3 x i8] c"rue" }>, align 1
@87 = private unnamed_addr constant <{ [3 x i8] }> <{ [3 x i8] c"ull" }>, align 1
@88 = private unnamed_addr constant <{ [76 x i8] }> <{ [76 x i8] c"{\0A\0A    \09\22language\22:\22RUST\22,\0A    \09\22init\22:\22fn main() {println!(\5C\22HI\5C\22)}\22\0A\0A    }" }>, align 1
@89 = private unnamed_addr constant <{ [27 x i8] }> <{ [27 x i8] c"JSON was not well-formatted" }>, align 1
@90 = private unnamed_addr constant <{ [0 x i8] }> zeroinitializer, align 1
@91 = private unnamed_addr constant <{ [1 x i8] }> <{ [1 x i8] c"\0A" }>, align 1
@92 = private unnamed_addr constant <{ i8*, [8 x i8], i8*, [8 x i8] }> <{ i8* getelementptr inbounds (<{ [0 x i8] }>, <{ [0 x i8] }>* @90, i32 0, i32 0, i32 0), [8 x i8] zeroinitializer, i8* getelementptr inbounds (<{ [1 x i8] }>, <{ [1 x i8] }>* @91, i32 0, i32 0, i32 0), [8 x i8] c"\01\00\00\00\00\00\00\00" }>, align 8
@93 = private unnamed_addr constant <{ [4 x i8] }> <{ [4 x i8] c"init" }>, align 1

; <core::ops::range::RangeFrom<usize> as core::slice::SliceIndex<[T]>>::get_unchecked_mut
; Function Attrs: inlinehint uwtable
define internal { [0 x i8]*, i64 } @"_ZN103_$LT$core..ops..range..RangeFrom$LT$usize$GT$$u20$as$u20$core..slice..SliceIndex$LT$$u5b$T$u5d$$GT$$GT$17get_unchecked_mut17hd64912864bd0a3f9E"(i64 %self, [0 x i8]* nonnull align 1 %slice.0, i64 %slice.1) unnamed_addr #0 {
start:
  %_5 = alloca { i64, i64 }, align 8
; call core::slice::<impl [T]>::len
  %0 = call i64 @"_ZN4core5slice29_$LT$impl$u20$$u5b$T$u5d$$GT$3len17hc211230a7243c68bE"([0 x i8]* noalias nonnull readonly align 1 %slice.0, i64 %slice.1)
  br label %bb1

bb1:                                              ; preds = %start
  %1 = bitcast { i64, i64 }* %_5 to i64*
  store i64 %self, i64* %1, align 8
  %2 = getelementptr inbounds { i64, i64 }, { i64, i64 }* %_5, i32 0, i32 1
  store i64 %0, i64* %2, align 8
  %3 = getelementptr inbounds { i64, i64 }, { i64, i64 }* %_5, i32 0, i32 0
  %4 = load i64, i64* %3, align 8
  %5 = getelementptr inbounds { i64, i64 }, { i64, i64 }* %_5, i32 0, i32 1
  %6 = load i64, i64* %5, align 8
; call <core::ops::range::Range<usize> as core::slice::SliceIndex<[T]>>::get_unchecked_mut
  %7 = call { [0 x i8]*, i64 } @"_ZN99_$LT$core..ops..range..Range$LT$usize$GT$$u20$as$u20$core..slice..SliceIndex$LT$$u5b$T$u5d$$GT$$GT$17get_unchecked_mut17hdb909e221daffdcdE"(i64 %4, i64 %6, [0 x i8]* nonnull align 1 %slice.0, i64 %slice.1)
  %_3.0 = extractvalue { [0 x i8]*, i64 } %7, 0
  %_3.1 = extractvalue { [0 x i8]*, i64 } %7, 1
  br label %bb2

bb2:                                              ; preds = %bb1
  %8 = insertvalue { [0 x i8]*, i64 } undef, [0 x i8]* %_3.0, 0
  %9 = insertvalue { [0 x i8]*, i64 } %8, i64 %_3.1, 1
  ret { [0 x i8]*, i64 } %9
}

; <alloc::vec::Vec<T> as alloc::vec::SpecExtend<&T,core::slice::Iter<T>>>::spec_extend
; Function Attrs: uwtable
define internal void @"_ZN109_$LT$alloc..vec..Vec$LT$T$GT$$u20$as$u20$alloc..vec..SpecExtend$LT$$RF$T$C$core..slice..Iter$LT$T$GT$$GT$$GT$11spec_extend17hc740559ffb375a4dE"(%"alloc::vec::Vec<u8>"* align 8 dereferenceable(24) %self, i8*, i8*) unnamed_addr #1 {
start:
  %_23 = alloca i64, align 8
  %iterator = alloca { i8*, i8* }, align 8
  %2 = getelementptr inbounds { i8*, i8* }, { i8*, i8* }* %iterator, i32 0, i32 0
  store i8* %0, i8** %2, align 8
  %3 = getelementptr inbounds { i8*, i8* }, { i8*, i8* }* %iterator, i32 0, i32 1
  store i8* %1, i8** %3, align 8
; call core::slice::Iter<T>::as_slice
  %4 = call { [0 x i8]*, i64 } @"_ZN4core5slice13Iter$LT$T$GT$8as_slice17h1eeb1dfd8e9033ecE"({ i8*, i8* }* noalias readonly align 8 dereferenceable(16) %iterator)
  %_8.0 = extractvalue { [0 x i8]*, i64 } %4, 0
  %_8.1 = extractvalue { [0 x i8]*, i64 } %4, 1
  br label %bb1

bb1:                                              ; preds = %start
; call core::slice::<impl [T]>::len
  %5 = call i64 @"_ZN4core5slice29_$LT$impl$u20$$u5b$T$u5d$$GT$3len17hc211230a7243c68bE"([0 x i8]* noalias nonnull readonly align 1 %_8.0, i64 %_8.1)
  br label %bb2

bb2:                                              ; preds = %bb1
; call alloc::vec::Vec<T>::reserve
  call void @"_ZN5alloc3vec12Vec$LT$T$GT$7reserve17h5212ae0671e06415E"(%"alloc::vec::Vec<u8>"* align 8 dereferenceable(24) %self, i64 %5)
  br label %bb3

bb3:                                              ; preds = %bb2
; call alloc::vec::Vec<T>::len
  %_14 = call i64 @"_ZN5alloc3vec12Vec$LT$T$GT$3len17ha1386654566913eaE"(%"alloc::vec::Vec<u8>"* noalias readonly align 8 dereferenceable(24) %self)
  br label %bb4

bb4:                                              ; preds = %bb3
; call core::slice::<impl [T]>::len
  %6 = call i64 @"_ZN4core5slice29_$LT$impl$u20$$u5b$T$u5d$$GT$3len17hc211230a7243c68bE"([0 x i8]* noalias nonnull readonly align 1 %_8.0, i64 %_8.1)
  br label %bb5

bb5:                                              ; preds = %bb4
  %_13 = add i64 %_14, %6
; call alloc::vec::Vec<T>::set_len
  call void @"_ZN5alloc3vec12Vec$LT$T$GT$7set_len17hbfe99e7e439e91d5E"(%"alloc::vec::Vec<u8>"* align 8 dereferenceable(24) %self, i64 %_13)
  br label %bb6

bb6:                                              ; preds = %bb5
; call <alloc::vec::Vec<T> as core::ops::deref::DerefMut>::deref_mut
  %7 = call { [0 x i8]*, i64 } @"_ZN71_$LT$alloc..vec..Vec$LT$T$GT$$u20$as$u20$core..ops..deref..DerefMut$GT$9deref_mut17h589a0160353ee4e0E"(%"alloc::vec::Vec<u8>"* align 8 dereferenceable(24) %self)
  %_20.0 = extractvalue { [0 x i8]*, i64 } %7, 0
  %_20.1 = extractvalue { [0 x i8]*, i64 } %7, 1
  br label %bb7

bb7:                                              ; preds = %bb6
  store i64 %_14, i64* %_23, align 8
  %8 = load i64, i64* %_23, align 8
; call core::slice::<impl [T]>::get_unchecked_mut
  %9 = call { [0 x i8]*, i64 } @"_ZN4core5slice29_$LT$impl$u20$$u5b$T$u5d$$GT$17get_unchecked_mut17he3db8f7bb3638e38E"([0 x i8]* nonnull align 1 %_20.0, i64 %_20.1, i64 %8)
  %_18.0 = extractvalue { [0 x i8]*, i64 } %9, 0
  %_18.1 = extractvalue { [0 x i8]*, i64 } %9, 1
  br label %bb8

bb8:                                              ; preds = %bb7
; call core::slice::<impl [T]>::copy_from_slice
  call void @"_ZN4core5slice29_$LT$impl$u20$$u5b$T$u5d$$GT$15copy_from_slice17he89b076b9f180569E"([0 x i8]* nonnull align 1 %_18.0, i64 %_18.1, [0 x i8]* noalias nonnull readonly align 1 %_8.0, i64 %_8.1)
  br label %bb9

bb9:                                              ; preds = %bb8
  ret void
}

; serde_json::de::from_trait
; Function Attrs: uwtable
define internal void @_ZN10serde_json2de10from_trait17h3a15270127c36777E(%"core::result::Result<serde_json::value::Value, serde_json::error::Error>"* noalias nocapture sret dereferenceable(40), %"serde_json::read::StrRead"* noalias nocapture dereferenceable(24) %read) unnamed_addr #1 personality i32 (i32, i32, i64, %"unwind::libunwind::_Unwind_Exception"*, %"unwind::libunwind::_Unwind_Context"*)* @rust_eh_personality {
start:
  %1 = alloca { i8*, i32 }, align 8
  %_18 = alloca %"serde_json::value::Value", align 8
  %_12 = alloca i64*, align 8
  %val = alloca %"serde_json::value::Value", align 8
  %_5 = alloca %"core::result::Result<serde_json::value::Value, serde_json::error::Error>", align 8
  %value = alloca %"serde_json::value::Value", align 8
  %_3 = alloca %"serde_json::read::StrRead", align 8
  %de = alloca %"serde_json::de::Deserializer<serde_json::read::StrRead>", align 8
  %2 = bitcast %"serde_json::read::StrRead"* %_3 to i8*
  %3 = bitcast %"serde_json::read::StrRead"* %read to i8*
  call void @llvm.memcpy.p0i8.p0i8.i64(i8* align 8 %2, i8* align 8 %3, i64 24, i1 false)
; call serde_json::de::Deserializer<R>::new
  call void @"_ZN10serde_json2de21Deserializer$LT$R$GT$3new17h15325ca982be86c9E"(%"serde_json::de::Deserializer<serde_json::read::StrRead>"* noalias nocapture sret dereferenceable(56) %de, %"serde_json::read::StrRead"* noalias nocapture dereferenceable(24) %_3)
  br label %bb2

bb1:                                              ; preds = %bb4
  %4 = bitcast { i8*, i32 }* %1 to i8**
  %5 = load i8*, i8** %4, align 8
  %6 = getelementptr inbounds { i8*, i32 }, { i8*, i32 }* %1, i32 0, i32 1
  %7 = load i32, i32* %6, align 8
  %8 = insertvalue { i8*, i32 } undef, i8* %5, 0
  %9 = insertvalue { i8*, i32 } %8, i32 %7, 1
  resume { i8*, i32 } %9

bb2:                                              ; preds = %start
; invoke serde_json::value::de::<impl serde::de::Deserialize for serde_json::value::Value>::deserialize
  invoke void @"_ZN10serde_json5value2de77_$LT$impl$u20$serde..de..Deserialize$u20$for$u20$serde_json..value..Value$GT$11deserialize17h6a070a70d67c12dbE"(%"core::result::Result<serde_json::value::Value, serde_json::error::Error>"* noalias nocapture sret dereferenceable(40) %_5, %"serde_json::de::Deserializer<serde_json::read::StrRead>"* align 8 dereferenceable(56) %de)
          to label %bb3 unwind label %cleanup

bb3:                                              ; preds = %bb2
  %10 = bitcast %"core::result::Result<serde_json::value::Value, serde_json::error::Error>"* %_5 to i64*
  %_7 = load i64, i64* %10, align 8, !range !1
  switch i64 %_7, label %bb5 [
    i64 0, label %bb6
    i64 1, label %bb7
  ]

bb4:                                              ; preds = %bb11, %cleanup
; call core::ptr::real_drop_in_place
  call void @_ZN4core3ptr18real_drop_in_place17h6ab0cad95da20374E(%"serde_json::de::Deserializer<serde_json::read::StrRead>"* align 8 dereferenceable(56) %de) #14
  br label %bb1

bb5:                                              ; preds = %bb3
  unreachable

bb6:                                              ; preds = %bb3
  %11 = bitcast %"core::result::Result<serde_json::value::Value, serde_json::error::Error>"* %_5 to %"core::result::Result<serde_json::value::Value, serde_json::error::Error>::Ok"*
  %12 = getelementptr inbounds %"core::result::Result<serde_json::value::Value, serde_json::error::Error>::Ok", %"core::result::Result<serde_json::value::Value, serde_json::error::Error>::Ok"* %11, i32 0, i32 1
  %13 = bitcast %"serde_json::value::Value"* %val to i8*
  %14 = bitcast %"serde_json::value::Value"* %12 to i8*
  call void @llvm.memcpy.p0i8.p0i8.i64(i8* align 8 %13, i8* align 8 %14, i64 32, i1 false)
  %15 = bitcast %"serde_json::value::Value"* %value to i8*
  %16 = bitcast %"serde_json::value::Value"* %val to i8*
  call void @llvm.memcpy.p0i8.p0i8.i64(i8* align 8 %15, i8* align 8 %16, i64 32, i1 false)
  %17 = bitcast %"core::result::Result<serde_json::value::Value, serde_json::error::Error>"* %_5 to i64*
  %_19 = load i64, i64* %17, align 8, !range !1
  %18 = icmp eq i64 %_19, 0
  br i1 %18, label %bb19, label %bb20

bb7:                                              ; preds = %bb3
  %19 = bitcast %"core::result::Result<serde_json::value::Value, serde_json::error::Error>"* %_5 to %"core::result::Result<serde_json::value::Value, serde_json::error::Error>::Err"*
  %20 = getelementptr inbounds %"core::result::Result<serde_json::value::Value, serde_json::error::Error>::Err", %"core::result::Result<serde_json::value::Value, serde_json::error::Error>::Err"* %19, i32 0, i32 1
  %err = load i64*, i64** %20, align 8, !nonnull !2
  %21 = bitcast %"core::result::Result<serde_json::value::Value, serde_json::error::Error>"* %0 to %"core::result::Result<serde_json::value::Value, serde_json::error::Error>::Err"*
  %22 = getelementptr inbounds %"core::result::Result<serde_json::value::Value, serde_json::error::Error>::Err", %"core::result::Result<serde_json::value::Value, serde_json::error::Error>::Err"* %21, i32 0, i32 1
  store i64* %err, i64** %22, align 8
  %23 = bitcast %"core::result::Result<serde_json::value::Value, serde_json::error::Error>"* %0 to i64*
  store i64 1, i64* %23, align 8
  %24 = bitcast %"core::result::Result<serde_json::value::Value, serde_json::error::Error>"* %_5 to i64*
  %_20 = load i64, i64* %24, align 8, !range !1
  %25 = icmp eq i64 %_20, 0
  br i1 %25, label %bb22, label %bb21

bb8:                                              ; preds = %bb18, %bb10
  ret void

bb9:                                              ; preds = %bb16, %bb21
; call core::ptr::real_drop_in_place
  call void @_ZN4core3ptr18real_drop_in_place17h6ab0cad95da20374E(%"serde_json::de::Deserializer<serde_json::read::StrRead>"* align 8 dereferenceable(56) %de)
  br label %bb10

bb10:                                             ; preds = %bb9
  br label %bb8

bb11:                                             ; preds = %cleanup1
; call core::ptr::real_drop_in_place
  call void @_ZN4core3ptr18real_drop_in_place17hf41454ab830ed941E(%"serde_json::value::Value"* align 8 dereferenceable(32) %value) #14
  br label %bb4

bb12:                                             ; preds = %bb19
  store i64* %43, i64** %_12, align 8
  %26 = bitcast i64** %_12 to {}**
  %27 = load {}*, {}** %26, align 8
  %28 = icmp ule {}* %27, null
  %_14 = select i1 %28, i64 0, i64 1
  switch i64 %_14, label %bb13 [
    i64 0, label %bb14
    i64 1, label %bb15
  ]

bb13:                                             ; preds = %bb12
  unreachable

bb14:                                             ; preds = %bb12
; invoke core::ptr::real_drop_in_place
  invoke void @_ZN4core3ptr18real_drop_in_place17hfb44039b78fb0ea9E(i64** align 8 dereferenceable(8) %_12)
          to label %bb17 unwind label %cleanup1

bb15:                                             ; preds = %bb12
  %err2 = load i64*, i64** %_12, align 8, !nonnull !2
  %29 = bitcast %"core::result::Result<serde_json::value::Value, serde_json::error::Error>"* %0 to %"core::result::Result<serde_json::value::Value, serde_json::error::Error>::Err"*
  %30 = getelementptr inbounds %"core::result::Result<serde_json::value::Value, serde_json::error::Error>::Err", %"core::result::Result<serde_json::value::Value, serde_json::error::Error>::Err"* %29, i32 0, i32 1
  store i64* %err2, i64** %30, align 8
  %31 = bitcast %"core::result::Result<serde_json::value::Value, serde_json::error::Error>"* %0 to i64*
  store i64 1, i64* %31, align 8
  %32 = bitcast i64** %_12 to {}**
  %33 = load {}*, {}** %32, align 8
  %34 = icmp ule {}* %33, null
  %_21 = select i1 %34, i64 0, i64 1
  %35 = icmp eq i64 %_21, 1
  br i1 %35, label %bb23, label %bb24

bb16:                                             ; preds = %bb23
  br label %bb9

bb17:                                             ; preds = %bb14
  %36 = bitcast %"serde_json::value::Value"* %_18 to i8*
  %37 = bitcast %"serde_json::value::Value"* %value to i8*
  call void @llvm.memcpy.p0i8.p0i8.i64(i8* align 8 %36, i8* align 8 %37, i64 32, i1 false)
  %38 = bitcast %"core::result::Result<serde_json::value::Value, serde_json::error::Error>"* %0 to %"core::result::Result<serde_json::value::Value, serde_json::error::Error>::Ok"*
  %39 = getelementptr inbounds %"core::result::Result<serde_json::value::Value, serde_json::error::Error>::Ok", %"core::result::Result<serde_json::value::Value, serde_json::error::Error>::Ok"* %38, i32 0, i32 1
  %40 = bitcast %"serde_json::value::Value"* %39 to i8*
  %41 = bitcast %"serde_json::value::Value"* %_18 to i8*
  call void @llvm.memcpy.p0i8.p0i8.i64(i8* align 8 %40, i8* align 8 %41, i64 32, i1 false)
  %42 = bitcast %"core::result::Result<serde_json::value::Value, serde_json::error::Error>"* %0 to i64*
  store i64 0, i64* %42, align 8
; call core::ptr::real_drop_in_place
  call void @_ZN4core3ptr18real_drop_in_place17h6ab0cad95da20374E(%"serde_json::de::Deserializer<serde_json::read::StrRead>"* align 8 dereferenceable(56) %de)
  br label %bb18

bb18:                                             ; preds = %bb17
  br label %bb8

bb19:                                             ; preds = %bb20, %bb6
; invoke serde_json::de::Deserializer<R>::end
  %43 = invoke noalias align 8 dereferenceable_or_null(40) i64* @"_ZN10serde_json2de21Deserializer$LT$R$GT$3end17hcbcbe374b4655a15E"(%"serde_json::de::Deserializer<serde_json::read::StrRead>"* align 8 dereferenceable(56) %de)
          to label %bb12 unwind label %cleanup1

bb20:                                             ; preds = %bb6
  %44 = bitcast %"core::result::Result<serde_json::value::Value, serde_json::error::Error>"* %_5 to %"core::result::Result<serde_json::value::Value, serde_json::error::Error>::Err"*
  %45 = getelementptr inbounds %"core::result::Result<serde_json::value::Value, serde_json::error::Error>::Err", %"core::result::Result<serde_json::value::Value, serde_json::error::Error>::Err"* %44, i32 0, i32 1
; invoke core::ptr::real_drop_in_place
  invoke void @_ZN4core3ptr18real_drop_in_place17h94d8d2616b716ae2E(i64** align 8 dereferenceable(8) %45)
          to label %bb19 unwind label %cleanup1

bb21:                                             ; preds = %bb22, %bb7
  br label %bb9

bb22:                                             ; preds = %bb7
  %46 = bitcast %"core::result::Result<serde_json::value::Value, serde_json::error::Error>"* %_5 to %"core::result::Result<serde_json::value::Value, serde_json::error::Error>::Ok"*
  %47 = getelementptr inbounds %"core::result::Result<serde_json::value::Value, serde_json::error::Error>::Ok", %"core::result::Result<serde_json::value::Value, serde_json::error::Error>::Ok"* %46, i32 0, i32 1
; invoke core::ptr::real_drop_in_place
  invoke void @_ZN4core3ptr18real_drop_in_place17hf41454ab830ed941E(%"serde_json::value::Value"* align 8 dereferenceable(32) %47)
          to label %bb21 unwind label %cleanup

bb23:                                             ; preds = %bb24, %bb15
; invoke core::ptr::real_drop_in_place
  invoke void @_ZN4core3ptr18real_drop_in_place17hf41454ab830ed941E(%"serde_json::value::Value"* align 8 dereferenceable(32) %value)
          to label %bb16 unwind label %cleanup

bb24:                                             ; preds = %bb15
; invoke core::ptr::real_drop_in_place
  invoke void @_ZN4core3ptr18real_drop_in_place17hfb44039b78fb0ea9E(i64** align 8 dereferenceable(8) %_12)
          to label %bb23 unwind label %cleanup1

cleanup:                                          ; preds = %bb23, %bb22, %bb2
  %48 = landingpad { i8*, i32 }
          cleanup
  %49 = extractvalue { i8*, i32 } %48, 0
  %50 = extractvalue { i8*, i32 } %48, 1
  %51 = getelementptr inbounds { i8*, i32 }, { i8*, i32 }* %1, i32 0, i32 0
  store i8* %49, i8** %51, align 8
  %52 = getelementptr inbounds { i8*, i32 }, { i8*, i32 }* %1, i32 0, i32 1
  store i32 %50, i32* %52, align 8
  br label %bb4

cleanup1:                                         ; preds = %bb14, %bb24, %bb19, %bb20
  %53 = landingpad { i8*, i32 }
          cleanup
  %54 = extractvalue { i8*, i32 } %53, 0
  %55 = extractvalue { i8*, i32 } %53, 1
  %56 = getelementptr inbounds { i8*, i32 }, { i8*, i32 }* %1, i32 0, i32 0
  store i8* %54, i8** %56, align 8
  %57 = getelementptr inbounds { i8*, i32 }, { i8*, i32 }* %1, i32 0, i32 1
  store i32 %55, i32* %57, align 8
  br label %bb11
}

; serde_json::de::ParserNumber::visit
; Function Attrs: uwtable
define internal void @_ZN10serde_json2de12ParserNumber5visit17h8ecc1c455e59bd2dE(%"core::result::Result<serde_json::value::Value, serde_json::error::Error>"* noalias nocapture sret dereferenceable(40), %"serde_json::de::ParserNumber"* noalias nocapture dereferenceable(16) %self) unnamed_addr #1 {
start:
  %1 = bitcast %"serde_json::de::ParserNumber"* %self to i64*
  %_3 = load i64, i64* %1, align 8, !range !3
  switch i64 %_3, label %bb1 [
    i64 0, label %bb2
    i64 1, label %bb4
    i64 2, label %bb6
  ]

bb1:                                              ; preds = %start
  unreachable

bb2:                                              ; preds = %start
  %2 = bitcast %"serde_json::de::ParserNumber"* %self to %"serde_json::de::ParserNumber::F64"*
  %3 = getelementptr inbounds %"serde_json::de::ParserNumber::F64", %"serde_json::de::ParserNumber::F64"* %2, i32 0, i32 1
  %x2 = load double, double* %3, align 8
; call <serde_json::value::de::<impl serde::de::Deserialize for serde_json::value::Value>::deserialize::ValueVisitor as serde::de::Visitor>::visit_f64
  call void @"_ZN165_$LT$serde_json..value..de..$LT$impl$u20$serde..de..Deserialize$u20$for$u20$serde_json..value..Value$GT$..deserialize..ValueVisitor$u20$as$u20$serde..de..Visitor$GT$9visit_f6417h5653e63d5c357d8aE"(%"core::result::Result<serde_json::value::Value, serde_json::error::Error>"* noalias nocapture sret dereferenceable(40) %0, double %x2)
  br label %bb3

bb3:                                              ; preds = %bb2
  br label %bb8

bb4:                                              ; preds = %start
  %4 = bitcast %"serde_json::de::ParserNumber"* %self to %"serde_json::de::ParserNumber::U64"*
  %5 = getelementptr inbounds %"serde_json::de::ParserNumber::U64", %"serde_json::de::ParserNumber::U64"* %4, i32 0, i32 1
  %x1 = load i64, i64* %5, align 8
; call <serde_json::value::de::<impl serde::de::Deserialize for serde_json::value::Value>::deserialize::ValueVisitor as serde::de::Visitor>::visit_u64
  call void @"_ZN165_$LT$serde_json..value..de..$LT$impl$u20$serde..de..Deserialize$u20$for$u20$serde_json..value..Value$GT$..deserialize..ValueVisitor$u20$as$u20$serde..de..Visitor$GT$9visit_u6417hbe2bc3a34e0cab04E"(%"core::result::Result<serde_json::value::Value, serde_json::error::Error>"* noalias nocapture sret dereferenceable(40) %0, i64 %x1)
  br label %bb5

bb5:                                              ; preds = %bb4
  br label %bb8

bb6:                                              ; preds = %start
  %6 = bitcast %"serde_json::de::ParserNumber"* %self to %"serde_json::de::ParserNumber::I64"*
  %7 = getelementptr inbounds %"serde_json::de::ParserNumber::I64", %"serde_json::de::ParserNumber::I64"* %6, i32 0, i32 1
  %x = load i64, i64* %7, align 8
; call <serde_json::value::de::<impl serde::de::Deserialize for serde_json::value::Value>::deserialize::ValueVisitor as serde::de::Visitor>::visit_i64
  call void @"_ZN165_$LT$serde_json..value..de..$LT$impl$u20$serde..de..Deserialize$u20$for$u20$serde_json..value..Value$GT$..deserialize..ValueVisitor$u20$as$u20$serde..de..Visitor$GT$9visit_i6417h9ce7ec6c7da90479E"(%"core::result::Result<serde_json::value::Value, serde_json::error::Error>"* noalias nocapture sret dereferenceable(40) %0, i64 %x)
  br label %bb7

bb7:                                              ; preds = %bb6
  br label %bb8

bb8:                                              ; preds = %bb3, %bb5, %bb7
  ret void
}

; serde_json::de::MapAccess<R>::new
; Function Attrs: uwtable
define internal { i64*, i8 } @"_ZN10serde_json2de18MapAccess$LT$R$GT$3new17h84746e6730a85f4eE"(%"serde_json::de::Deserializer<serde_json::read::StrRead>"* align 8 dereferenceable(56) %de) unnamed_addr #1 {
start:
  %0 = alloca { i64*, i8 }, align 8
  %1 = bitcast { i64*, i8 }* %0 to %"serde_json::de::Deserializer<serde_json::read::StrRead>"**
  store %"serde_json::de::Deserializer<serde_json::read::StrRead>"* %de, %"serde_json::de::Deserializer<serde_json::read::StrRead>"** %1, align 8
  %2 = getelementptr inbounds { i64*, i8 }, { i64*, i8 }* %0, i32 0, i32 1
  store i8 1, i8* %2, align 8
  %3 = getelementptr inbounds { i64*, i8 }, { i64*, i8 }* %0, i32 0, i32 0
  %4 = load i64*, i64** %3, align 8, !nonnull !2
  %5 = getelementptr inbounds { i64*, i8 }, { i64*, i8 }* %0, i32 0, i32 1
  %6 = load i8, i8* %5, align 8, !range !4
  %7 = trunc i8 %6 to i1
  %8 = zext i1 %7 to i8
  %9 = insertvalue { i64*, i8 } undef, i64* %4, 0
  %10 = insertvalue { i64*, i8 } %9, i8 %8, 1
  ret { i64*, i8 } %10
}

; serde_json::de::SeqAccess<R>::new
; Function Attrs: uwtable
define internal { i64*, i8 } @"_ZN10serde_json2de18SeqAccess$LT$R$GT$3new17hb6bd22e213983f12E"(%"serde_json::de::Deserializer<serde_json::read::StrRead>"* align 8 dereferenceable(56) %de) unnamed_addr #1 {
start:
  %0 = alloca { i64*, i8 }, align 8
  %1 = bitcast { i64*, i8 }* %0 to %"serde_json::de::Deserializer<serde_json::read::StrRead>"**
  store %"serde_json::de::Deserializer<serde_json::read::StrRead>"* %de, %"serde_json::de::Deserializer<serde_json::read::StrRead>"** %1, align 8
  %2 = getelementptr inbounds { i64*, i8 }, { i64*, i8 }* %0, i32 0, i32 1
  store i8 1, i8* %2, align 8
  %3 = getelementptr inbounds { i64*, i8 }, { i64*, i8 }* %0, i32 0, i32 0
  %4 = load i64*, i64** %3, align 8, !nonnull !2
  %5 = getelementptr inbounds { i64*, i8 }, { i64*, i8 }* %0, i32 0, i32 1
  %6 = load i8, i8* %5, align 8, !range !4
  %7 = trunc i8 %6 to i1
  %8 = zext i1 %7 to i8
  %9 = insertvalue { i64*, i8 } undef, i64* %4, 0
  %10 = insertvalue { i64*, i8 } %9, i8 %8, 1
  ret { i64*, i8 } %10
}

; serde_json::de::Deserializer<R>::peek_error
; Function Attrs: cold uwtable
define internal noalias align 8 dereferenceable(40) i64* @"_ZN10serde_json2de21Deserializer$LT$R$GT$10peek_error17hc91437f5405786d2E"(%"serde_json::de::Deserializer<serde_json::read::StrRead>"* noalias readonly align 8 dereferenceable(56), %"serde_json::error::ErrorCode"* noalias nocapture dereferenceable(24) %reason) unnamed_addr #2 personality i32 (i32, i32, i64, %"unwind::libunwind::_Unwind_Exception"*, %"unwind::libunwind::_Unwind_Context"*)* @rust_eh_personality {
start:
  %1 = alloca { i8*, i32 }, align 8
  %_8 = alloca i8, align 1
  %_5 = alloca %"serde_json::error::ErrorCode", align 8
  %self = alloca %"serde_json::de::Deserializer<serde_json::read::StrRead>"*, align 8
  store %"serde_json::de::Deserializer<serde_json::read::StrRead>"* %0, %"serde_json::de::Deserializer<serde_json::read::StrRead>"** %self, align 8
  store i8 0, i8* %_8, align 1
  store i8 1, i8* %_8, align 1
  %2 = load %"serde_json::de::Deserializer<serde_json::read::StrRead>"*, %"serde_json::de::Deserializer<serde_json::read::StrRead>"** %self, align 8, !nonnull !2
  %_4 = bitcast %"serde_json::de::Deserializer<serde_json::read::StrRead>"* %2 to %"serde_json::read::StrRead"*
; invoke <serde_json::read::StrRead as serde_json::read::Read>::peek_position
  %3 = invoke { i64, i64 } @"_ZN68_$LT$serde_json..read..StrRead$u20$as$u20$serde_json..read..Read$GT$13peek_position17hedd027b1449046ecE"(%"serde_json::read::StrRead"* noalias readonly align 8 dereferenceable(24) %_4)
          to label %bb2 unwind label %cleanup

bb1:                                              ; preds = %bb4, %bb5
  %4 = bitcast { i8*, i32 }* %1 to i8**
  %5 = load i8*, i8** %4, align 8
  %6 = getelementptr inbounds { i8*, i32 }, { i8*, i32 }* %1, i32 0, i32 1
  %7 = load i32, i32* %6, align 8
  %8 = insertvalue { i8*, i32 } undef, i8* %5, 0
  %9 = insertvalue { i8*, i32 } %8, i32 %7, 1
  resume { i8*, i32 } %9

bb2:                                              ; preds = %start
  %_6 = extractvalue { i64, i64 } %3, 0
  %_7 = extractvalue { i64, i64 } %3, 1
  store i8 0, i8* %_8, align 1
  %10 = bitcast %"serde_json::error::ErrorCode"* %_5 to i8*
  %11 = bitcast %"serde_json::error::ErrorCode"* %reason to i8*
  call void @llvm.memcpy.p0i8.p0i8.i64(i8* align 8 %10, i8* align 8 %11, i64 24, i1 false)
; invoke serde_json::error::Error::syntax
  %12 = invoke noalias align 8 dereferenceable(40) i64* @_ZN10serde_json5error5Error6syntax17h5970e7652e1e592cE(%"serde_json::error::ErrorCode"* noalias nocapture dereferenceable(24) %_5, i64 %_6, i64 %_7)
          to label %bb3 unwind label %cleanup

bb3:                                              ; preds = %bb2
  ret i64* %12

bb4:                                              ; preds = %bb5
  store i8 0, i8* %_8, align 1
; call core::ptr::real_drop_in_place
  call void @_ZN4core3ptr18real_drop_in_place17h61d59176afeb8a22E(%"serde_json::error::ErrorCode"* align 8 dereferenceable(24) %reason) #14
  br label %bb1

bb5:                                              ; preds = %cleanup
  %13 = load i8, i8* %_8, align 1, !range !4
  %14 = trunc i8 %13 to i1
  br i1 %14, label %bb4, label %bb1

cleanup:                                          ; preds = %bb2, %start
  %15 = landingpad { i8*, i32 }
          cleanup
  %16 = extractvalue { i8*, i32 } %15, 0
  %17 = extractvalue { i8*, i32 } %15, 1
  %18 = getelementptr inbounds { i8*, i32 }, { i8*, i32 }* %1, i32 0, i32 0
  store i8* %16, i8** %18, align 8
  %19 = getelementptr inbounds { i8*, i32 }, { i8*, i32 }* %1, i32 0, i32 1
  store i32 %17, i32* %19, align 8
  br label %bb5
}

; serde_json::de::Deserializer<R>::parse_ident
; Function Attrs: uwtable
define internal noalias align 8 dereferenceable_or_null(40) i64* @"_ZN10serde_json2de21Deserializer$LT$R$GT$11parse_ident17h302880db207ea2acE"(%"serde_json::de::Deserializer<serde_json::read::StrRead>"* align 8 dereferenceable(56) %self, [0 x i8]* noalias nonnull readonly align 1 %ident.0, i64 %ident.1) unnamed_addr #1 personality i32 (i32, i32, i64, %"unwind::libunwind::_Unwind_Exception"*, %"unwind::libunwind::_Unwind_Context"*)* @rust_eh_personality {
start:
  %0 = alloca { i8*, i32 }, align 8
  %_33 = alloca i8, align 1
  %_32 = alloca {}, align 1
  %_31 = alloca %"serde_json::error::ErrorCode", align 8
  %_24 = alloca %"serde_json::error::ErrorCode", align 8
  %_15 = alloca %"core::result::Result<core::option::Option<u8>, serde_json::error::Error>", align 8
  %_14 = alloca { i8, i8 }, align 1
  %_7 = alloca i8*, align 8
  %iter = alloca { i8*, i8* }, align 8
  %1 = alloca i64*, align 8
  store i8 0, i8* %_33, align 1
; call core::slice::<impl core::iter::traits::collect::IntoIterator for &[T]>::into_iter
  %2 = call { i8*, i8* } @"_ZN4core5slice87_$LT$impl$u20$core..iter..traits..collect..IntoIterator$u20$for$u20$$RF$$u5b$T$u5d$$GT$9into_iter17h62294fff6c0bee53E"([0 x i8]* noalias nonnull readonly align 1 %ident.0, i64 %ident.1)
  %3 = extractvalue { i8*, i8* } %2, 0
  %4 = extractvalue { i8*, i8* } %2, 1
  br label %bb2

bb1:                                              ; preds = %bb13
  %5 = bitcast { i8*, i32 }* %0 to i8**
  %6 = load i8*, i8** %5, align 8
  %7 = getelementptr inbounds { i8*, i32 }, { i8*, i32 }* %0, i32 0, i32 1
  %8 = load i32, i32* %7, align 8
  %9 = insertvalue { i8*, i32 } undef, i8* %6, 0
  %10 = insertvalue { i8*, i32 } %9, i32 %8, 1
  resume { i8*, i32 } %10

bb2:                                              ; preds = %start
  %11 = getelementptr inbounds { i8*, i8* }, { i8*, i8* }* %iter, i32 0, i32 0
  store i8* %3, i8** %11, align 8
  %12 = getelementptr inbounds { i8*, i8* }, { i8*, i8* }* %iter, i32 0, i32 1
  store i8* %4, i8** %12, align 8
  br label %bb3

bb3:                                              ; preds = %bb22, %bb2
; call <core::slice::Iter<T> as core::iter::traits::iterator::Iterator>::next
  %13 = call align 1 dereferenceable_or_null(1) i8* @"_ZN85_$LT$core..slice..Iter$LT$T$GT$$u20$as$u20$core..iter..traits..iterator..Iterator$GT$4next17h3a5f1015b75355f6E"({ i8*, i8* }* align 8 dereferenceable(16) %iter)
  store i8* %13, i8** %_7, align 8
  br label %bb4

bb4:                                              ; preds = %bb3
  %14 = bitcast i8** %_7 to {}**
  %15 = load {}*, {}** %14, align 8
  %16 = icmp ule {}* %15, null
  %_10 = select i1 %16, i64 0, i64 1
  switch i64 %_10, label %bb6 [
    i64 0, label %bb5
    i64 1, label %bb7
  ]

bb5:                                              ; preds = %bb4
  %17 = bitcast i64** %1 to %"core::result::Result<(), serde_json::error::Error>::Ok"*
  %18 = bitcast %"core::result::Result<(), serde_json::error::Error>::Ok"* %17 to {}*
  %19 = bitcast i64** %1 to {}**
  store {}* null, {}** %19, align 8
  br label %bb12

bb6:                                              ; preds = %bb4
  unreachable

bb7:                                              ; preds = %bb4
  %val = load i8*, i8** %_7, align 8, !nonnull !2
  store i8 1, i8* %_33, align 1
; call serde_json::de::Deserializer<R>::next_char
  call void @"_ZN10serde_json2de21Deserializer$LT$R$GT$9next_char17h0e00787cc80c5e1eE"(%"core::result::Result<core::option::Option<u8>, serde_json::error::Error>"* noalias nocapture sret dereferenceable(16) %_15, %"serde_json::de::Deserializer<serde_json::read::StrRead>"* align 8 dereferenceable(56) %self)
  br label %bb8

bb8:                                              ; preds = %bb7
  %20 = bitcast %"core::result::Result<core::option::Option<u8>, serde_json::error::Error>"* %_15 to i8*
  %21 = load i8, i8* %20, align 8, !range !4
  %22 = trunc i8 %21 to i1
  %_17 = zext i1 %22 to i64
  switch i64 %_17, label %bb9 [
    i64 0, label %bb10
    i64 1, label %bb11
  ]

bb9:                                              ; preds = %bb8
  unreachable

bb10:                                             ; preds = %bb8
  %23 = bitcast %"core::result::Result<core::option::Option<u8>, serde_json::error::Error>"* %_15 to %"core::result::Result<core::option::Option<u8>, serde_json::error::Error>::Ok"*
  %24 = getelementptr inbounds %"core::result::Result<core::option::Option<u8>, serde_json::error::Error>::Ok", %"core::result::Result<core::option::Option<u8>, serde_json::error::Error>::Ok"* %23, i32 0, i32 1
  %25 = getelementptr inbounds { i8, i8 }, { i8, i8 }* %24, i32 0, i32 0
  %26 = load i8, i8* %25, align 1, !range !4
  %val.0 = trunc i8 %26 to i1
  %27 = getelementptr inbounds { i8, i8 }, { i8, i8 }* %24, i32 0, i32 1
  %val.1 = load i8, i8* %27, align 1
  %28 = getelementptr inbounds { i8, i8 }, { i8, i8 }* %_14, i32 0, i32 0
  %29 = zext i1 %val.0 to i8
  store i8 %29, i8* %28, align 1
  %30 = getelementptr inbounds { i8, i8 }, { i8, i8 }* %_14, i32 0, i32 1
  store i8 %val.1, i8* %30, align 1
  %31 = bitcast { i8, i8 }* %_14 to i8*
  %32 = load i8, i8* %31, align 1, !range !4
  %33 = trunc i8 %32 to i1
  %_21 = zext i1 %33 to i64
  switch i64 %_21, label %bb15 [
    i64 0, label %bb16
    i64 1, label %bb18
  ]

bb11:                                             ; preds = %bb8
  store i8 0, i8* %_33, align 1
  %34 = bitcast %"core::result::Result<core::option::Option<u8>, serde_json::error::Error>"* %_15 to %"core::result::Result<core::option::Option<u8>, serde_json::error::Error>::Err"*
  %35 = getelementptr inbounds %"core::result::Result<core::option::Option<u8>, serde_json::error::Error>::Err", %"core::result::Result<core::option::Option<u8>, serde_json::error::Error>::Err"* %34, i32 0, i32 1
  %err = load i64*, i64** %35, align 8, !nonnull !2
  store i64* %err, i64** %1, align 8
  br label %bb14

bb12:                                             ; preds = %bb5, %bb23
  %36 = load i64*, i64** %1, align 8
  ret i64* %36

bb13:                                             ; preds = %cleanup
  store i8 0, i8* %_33, align 1
; call core::ptr::real_drop_in_place
  call void @_ZN4core3ptr18real_drop_in_place17hbd244058d832624cE(%"core::result::Result<core::option::Option<u8>, serde_json::error::Error>"* align 8 dereferenceable(16) %_15) #14
  br label %bb1

bb14:                                             ; preds = %bb17, %bb21, %bb11
  %37 = bitcast %"core::result::Result<core::option::Option<u8>, serde_json::error::Error>"* %_15 to i8*
  %38 = load i8, i8* %37, align 8, !range !4
  %39 = trunc i8 %38 to i1
  %_34 = zext i1 %39 to i64
  %40 = icmp eq i64 %_34, 1
  br i1 %40, label %bb24, label %bb26

bb15:                                             ; preds = %bb10
  unreachable

bb16:                                             ; preds = %bb10
  %41 = bitcast %"serde_json::error::ErrorCode"* %_24 to i64*
  store i64 5, i64* %41, align 8
; invoke serde_json::de::Deserializer<R>::error
  %42 = invoke noalias align 8 dereferenceable(40) i64* @"_ZN10serde_json2de21Deserializer$LT$R$GT$5error17h608cc2aecfbde555E"(%"serde_json::de::Deserializer<serde_json::read::StrRead>"* noalias readonly align 8 dereferenceable(56) %self, %"serde_json::error::ErrorCode"* noalias nocapture dereferenceable(24) %_24)
          to label %bb17 unwind label %cleanup

bb17:                                             ; preds = %bb16
  store i64* %42, i64** %1, align 8
  br label %bb14

bb18:                                             ; preds = %bb10
  %43 = bitcast { i8, i8 }* %_14 to %"core::option::Option<u8>::Some"*
  %44 = getelementptr inbounds %"core::option::Option<u8>::Some", %"core::option::Option<u8>::Some"* %43, i32 0, i32 1
  %next = load i8, i8* %44, align 1
  %_28 = load i8, i8* %val, align 1
  %_26 = icmp ne i8 %next, %_28
  br i1 %_26, label %bb20, label %bb19

bb19:                                             ; preds = %bb18
  store i8 0, i8* %_33, align 1
; call core::ptr::real_drop_in_place
  call void @_ZN4core3ptr18real_drop_in_place17hbd244058d832624cE(%"core::result::Result<core::option::Option<u8>, serde_json::error::Error>"* align 8 dereferenceable(16) %_15)
  br label %bb22

bb20:                                             ; preds = %bb18
  %45 = bitcast %"serde_json::error::ErrorCode"* %_31 to i64*
  store i64 10, i64* %45, align 8
; invoke serde_json::de::Deserializer<R>::error
  %46 = invoke noalias align 8 dereferenceable(40) i64* @"_ZN10serde_json2de21Deserializer$LT$R$GT$5error17h608cc2aecfbde555E"(%"serde_json::de::Deserializer<serde_json::read::StrRead>"* noalias readonly align 8 dereferenceable(56) %self, %"serde_json::error::ErrorCode"* noalias nocapture dereferenceable(24) %_31)
          to label %bb21 unwind label %cleanup

bb21:                                             ; preds = %bb20
  store i64* %46, i64** %1, align 8
  br label %bb14

bb22:                                             ; preds = %bb19
  store i8 0, i8* %_33, align 1
  br label %bb3

bb23:                                             ; preds = %bb25, %bb24, %bb26
  store i8 0, i8* %_33, align 1
  br label %bb12

bb24:                                             ; preds = %bb14
  %47 = load i8, i8* %_33, align 1, !range !4
  %48 = trunc i8 %47 to i1
  br i1 %48, label %bb25, label %bb23

bb25:                                             ; preds = %bb24
  store i8 0, i8* %_33, align 1
  %49 = bitcast %"core::result::Result<core::option::Option<u8>, serde_json::error::Error>"* %_15 to %"core::result::Result<core::option::Option<u8>, serde_json::error::Error>::Err"*
  %50 = getelementptr inbounds %"core::result::Result<core::option::Option<u8>, serde_json::error::Error>::Err", %"core::result::Result<core::option::Option<u8>, serde_json::error::Error>::Err"* %49, i32 0, i32 1
; call core::ptr::real_drop_in_place
  call void @_ZN4core3ptr18real_drop_in_place17h94d8d2616b716ae2E(i64** align 8 dereferenceable(8) %50)
  br label %bb23

bb26:                                             ; preds = %bb14
; call core::ptr::real_drop_in_place
  call void @_ZN4core3ptr18real_drop_in_place17hbd244058d832624cE(%"core::result::Result<core::option::Option<u8>, serde_json::error::Error>"* align 8 dereferenceable(16) %_15)
  br label %bb23

cleanup:                                          ; preds = %bb16, %bb20
  %51 = landingpad { i8*, i32 }
          cleanup
  %52 = extractvalue { i8*, i32 } %51, 0
  %53 = extractvalue { i8*, i32 } %51, 1
  %54 = getelementptr inbounds { i8*, i32 }, { i8*, i32 }* %0, i32 0, i32 0
  store i8* %52, i8** %54, align 8
  %55 = getelementptr inbounds { i8*, i32 }, { i8*, i32 }* %0, i32 0, i32 1
  store i32 %53, i32* %55, align 8
  br label %bb13
}

; serde_json::de::Deserializer<R>::fix_position
; Function Attrs: cold uwtable
define internal noalias align 8 dereferenceable(40) i64* @"_ZN10serde_json2de21Deserializer$LT$R$GT$12fix_position17ha0ac31358975066aE"(%"serde_json::de::Deserializer<serde_json::read::StrRead>"* noalias readonly align 8 dereferenceable(56) %self, i64* noalias align 8 dereferenceable(40) %err) unnamed_addr #2 {
start:
  %_4 = alloca i64*, align 8
  %0 = bitcast i64** %_4 to %"serde_json::de::Deserializer<serde_json::read::StrRead>"**
  store %"serde_json::de::Deserializer<serde_json::read::StrRead>"* %self, %"serde_json::de::Deserializer<serde_json::read::StrRead>"** %0, align 8
  %1 = load i64*, i64** %_4, align 8, !nonnull !2
; call serde_json::error::Error::fix_position
  %2 = call noalias align 8 dereferenceable(40) i64* @_ZN10serde_json5error5Error12fix_position17hccdd20e0785ef7c1E(i64* noalias align 8 dereferenceable(40) %err, i64* noalias readonly align 8 dereferenceable(56) %1)
  br label %bb1

bb1:                                              ; preds = %start
  ret i64* %2
}

; serde_json::de::Deserializer<R>::fix_position::{{closure}}
; Function Attrs: uwtable
define internal noalias align 8 dereferenceable(40) i64* @"_ZN10serde_json2de21Deserializer$LT$R$GT$12fix_position28_$u7b$$u7b$closure$u7d$$u7d$17h2452be0badd59b4fE"(i64* noalias readonly align 8 dereferenceable(56) %_1, %"serde_json::error::ErrorCode"* noalias nocapture dereferenceable(24) %code) unnamed_addr #1 {
start:
  %_4 = alloca %"serde_json::error::ErrorCode", align 8
  %_3 = bitcast i64* %_1 to %"serde_json::de::Deserializer<serde_json::read::StrRead>"*
  %0 = bitcast %"serde_json::error::ErrorCode"* %_4 to i8*
  %1 = bitcast %"serde_json::error::ErrorCode"* %code to i8*
  call void @llvm.memcpy.p0i8.p0i8.i64(i8* align 8 %0, i8* align 8 %1, i64 24, i1 false)
; call serde_json::de::Deserializer<R>::error
  %2 = call noalias align 8 dereferenceable(40) i64* @"_ZN10serde_json2de21Deserializer$LT$R$GT$5error17h608cc2aecfbde555E"(%"serde_json::de::Deserializer<serde_json::read::StrRead>"* noalias readonly align 8 dereferenceable(56) %_3, %"serde_json::error::ErrorCode"* noalias nocapture dereferenceable(24) %_4)
  br label %bb1

bb1:                                              ; preds = %start
  ret i64* %2
}

; serde_json::de::Deserializer<R>::parse_number
; Function Attrs: uwtable
define internal void @"_ZN10serde_json2de21Deserializer$LT$R$GT$12parse_number17h431239a50d116072E"(%"core::result::Result<serde_json::de::ParserNumber, serde_json::error::Error>"* noalias nocapture sret dereferenceable(24), %"serde_json::de::Deserializer<serde_json::read::StrRead>"* align 8 dereferenceable(56) %self, i1 zeroext %positive, i64 %significand) unnamed_addr #1 personality i32 (i32, i32, i64, %"unwind::libunwind::_Unwind_Exception"*, %"unwind::libunwind::_Unwind_Context"*)* @rust_eh_personality {
start:
  %1 = alloca { i8*, i32 }, align 8
  %_41 = alloca i8, align 1
  %_22 = alloca %"core::result::Result<f64, serde_json::error::Error>", align 8
  %_13 = alloca %"core::result::Result<f64, serde_json::error::Error>", align 8
  %_6 = alloca %"core::result::Result<u8, serde_json::error::Error>", align 8
  %_4 = alloca %"serde_json::de::ParserNumber", align 8
  store i8 0, i8* %_41, align 1
  store i8 1, i8* %_41, align 1
; call serde_json::de::Deserializer<R>::peek_or_null
  call void @"_ZN10serde_json2de21Deserializer$LT$R$GT$12peek_or_null17hb35dfed309bd4e58E"(%"core::result::Result<u8, serde_json::error::Error>"* noalias nocapture sret dereferenceable(16) %_6, %"serde_json::de::Deserializer<serde_json::read::StrRead>"* align 8 dereferenceable(56) %self)
  br label %bb2

bb1:                                              ; preds = %bb7
  %2 = bitcast { i8*, i32 }* %1 to i8**
  %3 = load i8*, i8** %2, align 8
  %4 = getelementptr inbounds { i8*, i32 }, { i8*, i32 }* %1, i32 0, i32 1
  %5 = load i32, i32* %4, align 8
  %6 = insertvalue { i8*, i32 } undef, i8* %3, 0
  %7 = insertvalue { i8*, i32 } %6, i32 %5, 1
  resume { i8*, i32 } %7

bb2:                                              ; preds = %start
  %8 = bitcast %"core::result::Result<u8, serde_json::error::Error>"* %_6 to i8*
  %9 = load i8, i8* %8, align 8, !range !4
  %10 = trunc i8 %9 to i1
  %_8 = zext i1 %10 to i64
  switch i64 %_8, label %bb3 [
    i64 0, label %bb4
    i64 1, label %bb5
  ]

bb3:                                              ; preds = %bb2
  unreachable

bb4:                                              ; preds = %bb2
  %11 = bitcast %"core::result::Result<u8, serde_json::error::Error>"* %_6 to %"core::result::Result<u8, serde_json::error::Error>::Ok"*
  %12 = getelementptr inbounds %"core::result::Result<u8, serde_json::error::Error>::Ok", %"core::result::Result<u8, serde_json::error::Error>::Ok"* %11, i32 0, i32 1
  %val = load i8, i8* %12, align 1
  switch i8 %val, label %bb9 [
    i8 46, label %bb10
    i8 101, label %bb16
    i8 69, label %bb16
  ]

bb5:                                              ; preds = %bb2
  store i8 0, i8* %_41, align 1
  %13 = bitcast %"core::result::Result<u8, serde_json::error::Error>"* %_6 to %"core::result::Result<u8, serde_json::error::Error>::Err"*
  %14 = getelementptr inbounds %"core::result::Result<u8, serde_json::error::Error>::Err", %"core::result::Result<u8, serde_json::error::Error>::Err"* %13, i32 0, i32 1
  %err = load i64*, i64** %14, align 8, !nonnull !2
  %15 = bitcast %"core::result::Result<serde_json::de::ParserNumber, serde_json::error::Error>"* %0 to %"core::result::Result<serde_json::de::ParserNumber, serde_json::error::Error>::Err"*
  %16 = getelementptr inbounds %"core::result::Result<serde_json::de::ParserNumber, serde_json::error::Error>::Err", %"core::result::Result<serde_json::de::ParserNumber, serde_json::error::Error>::Err"* %15, i32 0, i32 1
  store i64* %err, i64** %16, align 8
  %17 = bitcast %"core::result::Result<serde_json::de::ParserNumber, serde_json::error::Error>"* %0 to i64*
  store i64 1, i64* %17, align 8
  br label %bb8

bb6:                                              ; preds = %bb30, %bb31
  ret void

bb7:                                              ; preds = %cleanup
  store i8 0, i8* %_41, align 1
; call core::ptr::real_drop_in_place
  call void @_ZN4core3ptr18real_drop_in_place17hda2544e7c0eb7314E(%"core::result::Result<u8, serde_json::error::Error>"* align 8 dereferenceable(16) %_6) #14
  br label %bb1

bb8:                                              ; preds = %bb35, %bb37, %bb5
  %18 = bitcast %"core::result::Result<u8, serde_json::error::Error>"* %_6 to i8*
  %19 = load i8, i8* %18, align 8, !range !4
  %20 = trunc i8 %19 to i1
  %_42 = zext i1 %20 to i64
  %21 = icmp eq i64 %_42, 1
  br i1 %21, label %bb32, label %bb34

bb9:                                              ; preds = %bb4
  br i1 %positive, label %bb23, label %bb22

bb10:                                             ; preds = %bb4
; invoke serde_json::de::Deserializer<R>::parse_decimal
  invoke void @"_ZN10serde_json2de21Deserializer$LT$R$GT$13parse_decimal17habee609a866cc241E"(%"core::result::Result<f64, serde_json::error::Error>"* noalias nocapture sret dereferenceable(16) %_13, %"serde_json::de::Deserializer<serde_json::read::StrRead>"* align 8 dereferenceable(56) %self, i1 zeroext %positive, i64 %significand, i32 0)
          to label %bb11 unwind label %cleanup

bb11:                                             ; preds = %bb10
  %22 = bitcast %"core::result::Result<f64, serde_json::error::Error>"* %_13 to i64*
  %_17 = load i64, i64* %22, align 8, !range !1
  switch i64 %_17, label %bb12 [
    i64 0, label %bb13
    i64 1, label %bb14
  ]

bb12:                                             ; preds = %bb11
  unreachable

bb13:                                             ; preds = %bb11
  %23 = bitcast %"core::result::Result<f64, serde_json::error::Error>"* %_13 to %"core::result::Result<f64, serde_json::error::Error>::Ok"*
  %24 = getelementptr inbounds %"core::result::Result<f64, serde_json::error::Error>::Ok", %"core::result::Result<f64, serde_json::error::Error>::Ok"* %23, i32 0, i32 1
  %val4 = load double, double* %24, align 8
  %25 = bitcast %"serde_json::de::ParserNumber"* %_4 to %"serde_json::de::ParserNumber::F64"*
  %26 = getelementptr inbounds %"serde_json::de::ParserNumber::F64", %"serde_json::de::ParserNumber::F64"* %25, i32 0, i32 1
  store double %val4, double* %26, align 8
  %27 = bitcast %"serde_json::de::ParserNumber"* %_4 to i64*
  store i64 0, i64* %27, align 8
; invoke core::ptr::real_drop_in_place
  invoke void @_ZN4core3ptr18real_drop_in_place17h164d76c7649c96aaE(%"core::result::Result<f64, serde_json::error::Error>"* align 8 dereferenceable(16) %_13)
          to label %bb15 unwind label %cleanup

bb14:                                             ; preds = %bb11
  %28 = bitcast %"core::result::Result<f64, serde_json::error::Error>"* %_13 to %"core::result::Result<f64, serde_json::error::Error>::Err"*
  %29 = getelementptr inbounds %"core::result::Result<f64, serde_json::error::Error>::Err", %"core::result::Result<f64, serde_json::error::Error>::Err"* %28, i32 0, i32 1
  %err3 = load i64*, i64** %29, align 8, !nonnull !2
  %30 = bitcast %"core::result::Result<serde_json::de::ParserNumber, serde_json::error::Error>"* %0 to %"core::result::Result<serde_json::de::ParserNumber, serde_json::error::Error>::Err"*
  %31 = getelementptr inbounds %"core::result::Result<serde_json::de::ParserNumber, serde_json::error::Error>::Err", %"core::result::Result<serde_json::de::ParserNumber, serde_json::error::Error>::Err"* %30, i32 0, i32 1
  store i64* %err3, i64** %31, align 8
  %32 = bitcast %"core::result::Result<serde_json::de::ParserNumber, serde_json::error::Error>"* %0 to i64*
  store i64 1, i64* %32, align 8
  %33 = bitcast %"core::result::Result<f64, serde_json::error::Error>"* %_13 to i64*
  %_43 = load i64, i64* %33, align 8, !range !1
  %34 = icmp eq i64 %_43, 1
  br i1 %34, label %bb35, label %bb36

bb15:                                             ; preds = %bb13
  br label %bb29

bb16:                                             ; preds = %bb4, %bb4
; invoke serde_json::de::Deserializer<R>::parse_exponent
  invoke void @"_ZN10serde_json2de21Deserializer$LT$R$GT$14parse_exponent17h88fb6703e140e55bE"(%"core::result::Result<f64, serde_json::error::Error>"* noalias nocapture sret dereferenceable(16) %_22, %"serde_json::de::Deserializer<serde_json::read::StrRead>"* align 8 dereferenceable(56) %self, i1 zeroext %positive, i64 %significand, i32 0)
          to label %bb17 unwind label %cleanup

bb17:                                             ; preds = %bb16
  %35 = bitcast %"core::result::Result<f64, serde_json::error::Error>"* %_22 to i64*
  %_26 = load i64, i64* %35, align 8, !range !1
  switch i64 %_26, label %bb18 [
    i64 0, label %bb19
    i64 1, label %bb20
  ]

bb18:                                             ; preds = %bb17
  unreachable

bb19:                                             ; preds = %bb17
  %36 = bitcast %"core::result::Result<f64, serde_json::error::Error>"* %_22 to %"core::result::Result<f64, serde_json::error::Error>::Ok"*
  %37 = getelementptr inbounds %"core::result::Result<f64, serde_json::error::Error>::Ok", %"core::result::Result<f64, serde_json::error::Error>::Ok"* %36, i32 0, i32 1
  %val2 = load double, double* %37, align 8
  %38 = bitcast %"serde_json::de::ParserNumber"* %_4 to %"serde_json::de::ParserNumber::F64"*
  %39 = getelementptr inbounds %"serde_json::de::ParserNumber::F64", %"serde_json::de::ParserNumber::F64"* %38, i32 0, i32 1
  store double %val2, double* %39, align 8
  %40 = bitcast %"serde_json::de::ParserNumber"* %_4 to i64*
  store i64 0, i64* %40, align 8
; invoke core::ptr::real_drop_in_place
  invoke void @_ZN4core3ptr18real_drop_in_place17h164d76c7649c96aaE(%"core::result::Result<f64, serde_json::error::Error>"* align 8 dereferenceable(16) %_22)
          to label %bb21 unwind label %cleanup

bb20:                                             ; preds = %bb17
  %41 = bitcast %"core::result::Result<f64, serde_json::error::Error>"* %_22 to %"core::result::Result<f64, serde_json::error::Error>::Err"*
  %42 = getelementptr inbounds %"core::result::Result<f64, serde_json::error::Error>::Err", %"core::result::Result<f64, serde_json::error::Error>::Err"* %41, i32 0, i32 1
  %err1 = load i64*, i64** %42, align 8, !nonnull !2
  %43 = bitcast %"core::result::Result<serde_json::de::ParserNumber, serde_json::error::Error>"* %0 to %"core::result::Result<serde_json::de::ParserNumber, serde_json::error::Error>::Err"*
  %44 = getelementptr inbounds %"core::result::Result<serde_json::de::ParserNumber, serde_json::error::Error>::Err", %"core::result::Result<serde_json::de::ParserNumber, serde_json::error::Error>::Err"* %43, i32 0, i32 1
  store i64* %err1, i64** %44, align 8
  %45 = bitcast %"core::result::Result<serde_json::de::ParserNumber, serde_json::error::Error>"* %0 to i64*
  store i64 1, i64* %45, align 8
  %46 = bitcast %"core::result::Result<f64, serde_json::error::Error>"* %_22 to i64*
  %_44 = load i64, i64* %46, align 8, !range !1
  %47 = icmp eq i64 %_44, 1
  br i1 %47, label %bb37, label %bb38

bb21:                                             ; preds = %bb19
  br label %bb29

bb22:                                             ; preds = %bb9
; invoke core::num::<impl i64>::wrapping_neg
  %_36 = invoke i64 @"_ZN4core3num21_$LT$impl$u20$i64$GT$12wrapping_neg17h28bb4a02d4eb7217E"(i64 %significand)
          to label %bb24 unwind label %cleanup

bb23:                                             ; preds = %bb9
  %48 = bitcast %"serde_json::de::ParserNumber"* %_4 to %"serde_json::de::ParserNumber::U64"*
  %49 = getelementptr inbounds %"serde_json::de::ParserNumber::U64", %"serde_json::de::ParserNumber::U64"* %48, i32 0, i32 1
  store i64 %significand, i64* %49, align 8
  %50 = bitcast %"serde_json::de::ParserNumber"* %_4 to i64*
  store i64 1, i64* %50, align 8
  br label %bb28

bb24:                                             ; preds = %bb22
  %_35 = icmp sgt i64 %_36, 0
  br i1 %_35, label %bb26, label %bb25

bb25:                                             ; preds = %bb24
  %51 = bitcast %"serde_json::de::ParserNumber"* %_4 to %"serde_json::de::ParserNumber::I64"*
  %52 = getelementptr inbounds %"serde_json::de::ParserNumber::I64", %"serde_json::de::ParserNumber::I64"* %51, i32 0, i32 1
  store i64 %_36, i64* %52, align 8
  %53 = bitcast %"serde_json::de::ParserNumber"* %_4 to i64*
  store i64 2, i64* %53, align 8
  br label %bb27

bb26:                                             ; preds = %bb24
  %_38 = uitofp i64 %significand to double
  %_37 = fsub double -0.000000e+00, %_38
  %54 = bitcast %"serde_json::de::ParserNumber"* %_4 to %"serde_json::de::ParserNumber::F64"*
  %55 = getelementptr inbounds %"serde_json::de::ParserNumber::F64", %"serde_json::de::ParserNumber::F64"* %54, i32 0, i32 1
  store double %_37, double* %55, align 8
  %56 = bitcast %"serde_json::de::ParserNumber"* %_4 to i64*
  store i64 0, i64* %56, align 8
  br label %bb27

bb27:                                             ; preds = %bb25, %bb26
  br label %bb28

bb28:                                             ; preds = %bb27, %bb23
  br label %bb29

bb29:                                             ; preds = %bb15, %bb21, %bb28
  %57 = bitcast %"core::result::Result<serde_json::de::ParserNumber, serde_json::error::Error>"* %0 to %"core::result::Result<serde_json::de::ParserNumber, serde_json::error::Error>::Ok"*
  %58 = getelementptr inbounds %"core::result::Result<serde_json::de::ParserNumber, serde_json::error::Error>::Ok", %"core::result::Result<serde_json::de::ParserNumber, serde_json::error::Error>::Ok"* %57, i32 0, i32 1
  %59 = bitcast %"serde_json::de::ParserNumber"* %58 to i8*
  %60 = bitcast %"serde_json::de::ParserNumber"* %_4 to i8*
  call void @llvm.memcpy.p0i8.p0i8.i64(i8* align 8 %59, i8* align 8 %60, i64 16, i1 false)
  %61 = bitcast %"core::result::Result<serde_json::de::ParserNumber, serde_json::error::Error>"* %0 to i64*
  store i64 0, i64* %61, align 8
  store i8 0, i8* %_41, align 1
; call core::ptr::real_drop_in_place
  call void @_ZN4core3ptr18real_drop_in_place17hda2544e7c0eb7314E(%"core::result::Result<u8, serde_json::error::Error>"* align 8 dereferenceable(16) %_6)
  br label %bb30

bb30:                                             ; preds = %bb29
  store i8 0, i8* %_41, align 1
  br label %bb6

bb31:                                             ; preds = %bb33, %bb32, %bb34
  store i8 0, i8* %_41, align 1
  br label %bb6

bb32:                                             ; preds = %bb8
  %62 = load i8, i8* %_41, align 1, !range !4
  %63 = trunc i8 %62 to i1
  br i1 %63, label %bb33, label %bb31

bb33:                                             ; preds = %bb32
  store i8 0, i8* %_41, align 1
  %64 = bitcast %"core::result::Result<u8, serde_json::error::Error>"* %_6 to %"core::result::Result<u8, serde_json::error::Error>::Err"*
  %65 = getelementptr inbounds %"core::result::Result<u8, serde_json::error::Error>::Err", %"core::result::Result<u8, serde_json::error::Error>::Err"* %64, i32 0, i32 1
; call core::ptr::real_drop_in_place
  call void @_ZN4core3ptr18real_drop_in_place17h94d8d2616b716ae2E(i64** align 8 dereferenceable(8) %65)
  br label %bb31

bb34:                                             ; preds = %bb8
; call core::ptr::real_drop_in_place
  call void @_ZN4core3ptr18real_drop_in_place17hda2544e7c0eb7314E(%"core::result::Result<u8, serde_json::error::Error>"* align 8 dereferenceable(16) %_6)
  br label %bb31

bb35:                                             ; preds = %bb36, %bb14
  br label %bb8

bb36:                                             ; preds = %bb14
; invoke core::ptr::real_drop_in_place
  invoke void @_ZN4core3ptr18real_drop_in_place17h164d76c7649c96aaE(%"core::result::Result<f64, serde_json::error::Error>"* align 8 dereferenceable(16) %_13)
          to label %bb35 unwind label %cleanup

bb37:                                             ; preds = %bb38, %bb20
  br label %bb8

bb38:                                             ; preds = %bb20
; invoke core::ptr::real_drop_in_place
  invoke void @_ZN4core3ptr18real_drop_in_place17h164d76c7649c96aaE(%"core::result::Result<f64, serde_json::error::Error>"* align 8 dereferenceable(16) %_22)
          to label %bb37 unwind label %cleanup

cleanup:                                          ; preds = %bb13, %bb36, %bb10, %bb19, %bb38, %bb16, %bb22
  %66 = landingpad { i8*, i32 }
          cleanup
  %67 = extractvalue { i8*, i32 } %66, 0
  %68 = extractvalue { i8*, i32 } %66, 1
  %69 = getelementptr inbounds { i8*, i32 }, { i8*, i32 }* %1, i32 0, i32 0
  store i8* %67, i8** %69, align 8
  %70 = getelementptr inbounds { i8*, i32 }, { i8*, i32 }* %1, i32 0, i32 1
  store i32 %68, i32* %70, align 8
  br label %bb7
}

; serde_json::de::Deserializer<R>::peek_or_null
; Function Attrs: uwtable
define internal void @"_ZN10serde_json2de21Deserializer$LT$R$GT$12peek_or_null17hb35dfed309bd4e58E"(%"core::result::Result<u8, serde_json::error::Error>"* noalias nocapture sret dereferenceable(16), %"serde_json::de::Deserializer<serde_json::read::StrRead>"* align 8 dereferenceable(56) %self) unnamed_addr #1 personality i32 (i32, i32, i64, %"unwind::libunwind::_Unwind_Exception"*, %"unwind::libunwind::_Unwind_Context"*)* @rust_eh_personality {
start:
  %1 = alloca { i8*, i32 }, align 8
  %_4 = alloca %"core::result::Result<core::option::Option<u8>, serde_json::error::Error>", align 8
; call serde_json::de::Deserializer<R>::peek
  call void @"_ZN10serde_json2de21Deserializer$LT$R$GT$4peek17heda9452678a2416aE"(%"core::result::Result<core::option::Option<u8>, serde_json::error::Error>"* noalias nocapture sret dereferenceable(16) %_4, %"serde_json::de::Deserializer<serde_json::read::StrRead>"* align 8 dereferenceable(56) %self)
  br label %bb2

bb1:                                              ; preds = %bb7
  %2 = bitcast { i8*, i32 }* %1 to i8**
  %3 = load i8*, i8** %2, align 8
  %4 = getelementptr inbounds { i8*, i32 }, { i8*, i32 }* %1, i32 0, i32 1
  %5 = load i32, i32* %4, align 8
  %6 = insertvalue { i8*, i32 } undef, i8* %3, 0
  %7 = insertvalue { i8*, i32 } %6, i32 %5, 1
  resume { i8*, i32 } %7

bb2:                                              ; preds = %start
  %8 = bitcast %"core::result::Result<core::option::Option<u8>, serde_json::error::Error>"* %_4 to i8*
  %9 = load i8, i8* %8, align 8, !range !4
  %10 = trunc i8 %9 to i1
  %_6 = zext i1 %10 to i64
  switch i64 %_6, label %bb3 [
    i64 0, label %bb4
    i64 1, label %bb5
  ]

bb3:                                              ; preds = %bb2
  unreachable

bb4:                                              ; preds = %bb2
  %11 = bitcast %"core::result::Result<core::option::Option<u8>, serde_json::error::Error>"* %_4 to %"core::result::Result<core::option::Option<u8>, serde_json::error::Error>::Ok"*
  %12 = getelementptr inbounds %"core::result::Result<core::option::Option<u8>, serde_json::error::Error>::Ok", %"core::result::Result<core::option::Option<u8>, serde_json::error::Error>::Ok"* %11, i32 0, i32 1
  %13 = getelementptr inbounds { i8, i8 }, { i8, i8 }* %12, i32 0, i32 0
  %14 = load i8, i8* %13, align 1, !range !4
  %val.0 = trunc i8 %14 to i1
  %15 = getelementptr inbounds { i8, i8 }, { i8, i8 }* %12, i32 0, i32 1
  %val.1 = load i8, i8* %15, align 1
; invoke core::option::Option<T>::unwrap_or
  %16 = invoke i8 @"_ZN4core6option15Option$LT$T$GT$9unwrap_or17hd64941d0494c1e05E"(i1 zeroext %val.0, i8 %val.1, i8 0)
          to label %bb8 unwind label %cleanup

bb5:                                              ; preds = %bb2
  %17 = bitcast %"core::result::Result<core::option::Option<u8>, serde_json::error::Error>"* %_4 to %"core::result::Result<core::option::Option<u8>, serde_json::error::Error>::Err"*
  %18 = getelementptr inbounds %"core::result::Result<core::option::Option<u8>, serde_json::error::Error>::Err", %"core::result::Result<core::option::Option<u8>, serde_json::error::Error>::Err"* %17, i32 0, i32 1
  %err = load i64*, i64** %18, align 8, !nonnull !2
  %19 = bitcast %"core::result::Result<u8, serde_json::error::Error>"* %0 to %"core::result::Result<u8, serde_json::error::Error>::Err"*
  %20 = getelementptr inbounds %"core::result::Result<u8, serde_json::error::Error>::Err", %"core::result::Result<u8, serde_json::error::Error>::Err"* %19, i32 0, i32 1
  store i64* %err, i64** %20, align 8
  %21 = bitcast %"core::result::Result<u8, serde_json::error::Error>"* %0 to i8*
  store i8 1, i8* %21, align 8
  %22 = bitcast %"core::result::Result<core::option::Option<u8>, serde_json::error::Error>"* %_4 to i8*
  %23 = load i8, i8* %22, align 8, !range !4
  %24 = trunc i8 %23 to i1
  %_10 = zext i1 %24 to i64
  %25 = icmp eq i64 %_10, 1
  br i1 %25, label %bb10, label %bb11

bb6:                                              ; preds = %bb9, %bb10
  ret void

bb7:                                              ; preds = %cleanup
; call core::ptr::real_drop_in_place
  call void @_ZN4core3ptr18real_drop_in_place17hbd244058d832624cE(%"core::result::Result<core::option::Option<u8>, serde_json::error::Error>"* align 8 dereferenceable(16) %_4) #14
  br label %bb1

bb8:                                              ; preds = %bb4
  %26 = bitcast %"core::result::Result<u8, serde_json::error::Error>"* %0 to %"core::result::Result<u8, serde_json::error::Error>::Ok"*
  %27 = getelementptr inbounds %"core::result::Result<u8, serde_json::error::Error>::Ok", %"core::result::Result<u8, serde_json::error::Error>::Ok"* %26, i32 0, i32 1
  store i8 %16, i8* %27, align 1
  %28 = bitcast %"core::result::Result<u8, serde_json::error::Error>"* %0 to i8*
  store i8 0, i8* %28, align 8
; call core::ptr::real_drop_in_place
  call void @_ZN4core3ptr18real_drop_in_place17hbd244058d832624cE(%"core::result::Result<core::option::Option<u8>, serde_json::error::Error>"* align 8 dereferenceable(16) %_4)
  br label %bb9

bb9:                                              ; preds = %bb8
  br label %bb6

bb10:                                             ; preds = %bb11, %bb5
  br label %bb6

bb11:                                             ; preds = %bb5
; call core::ptr::real_drop_in_place
  call void @_ZN4core3ptr18real_drop_in_place17hbd244058d832624cE(%"core::result::Result<core::option::Option<u8>, serde_json::error::Error>"* align 8 dereferenceable(16) %_4)
  br label %bb10

cleanup:                                          ; preds = %bb4
  %29 = landingpad { i8*, i32 }
          cleanup
  %30 = extractvalue { i8*, i32 } %29, 0
  %31 = extractvalue { i8*, i32 } %29, 1
  %32 = getelementptr inbounds { i8*, i32 }, { i8*, i32 }* %1, i32 0, i32 0
  store i8* %30, i8** %32, align 8
  %33 = getelementptr inbounds { i8*, i32 }, { i8*, i32 }* %1, i32 0, i32 1
  store i32 %31, i32* %33, align 8
  br label %bb7
}

; serde_json::de::Deserializer<R>::parse_decimal
; Function Attrs: uwtable
define internal void @"_ZN10serde_json2de21Deserializer$LT$R$GT$13parse_decimal17habee609a866cc241E"(%"core::result::Result<f64, serde_json::error::Error>"* noalias nocapture sret dereferenceable(16), %"serde_json::de::Deserializer<serde_json::read::StrRead>"* align 8 dereferenceable(56) %self, i1 zeroext %positive, i64, i32) unnamed_addr #1 personality i32 (i32, i32, i64, %"unwind::libunwind::_Unwind_Exception"*, %"unwind::libunwind::_Unwind_Context"*)* @rust_eh_personality {
start:
  %3 = alloca { i8*, i32 }, align 8
  %_86 = alloca i8, align 1
  %_85 = alloca i8, align 1
  %_71 = alloca %"core::result::Result<u8, serde_json::error::Error>", align 8
  %_69 = alloca %"serde_json::error::ErrorCode", align 8
  %_66 = alloca %"serde_json::error::ErrorCode", align 8
  %_57 = alloca %"core::result::Result<core::option::Option<u8>, serde_json::error::Error>", align 8
  %_56 = alloca { i8, i8 }, align 1
  %_41 = alloca %"core::result::Result<u8, serde_json::error::Error>", align 8
  %_29 = alloca i8, align 1
  %_23 = alloca i8, align 1
  %_9 = alloca %"core::result::Result<u8, serde_json::error::Error>", align 8
  %at_least_one_digit = alloca i8, align 1
  %exponent = alloca i32, align 4
  %significand = alloca i64, align 8
  store i64 %1, i64* %significand, align 8
  store i32 %2, i32* %exponent, align 4
  store i8 0, i8* %_85, align 1
  store i8 0, i8* %_86, align 1
; call serde_json::de::Deserializer<R>::eat_char
  call void @"_ZN10serde_json2de21Deserializer$LT$R$GT$8eat_char17h27880c16013f818fE"(%"serde_json::de::Deserializer<serde_json::read::StrRead>"* align 8 dereferenceable(56) %self)
  br label %bb2

bb1:                                              ; preds = %bb63, %bb52, %bb9
  %4 = bitcast { i8*, i32 }* %3 to i8**
  %5 = load i8*, i8** %4, align 8
  %6 = getelementptr inbounds { i8*, i32 }, { i8*, i32 }* %3, i32 0, i32 1
  %7 = load i32, i32* %6, align 8
  %8 = insertvalue { i8*, i32 } undef, i8* %5, 0
  %9 = insertvalue { i8*, i32 } %8, i32 %7, 1
  resume { i8*, i32 } %9

bb2:                                              ; preds = %start
  store i8 0, i8* %at_least_one_digit, align 1
  br label %bb3

bb3:                                              ; preds = %bb45, %bb2
  store i8 1, i8* %_85, align 1
; call serde_json::de::Deserializer<R>::peek_or_null
  call void @"_ZN10serde_json2de21Deserializer$LT$R$GT$12peek_or_null17hb35dfed309bd4e58E"(%"core::result::Result<u8, serde_json::error::Error>"* noalias nocapture sret dereferenceable(16) %_9, %"serde_json::de::Deserializer<serde_json::read::StrRead>"* align 8 dereferenceable(56) %self)
  br label %bb4

bb4:                                              ; preds = %bb3
  %10 = bitcast %"core::result::Result<u8, serde_json::error::Error>"* %_9 to i8*
  %11 = load i8, i8* %10, align 8, !range !4
  %12 = trunc i8 %11 to i1
  %_11 = zext i1 %12 to i64
  switch i64 %_11, label %bb5 [
    i64 0, label %bb6
    i64 1, label %bb7
  ]

bb5:                                              ; preds = %bb4
  unreachable

bb6:                                              ; preds = %bb4
  %13 = bitcast %"core::result::Result<u8, serde_json::error::Error>"* %_9 to %"core::result::Result<u8, serde_json::error::Error>::Ok"*
  %14 = getelementptr inbounds %"core::result::Result<u8, serde_json::error::Error>::Ok", %"core::result::Result<u8, serde_json::error::Error>::Ok"* %13, i32 0, i32 1
  %val = load i8, i8* %14, align 1
  %_15 = icmp ule i8 48, %val
  br i1 %_15, label %bb13, label %bb43

bb7:                                              ; preds = %bb4
  store i8 0, i8* %_85, align 1
  %15 = bitcast %"core::result::Result<u8, serde_json::error::Error>"* %_9 to %"core::result::Result<u8, serde_json::error::Error>::Err"*
  %16 = getelementptr inbounds %"core::result::Result<u8, serde_json::error::Error>::Err", %"core::result::Result<u8, serde_json::error::Error>::Err"* %15, i32 0, i32 1
  %err = load i64*, i64** %16, align 8, !nonnull !2
  %17 = bitcast %"core::result::Result<f64, serde_json::error::Error>"* %0 to %"core::result::Result<f64, serde_json::error::Error>::Err"*
  %18 = getelementptr inbounds %"core::result::Result<f64, serde_json::error::Error>::Err", %"core::result::Result<f64, serde_json::error::Error>::Err"* %17, i32 0, i32 1
  store i64* %err, i64** %18, align 8
  %19 = bitcast %"core::result::Result<f64, serde_json::error::Error>"* %0 to i64*
  store i64 1, i64* %19, align 8
  br label %bb10

bb8:                                              ; preds = %bb69, %bb80, %bb11
  ret void

bb9:                                              ; preds = %bb36, %cleanup
  store i8 0, i8* %_85, align 1
; call core::ptr::real_drop_in_place
  call void @_ZN4core3ptr18real_drop_in_place17hda2544e7c0eb7314E(%"core::result::Result<u8, serde_json::error::Error>"* align 8 dereferenceable(16) %_9) #14
  br label %bb1

bb10:                                             ; preds = %bb74, %bb7
  %20 = bitcast %"core::result::Result<u8, serde_json::error::Error>"* %_9 to i8*
  %21 = load i8, i8* %20, align 8, !range !4
  %22 = trunc i8 %21 to i1
  %_87 = zext i1 %22 to i64
  %23 = icmp eq i64 %_87, 1
  br i1 %23, label %bb71, label %bb73

bb11:                                             ; preds = %bb76, %bb70
  br label %bb8

bb12:                                             ; preds = %bb13
; invoke serde_json::de::Deserializer<R>::eat_char
  invoke void @"_ZN10serde_json2de21Deserializer$LT$R$GT$8eat_char17h27880c16013f818fE"(%"serde_json::de::Deserializer<serde_json::read::StrRead>"* align 8 dereferenceable(56) %self)
          to label %bb14 unwind label %cleanup

bb13:                                             ; preds = %bb6
  %_16 = icmp ule i8 %val, 57
  br i1 %_16, label %bb12, label %bb43

bb14:                                             ; preds = %bb12
  %_21 = sub i8 %val, 48
  %digit = zext i8 %_21 to i64
  store i8 1, i8* %at_least_one_digit, align 1
  %_25 = load i64, i64* %significand, align 8
  br label %bb19

bb15:                                             ; preds = %bb24
  store i8 1, i8* %_23, align 1
  br label %bb18

bb16:                                             ; preds = %bb24, %bb20
  store i8 0, i8* %_23, align 1
  br label %bb18

bb17:                                             ; preds = %bb20
  %_31 = load i64, i64* %significand, align 8
  br label %bb25

bb18:                                             ; preds = %bb16, %bb15
  %24 = load i8, i8* %_23, align 1, !range !4
  %25 = trunc i8 %24 to i1
  br i1 %25, label %bb30, label %bb29

bb19:                                             ; preds = %bb14
  br label %bb20

bb20:                                             ; preds = %bb19
  %_26 = udiv i64 -1, 10
  %_24 = icmp uge i64 %_25, %_26
  br i1 %_24, label %bb17, label %bb16

bb21:                                             ; preds = %bb28, %bb26
  store i8 1, i8* %_29, align 1
  br label %bb24

bb22:                                             ; preds = %bb28
  store i8 0, i8* %_29, align 1
  br label %bb24

bb23:                                             ; preds = %bb26
  br label %bb27

bb24:                                             ; preds = %bb22, %bb21
  %26 = load i8, i8* %_29, align 1, !range !4
  %27 = trunc i8 %26 to i1
  br i1 %27, label %bb15, label %bb16

bb25:                                             ; preds = %bb17
  br label %bb26

bb26:                                             ; preds = %bb25
  %_32 = udiv i64 -1, 10
  %_30 = icmp ugt i64 %_31, %_32
  br i1 %_30, label %bb21, label %bb23

bb27:                                             ; preds = %bb23
  br label %bb28

bb28:                                             ; preds = %bb27
  %_37 = urem i64 -1, 10
  %_35 = icmp ugt i64 %digit, %_37
  br i1 %_35, label %bb21, label %bb22

bb29:                                             ; preds = %bb18
  %_52 = load i64, i64* %significand, align 8
  %_51 = mul i64 %_52, 10
  %28 = add i64 %_51, %digit
  store i64 %28, i64* %significand, align 8
  %29 = load i32, i32* %exponent, align 4
  %30 = sub i32 %29, 1
  store i32 %30, i32* %exponent, align 4
  store i8 0, i8* %_85, align 1
; call core::ptr::real_drop_in_place
  call void @_ZN4core3ptr18real_drop_in_place17hda2544e7c0eb7314E(%"core::result::Result<u8, serde_json::error::Error>"* align 8 dereferenceable(16) %_9)
  br label %bb45

bb30:                                             ; preds = %bb18
  br label %bb31

bb31:                                             ; preds = %bb42, %bb30
; invoke serde_json::de::Deserializer<R>::peek_or_null
  invoke void @"_ZN10serde_json2de21Deserializer$LT$R$GT$12peek_or_null17hb35dfed309bd4e58E"(%"core::result::Result<u8, serde_json::error::Error>"* noalias nocapture sret dereferenceable(16) %_41, %"serde_json::de::Deserializer<serde_json::read::StrRead>"* align 8 dereferenceable(56) %self)
          to label %bb32 unwind label %cleanup

bb32:                                             ; preds = %bb31
  %31 = bitcast %"core::result::Result<u8, serde_json::error::Error>"* %_41 to i8*
  %32 = load i8, i8* %31, align 8, !range !4
  %33 = trunc i8 %32 to i1
  %_43 = zext i1 %33 to i64
  switch i64 %_43, label %bb33 [
    i64 0, label %bb34
    i64 1, label %bb35
  ]

bb33:                                             ; preds = %bb32
  unreachable

bb34:                                             ; preds = %bb32
  %34 = bitcast %"core::result::Result<u8, serde_json::error::Error>"* %_41 to %"core::result::Result<u8, serde_json::error::Error>::Ok"*
  %35 = getelementptr inbounds %"core::result::Result<u8, serde_json::error::Error>::Ok", %"core::result::Result<u8, serde_json::error::Error>::Ok"* %34, i32 0, i32 1
  %val2 = load i8, i8* %35, align 1
  %_47 = icmp ule i8 48, %val2
  br i1 %_47, label %bb39, label %bb38

bb35:                                             ; preds = %bb32
  %36 = bitcast %"core::result::Result<u8, serde_json::error::Error>"* %_41 to %"core::result::Result<u8, serde_json::error::Error>::Err"*
  %37 = getelementptr inbounds %"core::result::Result<u8, serde_json::error::Error>::Err", %"core::result::Result<u8, serde_json::error::Error>::Err"* %36, i32 0, i32 1
  %err1 = load i64*, i64** %37, align 8, !nonnull !2
  %38 = bitcast %"core::result::Result<f64, serde_json::error::Error>"* %0 to %"core::result::Result<f64, serde_json::error::Error>::Err"*
  %39 = getelementptr inbounds %"core::result::Result<f64, serde_json::error::Error>::Err", %"core::result::Result<f64, serde_json::error::Error>::Err"* %38, i32 0, i32 1
  store i64* %err1, i64** %39, align 8
  %40 = bitcast %"core::result::Result<f64, serde_json::error::Error>"* %0 to i64*
  store i64 1, i64* %40, align 8
  %41 = bitcast %"core::result::Result<u8, serde_json::error::Error>"* %_41 to i8*
  %42 = load i8, i8* %41, align 8, !range !4
  %43 = trunc i8 %42 to i1
  %_88 = zext i1 %43 to i64
  %44 = icmp eq i64 %_88, 1
  br i1 %44, label %bb74, label %bb75

bb36:                                             ; preds = %cleanup3
; call core::ptr::real_drop_in_place
  call void @_ZN4core3ptr18real_drop_in_place17hda2544e7c0eb7314E(%"core::result::Result<u8, serde_json::error::Error>"* align 8 dereferenceable(16) %_41) #14
  br label %bb9

bb37:                                             ; preds = %bb39
; invoke serde_json::de::Deserializer<R>::eat_char
  invoke void @"_ZN10serde_json2de21Deserializer$LT$R$GT$8eat_char17h27880c16013f818fE"(%"serde_json::de::Deserializer<serde_json::read::StrRead>"* align 8 dereferenceable(56) %self)
          to label %bb40 unwind label %cleanup3

bb38:                                             ; preds = %bb39, %bb34
; invoke core::ptr::real_drop_in_place
  invoke void @_ZN4core3ptr18real_drop_in_place17hda2544e7c0eb7314E(%"core::result::Result<u8, serde_json::error::Error>"* align 8 dereferenceable(16) %_41)
          to label %bb41 unwind label %cleanup

bb39:                                             ; preds = %bb34
  %_48 = icmp ule i8 %val2, 57
  br i1 %_48, label %bb37, label %bb38

bb40:                                             ; preds = %bb37
; invoke core::ptr::real_drop_in_place
  invoke void @_ZN4core3ptr18real_drop_in_place17hda2544e7c0eb7314E(%"core::result::Result<u8, serde_json::error::Error>"* align 8 dereferenceable(16) %_41)
          to label %bb42 unwind label %cleanup

bb41:                                             ; preds = %bb38
  br label %bb43

bb42:                                             ; preds = %bb40
  br label %bb31

bb43:                                             ; preds = %bb41, %bb13, %bb6
  store i8 0, i8* %_85, align 1
; call core::ptr::real_drop_in_place
  call void @_ZN4core3ptr18real_drop_in_place17hda2544e7c0eb7314E(%"core::result::Result<u8, serde_json::error::Error>"* align 8 dereferenceable(16) %_9)
  br label %bb44

bb44:                                             ; preds = %bb43
  store i8 0, i8* %_85, align 1
  %45 = load i8, i8* %at_least_one_digit, align 1, !range !4
  %_55 = trunc i8 %45 to i1
  %_54 = xor i1 %_55, true
  br i1 %_54, label %bb47, label %bb46

bb45:                                             ; preds = %bb29
  store i8 0, i8* %_85, align 1
  br label %bb3

bb46:                                             ; preds = %bb44
; call serde_json::de::Deserializer<R>::peek_or_null
  call void @"_ZN10serde_json2de21Deserializer$LT$R$GT$12peek_or_null17hb35dfed309bd4e58E"(%"core::result::Result<u8, serde_json::error::Error>"* noalias nocapture sret dereferenceable(16) %_71, %"serde_json::de::Deserializer<serde_json::read::StrRead>"* align 8 dereferenceable(56) %self)
  br label %bb59

bb47:                                             ; preds = %bb44
  store i8 1, i8* %_86, align 1
; call serde_json::de::Deserializer<R>::peek
  call void @"_ZN10serde_json2de21Deserializer$LT$R$GT$4peek17heda9452678a2416aE"(%"core::result::Result<core::option::Option<u8>, serde_json::error::Error>"* noalias nocapture sret dereferenceable(16) %_57, %"serde_json::de::Deserializer<serde_json::read::StrRead>"* align 8 dereferenceable(56) %self)
  br label %bb48

bb48:                                             ; preds = %bb47
  %46 = bitcast %"core::result::Result<core::option::Option<u8>, serde_json::error::Error>"* %_57 to i8*
  %47 = load i8, i8* %46, align 8, !range !4
  %48 = trunc i8 %47 to i1
  %_59 = zext i1 %48 to i64
  switch i64 %_59, label %bb49 [
    i64 0, label %bb50
    i64 1, label %bb51
  ]

bb49:                                             ; preds = %bb48
  unreachable

bb50:                                             ; preds = %bb48
  %49 = bitcast %"core::result::Result<core::option::Option<u8>, serde_json::error::Error>"* %_57 to %"core::result::Result<core::option::Option<u8>, serde_json::error::Error>::Ok"*
  %50 = getelementptr inbounds %"core::result::Result<core::option::Option<u8>, serde_json::error::Error>::Ok", %"core::result::Result<core::option::Option<u8>, serde_json::error::Error>::Ok"* %49, i32 0, i32 1
  %51 = getelementptr inbounds { i8, i8 }, { i8, i8 }* %50, i32 0, i32 0
  %52 = load i8, i8* %51, align 1, !range !4
  %val.0 = trunc i8 %52 to i1
  %53 = getelementptr inbounds { i8, i8 }, { i8, i8 }* %50, i32 0, i32 1
  %val.1 = load i8, i8* %53, align 1
  %54 = getelementptr inbounds { i8, i8 }, { i8, i8 }* %_56, i32 0, i32 0
  %55 = zext i1 %val.0 to i8
  store i8 %55, i8* %54, align 1
  %56 = getelementptr inbounds { i8, i8 }, { i8, i8 }* %_56, i32 0, i32 1
  store i8 %val.1, i8* %56, align 1
  %57 = bitcast { i8, i8 }* %_56 to i8*
  %58 = load i8, i8* %57, align 1, !range !4
  %59 = trunc i8 %58 to i1
  %_63 = zext i1 %59 to i64
  switch i64 %_63, label %bb55 [
    i64 0, label %bb54
    i64 1, label %bb56
  ]

bb51:                                             ; preds = %bb48
  store i8 0, i8* %_86, align 1
  %60 = bitcast %"core::result::Result<core::option::Option<u8>, serde_json::error::Error>"* %_57 to %"core::result::Result<core::option::Option<u8>, serde_json::error::Error>::Err"*
  %61 = getelementptr inbounds %"core::result::Result<core::option::Option<u8>, serde_json::error::Error>::Err", %"core::result::Result<core::option::Option<u8>, serde_json::error::Error>::Err"* %60, i32 0, i32 1
  %err4 = load i64*, i64** %61, align 8, !nonnull !2
  %62 = bitcast %"core::result::Result<f64, serde_json::error::Error>"* %0 to %"core::result::Result<f64, serde_json::error::Error>::Err"*
  %63 = getelementptr inbounds %"core::result::Result<f64, serde_json::error::Error>::Err", %"core::result::Result<f64, serde_json::error::Error>::Err"* %62, i32 0, i32 1
  store i64* %err4, i64** %63, align 8
  %64 = bitcast %"core::result::Result<f64, serde_json::error::Error>"* %0 to i64*
  store i64 1, i64* %64, align 8
  br label %bb53

bb52:                                             ; preds = %cleanup5
  store i8 0, i8* %_86, align 1
; call core::ptr::real_drop_in_place
  call void @_ZN4core3ptr18real_drop_in_place17hbd244058d832624cE(%"core::result::Result<core::option::Option<u8>, serde_json::error::Error>"* align 8 dereferenceable(16) %_57) #14
  br label %bb1

bb53:                                             ; preds = %bb58, %bb57, %bb51
  %65 = bitcast %"core::result::Result<core::option::Option<u8>, serde_json::error::Error>"* %_57 to i8*
  %66 = load i8, i8* %65, align 8, !range !4
  %67 = trunc i8 %66 to i1
  %_89 = zext i1 %67 to i64
  %68 = icmp eq i64 %_89, 1
  br i1 %68, label %bb77, label %bb79

bb54:                                             ; preds = %bb50
  %69 = bitcast %"serde_json::error::ErrorCode"* %_69 to i64*
  store i64 5, i64* %69, align 8
; invoke serde_json::de::Deserializer<R>::peek_error
  %70 = invoke noalias align 8 dereferenceable(40) i64* @"_ZN10serde_json2de21Deserializer$LT$R$GT$10peek_error17hc91437f5405786d2E"(%"serde_json::de::Deserializer<serde_json::read::StrRead>"* noalias readonly align 8 dereferenceable(56) %self, %"serde_json::error::ErrorCode"* noalias nocapture dereferenceable(24) %_69)
          to label %bb58 unwind label %cleanup5

bb55:                                             ; preds = %bb50
  unreachable

bb56:                                             ; preds = %bb50
  %71 = bitcast %"serde_json::error::ErrorCode"* %_66 to i64*
  store i64 14, i64* %71, align 8
; invoke serde_json::de::Deserializer<R>::peek_error
  %72 = invoke noalias align 8 dereferenceable(40) i64* @"_ZN10serde_json2de21Deserializer$LT$R$GT$10peek_error17hc91437f5405786d2E"(%"serde_json::de::Deserializer<serde_json::read::StrRead>"* noalias readonly align 8 dereferenceable(56) %self, %"serde_json::error::ErrorCode"* noalias nocapture dereferenceable(24) %_66)
          to label %bb57 unwind label %cleanup5

bb57:                                             ; preds = %bb56
  %73 = bitcast %"core::result::Result<f64, serde_json::error::Error>"* %0 to %"core::result::Result<f64, serde_json::error::Error>::Err"*
  %74 = getelementptr inbounds %"core::result::Result<f64, serde_json::error::Error>::Err", %"core::result::Result<f64, serde_json::error::Error>::Err"* %73, i32 0, i32 1
  store i64* %72, i64** %74, align 8
  %75 = bitcast %"core::result::Result<f64, serde_json::error::Error>"* %0 to i64*
  store i64 1, i64* %75, align 8
  br label %bb53

bb58:                                             ; preds = %bb54
  %76 = bitcast %"core::result::Result<f64, serde_json::error::Error>"* %0 to %"core::result::Result<f64, serde_json::error::Error>::Err"*
  %77 = getelementptr inbounds %"core::result::Result<f64, serde_json::error::Error>::Err", %"core::result::Result<f64, serde_json::error::Error>::Err"* %76, i32 0, i32 1
  store i64* %70, i64** %77, align 8
  %78 = bitcast %"core::result::Result<f64, serde_json::error::Error>"* %0 to i64*
  store i64 1, i64* %78, align 8
  br label %bb53

bb59:                                             ; preds = %bb46
  %79 = bitcast %"core::result::Result<u8, serde_json::error::Error>"* %_71 to i8*
  %80 = load i8, i8* %79, align 8, !range !4
  %81 = trunc i8 %80 to i1
  %_73 = zext i1 %81 to i64
  switch i64 %_73, label %bb60 [
    i64 0, label %bb61
    i64 1, label %bb62
  ]

bb60:                                             ; preds = %bb59
  unreachable

bb61:                                             ; preds = %bb59
  %82 = bitcast %"core::result::Result<u8, serde_json::error::Error>"* %_71 to %"core::result::Result<u8, serde_json::error::Error>::Ok"*
  %83 = getelementptr inbounds %"core::result::Result<u8, serde_json::error::Error>::Ok", %"core::result::Result<u8, serde_json::error::Error>::Ok"* %82, i32 0, i32 1
  %val7 = load i8, i8* %83, align 1
  switch i8 %val7, label %bb64 [
    i8 101, label %bb65
    i8 69, label %bb65
  ]

bb62:                                             ; preds = %bb59
  %84 = bitcast %"core::result::Result<u8, serde_json::error::Error>"* %_71 to %"core::result::Result<u8, serde_json::error::Error>::Err"*
  %85 = getelementptr inbounds %"core::result::Result<u8, serde_json::error::Error>::Err", %"core::result::Result<u8, serde_json::error::Error>::Err"* %84, i32 0, i32 1
  %err6 = load i64*, i64** %85, align 8, !nonnull !2
  %86 = bitcast %"core::result::Result<f64, serde_json::error::Error>"* %0 to %"core::result::Result<f64, serde_json::error::Error>::Err"*
  %87 = getelementptr inbounds %"core::result::Result<f64, serde_json::error::Error>::Err", %"core::result::Result<f64, serde_json::error::Error>::Err"* %86, i32 0, i32 1
  store i64* %err6, i64** %87, align 8
  %88 = bitcast %"core::result::Result<f64, serde_json::error::Error>"* %0 to i64*
  store i64 1, i64* %88, align 8
  %89 = bitcast %"core::result::Result<u8, serde_json::error::Error>"* %_71 to i8*
  %90 = load i8, i8* %89, align 8, !range !4
  %91 = trunc i8 %90 to i1
  %_90 = zext i1 %91 to i64
  %92 = icmp eq i64 %_90, 1
  br i1 %92, label %bb80, label %bb81

bb63:                                             ; preds = %cleanup8
; call core::ptr::real_drop_in_place
  call void @_ZN4core3ptr18real_drop_in_place17hda2544e7c0eb7314E(%"core::result::Result<u8, serde_json::error::Error>"* align 8 dereferenceable(16) %_71) #14
  br label %bb1

bb64:                                             ; preds = %bb61
  %_83 = load i64, i64* %significand, align 8
  %_84 = load i32, i32* %exponent, align 4
; invoke serde_json::de::Deserializer<R>::f64_from_parts
  invoke void @"_ZN10serde_json2de21Deserializer$LT$R$GT$14f64_from_parts17h7d9afe67a76cc10dE"(%"core::result::Result<f64, serde_json::error::Error>"* noalias nocapture sret dereferenceable(16) %0, %"serde_json::de::Deserializer<serde_json::read::StrRead>"* align 8 dereferenceable(56) %self, i1 zeroext %positive, i64 %_83, i32 %_84)
          to label %bb67 unwind label %cleanup8

bb65:                                             ; preds = %bb61, %bb61
  %_79 = load i64, i64* %significand, align 8
  %_80 = load i32, i32* %exponent, align 4
; invoke serde_json::de::Deserializer<R>::parse_exponent
  invoke void @"_ZN10serde_json2de21Deserializer$LT$R$GT$14parse_exponent17h88fb6703e140e55bE"(%"core::result::Result<f64, serde_json::error::Error>"* noalias nocapture sret dereferenceable(16) %0, %"serde_json::de::Deserializer<serde_json::read::StrRead>"* align 8 dereferenceable(56) %self, i1 zeroext %positive, i64 %_79, i32 %_80)
          to label %bb66 unwind label %cleanup8

bb66:                                             ; preds = %bb65
  br label %bb68

bb67:                                             ; preds = %bb64
  br label %bb68

bb68:                                             ; preds = %bb66, %bb67
; call core::ptr::real_drop_in_place
  call void @_ZN4core3ptr18real_drop_in_place17hda2544e7c0eb7314E(%"core::result::Result<u8, serde_json::error::Error>"* align 8 dereferenceable(16) %_71)
  br label %bb69

bb69:                                             ; preds = %bb68
  br label %bb8

bb70:                                             ; preds = %bb72, %bb71, %bb73
  store i8 0, i8* %_85, align 1
  br label %bb11

bb71:                                             ; preds = %bb10
  %93 = load i8, i8* %_85, align 1, !range !4
  %94 = trunc i8 %93 to i1
  br i1 %94, label %bb72, label %bb70

bb72:                                             ; preds = %bb71
  store i8 0, i8* %_85, align 1
  %95 = bitcast %"core::result::Result<u8, serde_json::error::Error>"* %_9 to %"core::result::Result<u8, serde_json::error::Error>::Err"*
  %96 = getelementptr inbounds %"core::result::Result<u8, serde_json::error::Error>::Err", %"core::result::Result<u8, serde_json::error::Error>::Err"* %95, i32 0, i32 1
; call core::ptr::real_drop_in_place
  call void @_ZN4core3ptr18real_drop_in_place17h94d8d2616b716ae2E(i64** align 8 dereferenceable(8) %96)
  br label %bb70

bb73:                                             ; preds = %bb10
; call core::ptr::real_drop_in_place
  call void @_ZN4core3ptr18real_drop_in_place17hda2544e7c0eb7314E(%"core::result::Result<u8, serde_json::error::Error>"* align 8 dereferenceable(16) %_9)
  br label %bb70

bb74:                                             ; preds = %bb75, %bb35
  br label %bb10

bb75:                                             ; preds = %bb35
; invoke core::ptr::real_drop_in_place
  invoke void @_ZN4core3ptr18real_drop_in_place17hda2544e7c0eb7314E(%"core::result::Result<u8, serde_json::error::Error>"* align 8 dereferenceable(16) %_41)
          to label %bb74 unwind label %cleanup

bb76:                                             ; preds = %bb78, %bb77, %bb79
  store i8 0, i8* %_86, align 1
  br label %bb11

bb77:                                             ; preds = %bb53
  %97 = load i8, i8* %_86, align 1, !range !4
  %98 = trunc i8 %97 to i1
  br i1 %98, label %bb78, label %bb76

bb78:                                             ; preds = %bb77
  store i8 0, i8* %_86, align 1
  %99 = bitcast %"core::result::Result<core::option::Option<u8>, serde_json::error::Error>"* %_57 to %"core::result::Result<core::option::Option<u8>, serde_json::error::Error>::Err"*
  %100 = getelementptr inbounds %"core::result::Result<core::option::Option<u8>, serde_json::error::Error>::Err", %"core::result::Result<core::option::Option<u8>, serde_json::error::Error>::Err"* %99, i32 0, i32 1
; call core::ptr::real_drop_in_place
  call void @_ZN4core3ptr18real_drop_in_place17h94d8d2616b716ae2E(i64** align 8 dereferenceable(8) %100)
  br label %bb76

bb79:                                             ; preds = %bb53
; call core::ptr::real_drop_in_place
  call void @_ZN4core3ptr18real_drop_in_place17hbd244058d832624cE(%"core::result::Result<core::option::Option<u8>, serde_json::error::Error>"* align 8 dereferenceable(16) %_57)
  br label %bb76

bb80:                                             ; preds = %bb81, %bb62
  br label %bb8

bb81:                                             ; preds = %bb62
; call core::ptr::real_drop_in_place
  call void @_ZN4core3ptr18real_drop_in_place17hda2544e7c0eb7314E(%"core::result::Result<u8, serde_json::error::Error>"* align 8 dereferenceable(16) %_71)
  br label %bb80

cleanup:                                          ; preds = %bb38, %bb40, %bb75, %bb31, %bb12
  %101 = landingpad { i8*, i32 }
          cleanup
  %102 = extractvalue { i8*, i32 } %101, 0
  %103 = extractvalue { i8*, i32 } %101, 1
  %104 = getelementptr inbounds { i8*, i32 }, { i8*, i32 }* %3, i32 0, i32 0
  store i8* %102, i8** %104, align 8
  %105 = getelementptr inbounds { i8*, i32 }, { i8*, i32 }* %3, i32 0, i32 1
  store i32 %103, i32* %105, align 8
  br label %bb9

cleanup3:                                         ; preds = %bb37
  %106 = landingpad { i8*, i32 }
          cleanup
  %107 = extractvalue { i8*, i32 } %106, 0
  %108 = extractvalue { i8*, i32 } %106, 1
  %109 = getelementptr inbounds { i8*, i32 }, { i8*, i32 }* %3, i32 0, i32 0
  store i8* %107, i8** %109, align 8
  %110 = getelementptr inbounds { i8*, i32 }, { i8*, i32 }* %3, i32 0, i32 1
  store i32 %108, i32* %110, align 8
  br label %bb36

cleanup5:                                         ; preds = %bb54, %bb56
  %111 = landingpad { i8*, i32 }
          cleanup
  %112 = extractvalue { i8*, i32 } %111, 0
  %113 = extractvalue { i8*, i32 } %111, 1
  %114 = getelementptr inbounds { i8*, i32 }, { i8*, i32 }* %3, i32 0, i32 0
  store i8* %112, i8** %114, align 8
  %115 = getelementptr inbounds { i8*, i32 }, { i8*, i32 }* %3, i32 0, i32 1
  store i32 %113, i32* %115, align 8
  br label %bb52

cleanup8:                                         ; preds = %bb65, %bb64
  %116 = landingpad { i8*, i32 }
          cleanup
  %117 = extractvalue { i8*, i32 } %116, 0
  %118 = extractvalue { i8*, i32 } %116, 1
  %119 = getelementptr inbounds { i8*, i32 }, { i8*, i32 }* %3, i32 0, i32 0
  store i8* %117, i8** %119, align 8
  %120 = getelementptr inbounds { i8*, i32 }, { i8*, i32 }* %3, i32 0, i32 1
  store i32 %118, i32* %120, align 8
  br label %bb63
}

; serde_json::de::Deserializer<R>::parse_integer
; Function Attrs: uwtable
define internal void @"_ZN10serde_json2de21Deserializer$LT$R$GT$13parse_integer17h63ff08302b0eeee7E"(%"core::result::Result<serde_json::de::ParserNumber, serde_json::error::Error>"* noalias nocapture sret dereferenceable(24), %"serde_json::de::Deserializer<serde_json::read::StrRead>"* align 8 dereferenceable(56) %self, i1 zeroext %positive) unnamed_addr #1 personality i32 (i32, i32, i64, %"unwind::libunwind::_Unwind_Exception"*, %"unwind::libunwind::_Unwind_Context"*)* @rust_eh_personality {
start:
  %1 = alloca { i8*, i32 }, align 8
  %_89 = alloca i8, align 1
  %_88 = alloca i8, align 1
  %_87 = alloca i8, align 1
  %_86 = alloca %"serde_json::error::ErrorCode", align 8
  %_70 = alloca %"core::result::Result<f64, serde_json::error::Error>", align 8
  %_68 = alloca %"serde_json::de::ParserNumber", align 8
  %_57 = alloca i8, align 1
  %_51 = alloca i8, align 1
  %_37 = alloca %"core::result::Result<u8, serde_json::error::Error>", align 8
  %res = alloca i64, align 8
  %_29 = alloca %"serde_json::error::ErrorCode", align 8
  %_19 = alloca %"core::result::Result<u8, serde_json::error::Error>", align 8
  %_15 = alloca %"serde_json::error::ErrorCode", align 8
  %_5 = alloca %"core::result::Result<core::option::Option<u8>, serde_json::error::Error>", align 8
  %_4 = alloca { i8, i8 }, align 1
  store i8 0, i8* %_89, align 1
  store i8 0, i8* %_87, align 1
  store i8 0, i8* %_88, align 1
  store i8 1, i8* %_87, align 1
; call serde_json::de::Deserializer<R>::next_char
  call void @"_ZN10serde_json2de21Deserializer$LT$R$GT$9next_char17h0e00787cc80c5e1eE"(%"core::result::Result<core::option::Option<u8>, serde_json::error::Error>"* noalias nocapture sret dereferenceable(16) %_5, %"serde_json::de::Deserializer<serde_json::read::StrRead>"* align 8 dereferenceable(56) %self)
  br label %bb2

bb1:                                              ; preds = %bb7, %bb24, %bb37
  %2 = bitcast { i8*, i32 }* %1 to i8**
  %3 = load i8*, i8** %2, align 8
  %4 = getelementptr inbounds { i8*, i32 }, { i8*, i32 }* %1, i32 0, i32 1
  %5 = load i32, i32* %4, align 8
  %6 = insertvalue { i8*, i32 } undef, i8* %3, 0
  %7 = insertvalue { i8*, i32 } %6, i32 %5, 1
  resume { i8*, i32 } %7

bb2:                                              ; preds = %start
  %8 = bitcast %"core::result::Result<core::option::Option<u8>, serde_json::error::Error>"* %_5 to i8*
  %9 = load i8, i8* %8, align 8, !range !4
  %10 = trunc i8 %9 to i1
  %_7 = zext i1 %10 to i64
  switch i64 %_7, label %bb3 [
    i64 0, label %bb4
    i64 1, label %bb5
  ]

bb3:                                              ; preds = %bb2
  unreachable

bb4:                                              ; preds = %bb2
  %11 = bitcast %"core::result::Result<core::option::Option<u8>, serde_json::error::Error>"* %_5 to %"core::result::Result<core::option::Option<u8>, serde_json::error::Error>::Ok"*
  %12 = getelementptr inbounds %"core::result::Result<core::option::Option<u8>, serde_json::error::Error>::Ok", %"core::result::Result<core::option::Option<u8>, serde_json::error::Error>::Ok"* %11, i32 0, i32 1
  %13 = getelementptr inbounds { i8, i8 }, { i8, i8 }* %12, i32 0, i32 0
  %14 = load i8, i8* %13, align 1, !range !4
  %val.0 = trunc i8 %14 to i1
  %15 = getelementptr inbounds { i8, i8 }, { i8, i8 }* %12, i32 0, i32 1
  %val.1 = load i8, i8* %15, align 1
  %16 = getelementptr inbounds { i8, i8 }, { i8, i8 }* %_4, i32 0, i32 0
  %17 = zext i1 %val.0 to i8
  store i8 %17, i8* %16, align 1
  %18 = getelementptr inbounds { i8, i8 }, { i8, i8 }* %_4, i32 0, i32 1
  store i8 %val.1, i8* %18, align 1
  %19 = bitcast { i8, i8 }* %_4 to i8*
  %20 = load i8, i8* %19, align 1, !range !4
  %21 = trunc i8 %20 to i1
  %_11 = zext i1 %21 to i64
  switch i64 %_11, label %bb11 [
    i64 0, label %bb10
    i64 1, label %bb12
  ]

bb5:                                              ; preds = %bb2
  store i8 0, i8* %_87, align 1
  %22 = bitcast %"core::result::Result<core::option::Option<u8>, serde_json::error::Error>"* %_5 to %"core::result::Result<core::option::Option<u8>, serde_json::error::Error>::Err"*
  %23 = getelementptr inbounds %"core::result::Result<core::option::Option<u8>, serde_json::error::Error>::Err", %"core::result::Result<core::option::Option<u8>, serde_json::error::Error>::Err"* %22, i32 0, i32 1
  %err = load i64*, i64** %23, align 8, !nonnull !2
  %24 = bitcast %"core::result::Result<serde_json::de::ParserNumber, serde_json::error::Error>"* %0 to %"core::result::Result<serde_json::de::ParserNumber, serde_json::error::Error>::Err"*
  %25 = getelementptr inbounds %"core::result::Result<serde_json::de::ParserNumber, serde_json::error::Error>::Err", %"core::result::Result<serde_json::de::ParserNumber, serde_json::error::Error>::Err"* %24, i32 0, i32 1
  store i64* %err, i64** %25, align 8
  %26 = bitcast %"core::result::Result<serde_json::de::ParserNumber, serde_json::error::Error>"* %0 to i64*
  store i64 1, i64* %26, align 8
  br label %bb8

bb6:                                              ; preds = %bb9, %bb66
  ret void

bb7:                                              ; preds = %cleanup7
  store i8 0, i8* %_87, align 1
; call core::ptr::real_drop_in_place
  call void @_ZN4core3ptr18real_drop_in_place17hbd244058d832624cE(%"core::result::Result<core::option::Option<u8>, serde_json::error::Error>"* align 8 dereferenceable(16) %_5) #14
  br label %bb1

bb8:                                              ; preds = %bb13, %bb5
  %27 = bitcast %"core::result::Result<core::option::Option<u8>, serde_json::error::Error>"* %_5 to i8*
  %28 = load i8, i8* %27, align 8, !range !4
  %29 = trunc i8 %28 to i1
  %_90 = zext i1 %29 to i64
  %30 = icmp eq i64 %_90, 1
  br i1 %30, label %bb68, label %bb70

bb9:                                              ; preds = %bb67, %bb71, %bb73
  br label %bb6

bb10:                                             ; preds = %bb4
  %31 = bitcast %"serde_json::error::ErrorCode"* %_15 to i64*
  store i64 5, i64* %31, align 8
; invoke serde_json::de::Deserializer<R>::error
  %32 = invoke noalias align 8 dereferenceable(40) i64* @"_ZN10serde_json2de21Deserializer$LT$R$GT$5error17h608cc2aecfbde555E"(%"serde_json::de::Deserializer<serde_json::read::StrRead>"* noalias readonly align 8 dereferenceable(56) %self, %"serde_json::error::ErrorCode"* noalias nocapture dereferenceable(24) %_15)
          to label %bb13 unwind label %cleanup7

bb11:                                             ; preds = %bb4
  unreachable

bb12:                                             ; preds = %bb4
  %33 = bitcast { i8, i8 }* %_4 to %"core::option::Option<u8>::Some"*
  %34 = getelementptr inbounds %"core::option::Option<u8>::Some", %"core::option::Option<u8>::Some"* %33, i32 0, i32 1
  %b = load i8, i8* %34, align 1
  store i8 0, i8* %_87, align 1
; call core::ptr::real_drop_in_place
  call void @_ZN4core3ptr18real_drop_in_place17hbd244058d832624cE(%"core::result::Result<core::option::Option<u8>, serde_json::error::Error>"* align 8 dereferenceable(16) %_5)
  br label %bb14

bb13:                                             ; preds = %bb10
  %35 = bitcast %"core::result::Result<serde_json::de::ParserNumber, serde_json::error::Error>"* %0 to %"core::result::Result<serde_json::de::ParserNumber, serde_json::error::Error>::Err"*
  %36 = getelementptr inbounds %"core::result::Result<serde_json::de::ParserNumber, serde_json::error::Error>::Err", %"core::result::Result<serde_json::de::ParserNumber, serde_json::error::Error>::Err"* %35, i32 0, i32 1
  store i64* %32, i64** %36, align 8
  %37 = bitcast %"core::result::Result<serde_json::de::ParserNumber, serde_json::error::Error>"* %0 to i64*
  store i64 1, i64* %37, align 8
  br label %bb8

bb14:                                             ; preds = %bb12
  store i8 0, i8* %_87, align 1
  %38 = icmp eq i8 %b, 48
  br i1 %38, label %bb19, label %bb17

bb15:                                             ; preds = %bb18
  %_34 = sub i8 %b, 48
  %39 = zext i8 %_34 to i64
  store i64 %39, i64* %res, align 8
  br label %bb32

bb16:                                             ; preds = %bb18, %bb17
  %40 = bitcast %"serde_json::error::ErrorCode"* %_86 to i64*
  store i64 14, i64* %40, align 8
; call serde_json::de::Deserializer<R>::error
  %41 = call noalias align 8 dereferenceable(40) i64* @"_ZN10serde_json2de21Deserializer$LT$R$GT$5error17h608cc2aecfbde555E"(%"serde_json::de::Deserializer<serde_json::read::StrRead>"* noalias readonly align 8 dereferenceable(56) %self, %"serde_json::error::ErrorCode"* noalias nocapture dereferenceable(24) %_86)
  br label %bb65

bb17:                                             ; preds = %bb14
  %_16 = icmp ule i8 49, %b
  br i1 %_16, label %bb18, label %bb16

bb18:                                             ; preds = %bb17
  %_17 = icmp ule i8 %b, 57
  br i1 %_17, label %bb15, label %bb16

bb19:                                             ; preds = %bb14
; call serde_json::de::Deserializer<R>::peek_or_null
  call void @"_ZN10serde_json2de21Deserializer$LT$R$GT$12peek_or_null17hb35dfed309bd4e58E"(%"core::result::Result<u8, serde_json::error::Error>"* noalias nocapture sret dereferenceable(16) %_19, %"serde_json::de::Deserializer<serde_json::read::StrRead>"* align 8 dereferenceable(56) %self)
  br label %bb20

bb20:                                             ; preds = %bb19
  %42 = bitcast %"core::result::Result<u8, serde_json::error::Error>"* %_19 to i8*
  %43 = load i8, i8* %42, align 8, !range !4
  %44 = trunc i8 %43 to i1
  %_21 = zext i1 %44 to i64
  switch i64 %_21, label %bb21 [
    i64 0, label %bb22
    i64 1, label %bb23
  ]

bb21:                                             ; preds = %bb20
  unreachable

bb22:                                             ; preds = %bb20
  %45 = bitcast %"core::result::Result<u8, serde_json::error::Error>"* %_19 to %"core::result::Result<u8, serde_json::error::Error>::Ok"*
  %46 = getelementptr inbounds %"core::result::Result<u8, serde_json::error::Error>::Ok", %"core::result::Result<u8, serde_json::error::Error>::Ok"* %45, i32 0, i32 1
  %val5 = load i8, i8* %46, align 1
  %_25 = icmp ule i8 48, %val5
  br i1 %_25, label %bb27, label %bb26

bb23:                                             ; preds = %bb20
  %47 = bitcast %"core::result::Result<u8, serde_json::error::Error>"* %_19 to %"core::result::Result<u8, serde_json::error::Error>::Err"*
  %48 = getelementptr inbounds %"core::result::Result<u8, serde_json::error::Error>::Err", %"core::result::Result<u8, serde_json::error::Error>::Err"* %47, i32 0, i32 1
  %err4 = load i64*, i64** %48, align 8, !nonnull !2
  %49 = bitcast %"core::result::Result<serde_json::de::ParserNumber, serde_json::error::Error>"* %0 to %"core::result::Result<serde_json::de::ParserNumber, serde_json::error::Error>::Err"*
  %50 = getelementptr inbounds %"core::result::Result<serde_json::de::ParserNumber, serde_json::error::Error>::Err", %"core::result::Result<serde_json::de::ParserNumber, serde_json::error::Error>::Err"* %49, i32 0, i32 1
  store i64* %err4, i64** %50, align 8
  %51 = bitcast %"core::result::Result<serde_json::de::ParserNumber, serde_json::error::Error>"* %0 to i64*
  store i64 1, i64* %51, align 8
  %52 = bitcast %"core::result::Result<u8, serde_json::error::Error>"* %_19 to i8*
  %53 = load i8, i8* %52, align 8, !range !4
  %54 = trunc i8 %53 to i1
  %_91 = zext i1 %54 to i64
  %55 = icmp eq i64 %_91, 1
  br i1 %55, label %bb71, label %bb72

bb24:                                             ; preds = %cleanup6
; call core::ptr::real_drop_in_place
  call void @_ZN4core3ptr18real_drop_in_place17hda2544e7c0eb7314E(%"core::result::Result<u8, serde_json::error::Error>"* align 8 dereferenceable(16) %_19) #14
  br label %bb1

bb25:                                             ; preds = %bb27
  %56 = bitcast %"serde_json::error::ErrorCode"* %_29 to i64*
  store i64 14, i64* %56, align 8
; invoke serde_json::de::Deserializer<R>::peek_error
  %57 = invoke noalias align 8 dereferenceable(40) i64* @"_ZN10serde_json2de21Deserializer$LT$R$GT$10peek_error17hc91437f5405786d2E"(%"serde_json::de::Deserializer<serde_json::read::StrRead>"* noalias readonly align 8 dereferenceable(56) %self, %"serde_json::error::ErrorCode"* noalias nocapture dereferenceable(24) %_29)
          to label %bb28 unwind label %cleanup6

bb26:                                             ; preds = %bb27, %bb22
; invoke serde_json::de::Deserializer<R>::parse_number
  invoke void @"_ZN10serde_json2de21Deserializer$LT$R$GT$12parse_number17h431239a50d116072E"(%"core::result::Result<serde_json::de::ParserNumber, serde_json::error::Error>"* noalias nocapture sret dereferenceable(24) %0, %"serde_json::de::Deserializer<serde_json::read::StrRead>"* align 8 dereferenceable(56) %self, i1 zeroext %positive, i64 0)
          to label %bb29 unwind label %cleanup6

bb27:                                             ; preds = %bb22
  %_26 = icmp ule i8 %val5, 57
  br i1 %_26, label %bb25, label %bb26

bb28:                                             ; preds = %bb25
  %58 = bitcast %"core::result::Result<serde_json::de::ParserNumber, serde_json::error::Error>"* %0 to %"core::result::Result<serde_json::de::ParserNumber, serde_json::error::Error>::Err"*
  %59 = getelementptr inbounds %"core::result::Result<serde_json::de::ParserNumber, serde_json::error::Error>::Err", %"core::result::Result<serde_json::de::ParserNumber, serde_json::error::Error>::Err"* %58, i32 0, i32 1
  store i64* %57, i64** %59, align 8
  %60 = bitcast %"core::result::Result<serde_json::de::ParserNumber, serde_json::error::Error>"* %0 to i64*
  store i64 1, i64* %60, align 8
  br label %bb30

bb29:                                             ; preds = %bb26
  br label %bb30

bb30:                                             ; preds = %bb29, %bb28
; call core::ptr::real_drop_in_place
  call void @_ZN4core3ptr18real_drop_in_place17hda2544e7c0eb7314E(%"core::result::Result<u8, serde_json::error::Error>"* align 8 dereferenceable(16) %_19)
  br label %bb31

bb31:                                             ; preds = %bb30
  br label %bb66

bb32:                                             ; preds = %bb64, %bb15
  store i8 1, i8* %_88, align 1
; call serde_json::de::Deserializer<R>::peek_or_null
  call void @"_ZN10serde_json2de21Deserializer$LT$R$GT$12peek_or_null17hb35dfed309bd4e58E"(%"core::result::Result<u8, serde_json::error::Error>"* noalias nocapture sret dereferenceable(16) %_37, %"serde_json::de::Deserializer<serde_json::read::StrRead>"* align 8 dereferenceable(56) %self)
  br label %bb33

bb33:                                             ; preds = %bb32
  %61 = bitcast %"core::result::Result<u8, serde_json::error::Error>"* %_37 to i8*
  %62 = load i8, i8* %61, align 8, !range !4
  %63 = trunc i8 %62 to i1
  %_39 = zext i1 %63 to i64
  switch i64 %_39, label %bb34 [
    i64 0, label %bb35
    i64 1, label %bb36
  ]

bb34:                                             ; preds = %bb33
  unreachable

bb35:                                             ; preds = %bb33
  %64 = bitcast %"core::result::Result<u8, serde_json::error::Error>"* %_37 to %"core::result::Result<u8, serde_json::error::Error>::Ok"*
  %65 = getelementptr inbounds %"core::result::Result<u8, serde_json::error::Error>::Ok", %"core::result::Result<u8, serde_json::error::Error>::Ok"* %64, i32 0, i32 1
  %val = load i8, i8* %65, align 1
  %_43 = icmp ule i8 48, %val
  br i1 %_43, label %bb41, label %bb40

bb36:                                             ; preds = %bb33
  store i8 0, i8* %_88, align 1
  %66 = bitcast %"core::result::Result<u8, serde_json::error::Error>"* %_37 to %"core::result::Result<u8, serde_json::error::Error>::Err"*
  %67 = getelementptr inbounds %"core::result::Result<u8, serde_json::error::Error>::Err", %"core::result::Result<u8, serde_json::error::Error>::Err"* %66, i32 0, i32 1
  %err1 = load i64*, i64** %67, align 8, !nonnull !2
  %68 = bitcast %"core::result::Result<serde_json::de::ParserNumber, serde_json::error::Error>"* %0 to %"core::result::Result<serde_json::de::ParserNumber, serde_json::error::Error>::Err"*
  %69 = getelementptr inbounds %"core::result::Result<serde_json::de::ParserNumber, serde_json::error::Error>::Err", %"core::result::Result<serde_json::de::ParserNumber, serde_json::error::Error>::Err"* %68, i32 0, i32 1
  store i64* %err1, i64** %69, align 8
  %70 = bitcast %"core::result::Result<serde_json::de::ParserNumber, serde_json::error::Error>"* %0 to i64*
  store i64 1, i64* %70, align 8
  br label %bb38

bb37:                                             ; preds = %cleanup
  store i8 0, i8* %_88, align 1
; call core::ptr::real_drop_in_place
  call void @_ZN4core3ptr18real_drop_in_place17hda2544e7c0eb7314E(%"core::result::Result<u8, serde_json::error::Error>"* align 8 dereferenceable(16) %_37) #14
  br label %bb1

bb38:                                             ; preds = %bb63, %bb77, %bb36
  %71 = bitcast %"core::result::Result<u8, serde_json::error::Error>"* %_37 to i8*
  %72 = load i8, i8* %71, align 8, !range !4
  %73 = trunc i8 %72 to i1
  %_92 = zext i1 %73 to i64
  %74 = icmp eq i64 %_92, 1
  br i1 %74, label %bb74, label %bb76

bb39:                                             ; preds = %bb41
; invoke serde_json::de::Deserializer<R>::eat_char
  invoke void @"_ZN10serde_json2de21Deserializer$LT$R$GT$8eat_char17h27880c16013f818fE"(%"serde_json::de::Deserializer<serde_json::read::StrRead>"* align 8 dereferenceable(56) %self)
          to label %bb42 unwind label %cleanup

bb40:                                             ; preds = %bb41, %bb35
  %_83 = load i64, i64* %res, align 8
; invoke serde_json::de::Deserializer<R>::parse_number
  invoke void @"_ZN10serde_json2de21Deserializer$LT$R$GT$12parse_number17h431239a50d116072E"(%"core::result::Result<serde_json::de::ParserNumber, serde_json::error::Error>"* noalias nocapture sret dereferenceable(24) %0, %"serde_json::de::Deserializer<serde_json::read::StrRead>"* align 8 dereferenceable(56) %self, i1 zeroext %positive, i64 %_83)
          to label %bb63 unwind label %cleanup

bb41:                                             ; preds = %bb35
  %_44 = icmp ule i8 %val, 57
  br i1 %_44, label %bb39, label %bb40

bb42:                                             ; preds = %bb39
  %_49 = sub i8 %val, 48
  %digit = zext i8 %_49 to i64
  %_53 = load i64, i64* %res, align 8
  br label %bb47

bb43:                                             ; preds = %bb52
  store i8 1, i8* %_51, align 1
  br label %bb46

bb44:                                             ; preds = %bb52, %bb48
  store i8 0, i8* %_51, align 1
  br label %bb46

bb45:                                             ; preds = %bb48
  %_59 = load i64, i64* %res, align 8
  br label %bb53

bb46:                                             ; preds = %bb44, %bb43
  %75 = load i8, i8* %_51, align 1, !range !4
  %76 = trunc i8 %75 to i1
  br i1 %76, label %bb58, label %bb57

bb47:                                             ; preds = %bb42
  br label %bb48

bb48:                                             ; preds = %bb47
  %_54 = udiv i64 -1, 10
  %_52 = icmp uge i64 %_53, %_54
  br i1 %_52, label %bb45, label %bb44

bb49:                                             ; preds = %bb56, %bb54
  store i8 1, i8* %_57, align 1
  br label %bb52

bb50:                                             ; preds = %bb56
  store i8 0, i8* %_57, align 1
  br label %bb52

bb51:                                             ; preds = %bb54
  br label %bb55

bb52:                                             ; preds = %bb50, %bb49
  %77 = load i8, i8* %_57, align 1, !range !4
  %78 = trunc i8 %77 to i1
  br i1 %78, label %bb43, label %bb44

bb53:                                             ; preds = %bb45
  br label %bb54

bb54:                                             ; preds = %bb53
  %_60 = udiv i64 -1, 10
  %_58 = icmp ugt i64 %_59, %_60
  br i1 %_58, label %bb49, label %bb51

bb55:                                             ; preds = %bb51
  br label %bb56

bb56:                                             ; preds = %bb55
  %_65 = urem i64 -1, 10
  %_63 = icmp ugt i64 %digit, %_65
  br i1 %_63, label %bb49, label %bb50

bb57:                                             ; preds = %bb46
  %_79 = load i64, i64* %res, align 8
  %_78 = mul i64 %_79, 10
  %79 = add i64 %_78, %digit
  store i64 %79, i64* %res, align 8
  store i8 0, i8* %_88, align 1
; call core::ptr::real_drop_in_place
  call void @_ZN4core3ptr18real_drop_in_place17hda2544e7c0eb7314E(%"core::result::Result<u8, serde_json::error::Error>"* align 8 dereferenceable(16) %_37)
  br label %bb64

bb58:                                             ; preds = %bb46
  %_73 = load i64, i64* %res, align 8
; invoke serde_json::de::Deserializer<R>::parse_long_integer
  invoke void @"_ZN10serde_json2de21Deserializer$LT$R$GT$18parse_long_integer17hb31b4fa604dd876bE"(%"core::result::Result<f64, serde_json::error::Error>"* noalias nocapture sret dereferenceable(16) %_70, %"serde_json::de::Deserializer<serde_json::read::StrRead>"* align 8 dereferenceable(56) %self, i1 zeroext %positive, i64 %_73, i32 1)
          to label %bb59 unwind label %cleanup

bb59:                                             ; preds = %bb58
  store i8 1, i8* %_89, align 1
  %80 = bitcast %"core::result::Result<f64, serde_json::error::Error>"* %_70 to i64*
  %_74 = load i64, i64* %80, align 8, !range !1
  switch i64 %_74, label %bb60 [
    i64 0, label %bb61
    i64 1, label %bb62
  ]

bb60:                                             ; preds = %bb59
  unreachable

bb61:                                             ; preds = %bb59
  %81 = bitcast %"core::result::Result<f64, serde_json::error::Error>"* %_70 to %"core::result::Result<f64, serde_json::error::Error>::Ok"*
  %82 = getelementptr inbounds %"core::result::Result<f64, serde_json::error::Error>::Ok", %"core::result::Result<f64, serde_json::error::Error>::Ok"* %81, i32 0, i32 1
  %val3 = load double, double* %82, align 8
  %83 = bitcast %"serde_json::de::ParserNumber"* %_68 to %"serde_json::de::ParserNumber::F64"*
  %84 = getelementptr inbounds %"serde_json::de::ParserNumber::F64", %"serde_json::de::ParserNumber::F64"* %83, i32 0, i32 1
  store double %val3, double* %84, align 8
  %85 = bitcast %"serde_json::de::ParserNumber"* %_68 to i64*
  store i64 0, i64* %85, align 8
  %86 = bitcast %"core::result::Result<serde_json::de::ParserNumber, serde_json::error::Error>"* %0 to %"core::result::Result<serde_json::de::ParserNumber, serde_json::error::Error>::Ok"*
  %87 = getelementptr inbounds %"core::result::Result<serde_json::de::ParserNumber, serde_json::error::Error>::Ok", %"core::result::Result<serde_json::de::ParserNumber, serde_json::error::Error>::Ok"* %86, i32 0, i32 1
  %88 = bitcast %"serde_json::de::ParserNumber"* %87 to i8*
  %89 = bitcast %"serde_json::de::ParserNumber"* %_68 to i8*
  call void @llvm.memcpy.p0i8.p0i8.i64(i8* align 8 %88, i8* align 8 %89, i64 16, i1 false)
  %90 = bitcast %"core::result::Result<serde_json::de::ParserNumber, serde_json::error::Error>"* %0 to i64*
  store i64 0, i64* %90, align 8
  br label %bb81

bb62:                                             ; preds = %bb59
  store i8 0, i8* %_89, align 1
  %91 = bitcast %"core::result::Result<f64, serde_json::error::Error>"* %_70 to %"core::result::Result<f64, serde_json::error::Error>::Err"*
  %92 = getelementptr inbounds %"core::result::Result<f64, serde_json::error::Error>::Err", %"core::result::Result<f64, serde_json::error::Error>::Err"* %91, i32 0, i32 1
  %err2 = load i64*, i64** %92, align 8, !nonnull !2
  %93 = bitcast %"core::result::Result<serde_json::de::ParserNumber, serde_json::error::Error>"* %0 to %"core::result::Result<serde_json::de::ParserNumber, serde_json::error::Error>::Err"*
  %94 = getelementptr inbounds %"core::result::Result<serde_json::de::ParserNumber, serde_json::error::Error>::Err", %"core::result::Result<serde_json::de::ParserNumber, serde_json::error::Error>::Err"* %93, i32 0, i32 1
  store i64* %err2, i64** %94, align 8
  %95 = bitcast %"core::result::Result<serde_json::de::ParserNumber, serde_json::error::Error>"* %0 to i64*
  store i64 1, i64* %95, align 8
  br label %bb81

bb63:                                             ; preds = %bb40
  br label %bb38

bb64:                                             ; preds = %bb57
  store i8 0, i8* %_88, align 1
  br label %bb32

bb65:                                             ; preds = %bb16
  %96 = bitcast %"core::result::Result<serde_json::de::ParserNumber, serde_json::error::Error>"* %0 to %"core::result::Result<serde_json::de::ParserNumber, serde_json::error::Error>::Err"*
  %97 = getelementptr inbounds %"core::result::Result<serde_json::de::ParserNumber, serde_json::error::Error>::Err", %"core::result::Result<serde_json::de::ParserNumber, serde_json::error::Error>::Err"* %96, i32 0, i32 1
  store i64* %41, i64** %97, align 8
  %98 = bitcast %"core::result::Result<serde_json::de::ParserNumber, serde_json::error::Error>"* %0 to i64*
  store i64 1, i64* %98, align 8
  br label %bb66

bb66:                                             ; preds = %bb31, %bb65
  br label %bb6

bb67:                                             ; preds = %bb69, %bb68, %bb70
  store i8 0, i8* %_87, align 1
  br label %bb9

bb68:                                             ; preds = %bb8
  %99 = load i8, i8* %_87, align 1, !range !4
  %100 = trunc i8 %99 to i1
  br i1 %100, label %bb69, label %bb67

bb69:                                             ; preds = %bb68
  store i8 0, i8* %_87, align 1
  %101 = bitcast %"core::result::Result<core::option::Option<u8>, serde_json::error::Error>"* %_5 to %"core::result::Result<core::option::Option<u8>, serde_json::error::Error>::Err"*
  %102 = getelementptr inbounds %"core::result::Result<core::option::Option<u8>, serde_json::error::Error>::Err", %"core::result::Result<core::option::Option<u8>, serde_json::error::Error>::Err"* %101, i32 0, i32 1
; call core::ptr::real_drop_in_place
  call void @_ZN4core3ptr18real_drop_in_place17h94d8d2616b716ae2E(i64** align 8 dereferenceable(8) %102)
  br label %bb67

bb70:                                             ; preds = %bb8
; call core::ptr::real_drop_in_place
  call void @_ZN4core3ptr18real_drop_in_place17hbd244058d832624cE(%"core::result::Result<core::option::Option<u8>, serde_json::error::Error>"* align 8 dereferenceable(16) %_5)
  br label %bb67

bb71:                                             ; preds = %bb72, %bb23
  br label %bb9

bb72:                                             ; preds = %bb23
; call core::ptr::real_drop_in_place
  call void @_ZN4core3ptr18real_drop_in_place17hda2544e7c0eb7314E(%"core::result::Result<u8, serde_json::error::Error>"* align 8 dereferenceable(16) %_19)
  br label %bb71

bb73:                                             ; preds = %bb75, %bb74, %bb76
  store i8 0, i8* %_88, align 1
  br label %bb9

bb74:                                             ; preds = %bb38
  %103 = load i8, i8* %_88, align 1, !range !4
  %104 = trunc i8 %103 to i1
  br i1 %104, label %bb75, label %bb73

bb75:                                             ; preds = %bb74
  store i8 0, i8* %_88, align 1
  %105 = bitcast %"core::result::Result<u8, serde_json::error::Error>"* %_37 to %"core::result::Result<u8, serde_json::error::Error>::Err"*
  %106 = getelementptr inbounds %"core::result::Result<u8, serde_json::error::Error>::Err", %"core::result::Result<u8, serde_json::error::Error>::Err"* %105, i32 0, i32 1
; call core::ptr::real_drop_in_place
  call void @_ZN4core3ptr18real_drop_in_place17h94d8d2616b716ae2E(i64** align 8 dereferenceable(8) %106)
  br label %bb73

bb76:                                             ; preds = %bb38
; call core::ptr::real_drop_in_place
  call void @_ZN4core3ptr18real_drop_in_place17hda2544e7c0eb7314E(%"core::result::Result<u8, serde_json::error::Error>"* align 8 dereferenceable(16) %_37)
  br label %bb73

bb77:                                             ; preds = %bb79, %bb78, %bb80
  store i8 0, i8* %_89, align 1
  br label %bb38

bb78:                                             ; preds = %bb81
  %107 = load i8, i8* %_89, align 1, !range !4
  %108 = trunc i8 %107 to i1
  br i1 %108, label %bb79, label %bb77

bb79:                                             ; preds = %bb78
  store i8 0, i8* %_89, align 1
  %109 = bitcast %"core::result::Result<f64, serde_json::error::Error>"* %_70 to %"core::result::Result<f64, serde_json::error::Error>::Err"*
  %110 = getelementptr inbounds %"core::result::Result<f64, serde_json::error::Error>::Err", %"core::result::Result<f64, serde_json::error::Error>::Err"* %109, i32 0, i32 1
; invoke core::ptr::real_drop_in_place
  invoke void @_ZN4core3ptr18real_drop_in_place17h94d8d2616b716ae2E(i64** align 8 dereferenceable(8) %110)
          to label %bb77 unwind label %cleanup

bb80:                                             ; preds = %bb81
; invoke core::ptr::real_drop_in_place
  invoke void @_ZN4core3ptr18real_drop_in_place17h164d76c7649c96aaE(%"core::result::Result<f64, serde_json::error::Error>"* align 8 dereferenceable(16) %_70)
          to label %bb77 unwind label %cleanup

bb81:                                             ; preds = %bb61, %bb62
  %111 = bitcast %"core::result::Result<f64, serde_json::error::Error>"* %_70 to i64*
  %_93 = load i64, i64* %111, align 8, !range !1
  %112 = icmp eq i64 %_93, 1
  br i1 %112, label %bb78, label %bb80

cleanup:                                          ; preds = %bb40, %bb79, %bb80, %bb58, %bb39
  %113 = landingpad { i8*, i32 }
          cleanup
  %114 = extractvalue { i8*, i32 } %113, 0
  %115 = extractvalue { i8*, i32 } %113, 1
  %116 = getelementptr inbounds { i8*, i32 }, { i8*, i32 }* %1, i32 0, i32 0
  store i8* %114, i8** %116, align 8
  %117 = getelementptr inbounds { i8*, i32 }, { i8*, i32 }* %1, i32 0, i32 1
  store i32 %115, i32* %117, align 8
  br label %bb37

cleanup6:                                         ; preds = %bb26, %bb25
  %118 = landingpad { i8*, i32 }
          cleanup
  %119 = extractvalue { i8*, i32 } %118, 0
  %120 = extractvalue { i8*, i32 } %118, 1
  %121 = getelementptr inbounds { i8*, i32 }, { i8*, i32 }* %1, i32 0, i32 0
  store i8* %119, i8** %121, align 8
  %122 = getelementptr inbounds { i8*, i32 }, { i8*, i32 }* %1, i32 0, i32 1
  store i32 %120, i32* %122, align 8
  br label %bb24

cleanup7:                                         ; preds = %bb10
  %123 = landingpad { i8*, i32 }
          cleanup
  %124 = extractvalue { i8*, i32 } %123, 0
  %125 = extractvalue { i8*, i32 } %123, 1
  %126 = getelementptr inbounds { i8*, i32 }, { i8*, i32 }* %1, i32 0, i32 0
  store i8* %124, i8** %126, align 8
  %127 = getelementptr inbounds { i8*, i32 }, { i8*, i32 }* %1, i32 0, i32 1
  store i32 %125, i32* %127, align 8
  br label %bb7
}

; serde_json::de::Deserializer<R>::f64_from_parts
; Function Attrs: uwtable
define internal void @"_ZN10serde_json2de21Deserializer$LT$R$GT$14f64_from_parts17h7d9afe67a76cc10dE"(%"core::result::Result<f64, serde_json::error::Error>"* noalias nocapture sret dereferenceable(16), %"serde_json::de::Deserializer<serde_json::read::StrRead>"* align 8 dereferenceable(56) %self, i1 zeroext %positive, i64 %significand, i32) unnamed_addr #1 {
start:
  %_31 = alloca double, align 8
  %_30 = alloca %"serde_json::error::ErrorCode", align 8
  %_22 = alloca %"serde_json::error::ErrorCode", align 8
  %_7 = alloca i64*, align 8
  %f = alloca double, align 8
  %exponent = alloca i32, align 4
  store i32 %1, i32* %exponent, align 4
  %2 = uitofp i64 %significand to double
  store double %2, double* %f, align 8
  br label %bb1

bb1:                                              ; preds = %bb19, %start
  %_12 = load i32, i32* %exponent, align 4
; call core::num::<impl i32>::wrapping_abs
  %3 = call i32 @"_ZN4core3num21_$LT$impl$u20$i32$GT$12wrapping_abs17hd60904074f74e421E"(i32 %_12)
  br label %bb2

bb2:                                              ; preds = %bb1
  %_10 = sext i32 %3 to i64
; call core::slice::<impl [T]>::get
  %4 = call align 8 dereferenceable_or_null(8) i64* @"_ZN4core5slice29_$LT$impl$u20$$u5b$T$u5d$$GT$3get17hc137014e2a501e49E"([0 x double]* noalias nonnull readonly align 8 bitcast ([309 x double]* @_ZN10serde_json2de5POW1017hf5de5bb0e948b3cfE to [0 x double]*), i64 309, i64 %_10)
  store i64* %4, i64** %_7, align 8
  br label %bb3

bb3:                                              ; preds = %bb2
  %5 = bitcast i64** %_7 to {}**
  %6 = load {}*, {}** %5, align 8
  %7 = icmp ule {}* %6, null
  %_13 = select i1 %7, i64 0, i64 1
  switch i64 %_13, label %bb5 [
    i64 0, label %bb4
    i64 1, label %bb6
  ]

bb4:                                              ; preds = %bb3
  %_25 = load double, double* %f, align 8
  %_24 = fcmp oeq double %_25, 0.000000e+00
  br i1 %_24, label %bb18, label %bb17

bb5:                                              ; preds = %bb3
  unreachable

bb6:                                              ; preds = %bb3
  %8 = bitcast i64** %_7 to double**
  %9 = load double*, double** %8, align 8, !nonnull !2
  %pow = load double, double* %9, align 8
  %_16 = load i32, i32* %exponent, align 4
  %_15 = icmp sge i32 %_16, 0
  br i1 %_15, label %bb8, label %bb7

bb7:                                              ; preds = %bb6
  %10 = load double, double* %f, align 8
  %11 = fdiv double %10, %pow
  store double %11, double* %f, align 8
  br label %bb15

bb8:                                              ; preds = %bb6
  %12 = load double, double* %f, align 8
  %13 = fmul double %12, %pow
  store double %13, double* %f, align 8
  %_19 = load double, double* %f, align 8
; call core::f64::<impl f64>::is_infinite
  %14 = call zeroext i1 @"_ZN4core3f6421_$LT$impl$u20$f64$GT$11is_infinite17h30643d1eb9d48562E"(double %_19)
  br label %bb9

bb9:                                              ; preds = %bb8
  br i1 %14, label %bb11, label %bb10

bb10:                                             ; preds = %bb9
  br label %bb15

bb11:                                             ; preds = %bb9
  %15 = bitcast %"serde_json::error::ErrorCode"* %_22 to i64*
  store i64 15, i64* %15, align 8
; call serde_json::de::Deserializer<R>::error
  %16 = call noalias align 8 dereferenceable(40) i64* @"_ZN10serde_json2de21Deserializer$LT$R$GT$5error17h608cc2aecfbde555E"(%"serde_json::de::Deserializer<serde_json::read::StrRead>"* noalias readonly align 8 dereferenceable(56) %self, %"serde_json::error::ErrorCode"* noalias nocapture dereferenceable(24) %_22)
  br label %bb13

bb12:                                             ; preds = %bb14, %bb24
  ret void

bb13:                                             ; preds = %bb11
  %17 = bitcast %"core::result::Result<f64, serde_json::error::Error>"* %0 to %"core::result::Result<f64, serde_json::error::Error>::Err"*
  %18 = getelementptr inbounds %"core::result::Result<f64, serde_json::error::Error>::Err", %"core::result::Result<f64, serde_json::error::Error>::Err"* %17, i32 0, i32 1
  store i64* %16, i64** %18, align 8
  %19 = bitcast %"core::result::Result<f64, serde_json::error::Error>"* %0 to i64*
  store i64 1, i64* %19, align 8
  br label %bb14

bb14:                                             ; preds = %bb21, %bb13
  br label %bb12

bb15:                                             ; preds = %bb7, %bb10
  br label %bb16

bb16:                                             ; preds = %bb18, %bb15
  br i1 %positive, label %bb23, label %bb22

bb17:                                             ; preds = %bb4
  %_27 = load i32, i32* %exponent, align 4
  %_26 = icmp sge i32 %_27, 0
  br i1 %_26, label %bb20, label %bb19

bb18:                                             ; preds = %bb4
  br label %bb16

bb19:                                             ; preds = %bb17
  %20 = load double, double* %f, align 8
  %21 = fdiv double %20, 1.000000e+308
  store double %21, double* %f, align 8
  %22 = load i32, i32* %exponent, align 4
  %23 = add i32 %22, 308
  store i32 %23, i32* %exponent, align 4
  br label %bb1

bb20:                                             ; preds = %bb17
  %24 = bitcast %"serde_json::error::ErrorCode"* %_30 to i64*
  store i64 15, i64* %24, align 8
; call serde_json::de::Deserializer<R>::error
  %25 = call noalias align 8 dereferenceable(40) i64* @"_ZN10serde_json2de21Deserializer$LT$R$GT$5error17h608cc2aecfbde555E"(%"serde_json::de::Deserializer<serde_json::read::StrRead>"* noalias readonly align 8 dereferenceable(56) %self, %"serde_json::error::ErrorCode"* noalias nocapture dereferenceable(24) %_30)
  br label %bb21

bb21:                                             ; preds = %bb20
  %26 = bitcast %"core::result::Result<f64, serde_json::error::Error>"* %0 to %"core::result::Result<f64, serde_json::error::Error>::Err"*
  %27 = getelementptr inbounds %"core::result::Result<f64, serde_json::error::Error>::Err", %"core::result::Result<f64, serde_json::error::Error>::Err"* %26, i32 0, i32 1
  store i64* %25, i64** %27, align 8
  %28 = bitcast %"core::result::Result<f64, serde_json::error::Error>"* %0 to i64*
  store i64 1, i64* %28, align 8
  br label %bb14

bb22:                                             ; preds = %bb16
  %_33 = load double, double* %f, align 8
  %29 = fsub double -0.000000e+00, %_33
  store double %29, double* %_31, align 8
  br label %bb24

bb23:                                             ; preds = %bb16
  %30 = load double, double* %f, align 8
  store double %30, double* %_31, align 8
  br label %bb24

bb24:                                             ; preds = %bb22, %bb23
  %31 = bitcast %"core::result::Result<f64, serde_json::error::Error>"* %0 to %"core::result::Result<f64, serde_json::error::Error>::Ok"*
  %32 = getelementptr inbounds %"core::result::Result<f64, serde_json::error::Error>::Ok", %"core::result::Result<f64, serde_json::error::Error>::Ok"* %31, i32 0, i32 1
  %33 = load double, double* %_31, align 8
  store double %33, double* %32, align 8
  %34 = bitcast %"core::result::Result<f64, serde_json::error::Error>"* %0 to i64*
  store i64 0, i64* %34, align 8
  br label %bb12
}

; serde_json::de::Deserializer<R>::parse_exponent
; Function Attrs: uwtable
define internal void @"_ZN10serde_json2de21Deserializer$LT$R$GT$14parse_exponent17h88fb6703e140e55bE"(%"core::result::Result<f64, serde_json::error::Error>"* noalias nocapture sret dereferenceable(16), %"serde_json::de::Deserializer<serde_json::read::StrRead>"* align 8 dereferenceable(56) %self, i1 zeroext %positive, i64 %significand, i32 %starting_exp) unnamed_addr #1 personality i32 (i32, i32, i64, %"unwind::libunwind::_Unwind_Exception"*, %"unwind::libunwind::_Unwind_Context"*)* @rust_eh_personality {
start:
  %1 = alloca { i8*, i32 }, align 8
  %_100 = alloca i8, align 1
  %_99 = alloca i8, align 1
  %final_exp = alloca i32, align 4
  %_65 = alloca i8, align 1
  %_56 = alloca i8, align 1
  %_42 = alloca %"core::result::Result<u8, serde_json::error::Error>", align 8
  %_40 = alloca %"serde_json::error::ErrorCode", align 8
  %exp = alloca i32, align 4
  %_31 = alloca %"serde_json::error::ErrorCode", align 8
  %_21 = alloca %"core::result::Result<core::option::Option<u8>, serde_json::error::Error>", align 8
  %_20 = alloca { i8, i8 }, align 1
  %_9 = alloca %"core::result::Result<u8, serde_json::error::Error>", align 8
  %positive_exp = alloca i8, align 1
  store i8 0, i8* %_99, align 1
  store i8 0, i8* %_100, align 1
; call serde_json::de::Deserializer<R>::eat_char
  call void @"_ZN10serde_json2de21Deserializer$LT$R$GT$8eat_char17h27880c16013f818fE"(%"serde_json::de::Deserializer<serde_json::read::StrRead>"* align 8 dereferenceable(56) %self)
  br label %bb2

bb1:                                              ; preds = %bb21, %bb39, %bb8
  %2 = bitcast { i8*, i32 }* %1 to i8**
  %3 = load i8*, i8** %2, align 8
  %4 = getelementptr inbounds { i8*, i32 }, { i8*, i32 }* %1, i32 0, i32 1
  %5 = load i32, i32* %4, align 8
  %6 = insertvalue { i8*, i32 } undef, i8* %3, 0
  %7 = insertvalue { i8*, i32 } %6, i32 %5, 1
  resume { i8*, i32 } %7

bb2:                                              ; preds = %start
; call serde_json::de::Deserializer<R>::peek_or_null
  call void @"_ZN10serde_json2de21Deserializer$LT$R$GT$12peek_or_null17hb35dfed309bd4e58E"(%"core::result::Result<u8, serde_json::error::Error>"* noalias nocapture sret dereferenceable(16) %_9, %"serde_json::de::Deserializer<serde_json::read::StrRead>"* align 8 dereferenceable(56) %self)
  br label %bb3

bb3:                                              ; preds = %bb2
  %8 = bitcast %"core::result::Result<u8, serde_json::error::Error>"* %_9 to i8*
  %9 = load i8, i8* %8, align 8, !range !4
  %10 = trunc i8 %9 to i1
  %_11 = zext i1 %10 to i64
  switch i64 %_11, label %bb4 [
    i64 0, label %bb5
    i64 1, label %bb6
  ]

bb4:                                              ; preds = %bb3
  unreachable

bb5:                                              ; preds = %bb3
  %11 = bitcast %"core::result::Result<u8, serde_json::error::Error>"* %_9 to %"core::result::Result<u8, serde_json::error::Error>::Ok"*
  %12 = getelementptr inbounds %"core::result::Result<u8, serde_json::error::Error>::Ok", %"core::result::Result<u8, serde_json::error::Error>::Ok"* %11, i32 0, i32 1
  %val = load i8, i8* %12, align 1
  switch i8 %val, label %bb10 [
    i8 43, label %bb11
    i8 45, label %bb13
  ]

bb6:                                              ; preds = %bb3
  %13 = bitcast %"core::result::Result<u8, serde_json::error::Error>"* %_9 to %"core::result::Result<u8, serde_json::error::Error>::Err"*
  %14 = getelementptr inbounds %"core::result::Result<u8, serde_json::error::Error>::Err", %"core::result::Result<u8, serde_json::error::Error>::Err"* %13, i32 0, i32 1
  %err = load i64*, i64** %14, align 8, !nonnull !2
  %15 = bitcast %"core::result::Result<f64, serde_json::error::Error>"* %0 to %"core::result::Result<f64, serde_json::error::Error>::Err"*
  %16 = getelementptr inbounds %"core::result::Result<f64, serde_json::error::Error>::Err", %"core::result::Result<f64, serde_json::error::Error>::Err"* %15, i32 0, i32 1
  store i64* %err, i64** %16, align 8
  %17 = bitcast %"core::result::Result<f64, serde_json::error::Error>"* %0 to i64*
  store i64 1, i64* %17, align 8
  %18 = bitcast %"core::result::Result<u8, serde_json::error::Error>"* %_9 to i8*
  %19 = load i8, i8* %18, align 8, !range !4
  %20 = trunc i8 %19 to i1
  %_101 = zext i1 %20 to i64
  %21 = icmp eq i64 %_101, 1
  br i1 %21, label %bb73, label %bb74

bb7:                                              ; preds = %bb9, %bb72
  ret void

bb8:                                              ; preds = %cleanup
; call core::ptr::real_drop_in_place
  call void @_ZN4core3ptr18real_drop_in_place17hda2544e7c0eb7314E(%"core::result::Result<u8, serde_json::error::Error>"* align 8 dereferenceable(16) %_9) #14
  br label %bb1

bb9:                                              ; preds = %bb23, %bb73
  br label %bb7

bb10:                                             ; preds = %bb5
  store i8 1, i8* %positive_exp, align 1
  br label %bb15

bb11:                                             ; preds = %bb5
; invoke serde_json::de::Deserializer<R>::eat_char
  invoke void @"_ZN10serde_json2de21Deserializer$LT$R$GT$8eat_char17h27880c16013f818fE"(%"serde_json::de::Deserializer<serde_json::read::StrRead>"* align 8 dereferenceable(56) %self)
          to label %bb12 unwind label %cleanup

bb12:                                             ; preds = %bb11
  store i8 1, i8* %positive_exp, align 1
  br label %bb15

bb13:                                             ; preds = %bb5
; invoke serde_json::de::Deserializer<R>::eat_char
  invoke void @"_ZN10serde_json2de21Deserializer$LT$R$GT$8eat_char17h27880c16013f818fE"(%"serde_json::de::Deserializer<serde_json::read::StrRead>"* align 8 dereferenceable(56) %self)
          to label %bb14 unwind label %cleanup

bb14:                                             ; preds = %bb13
  store i8 0, i8* %positive_exp, align 1
  br label %bb15

bb15:                                             ; preds = %bb12, %bb14, %bb10
; call core::ptr::real_drop_in_place
  call void @_ZN4core3ptr18real_drop_in_place17hda2544e7c0eb7314E(%"core::result::Result<u8, serde_json::error::Error>"* align 8 dereferenceable(16) %_9)
  br label %bb16

bb16:                                             ; preds = %bb15
  store i8 1, i8* %_99, align 1
; call serde_json::de::Deserializer<R>::next_char
  call void @"_ZN10serde_json2de21Deserializer$LT$R$GT$9next_char17h0e00787cc80c5e1eE"(%"core::result::Result<core::option::Option<u8>, serde_json::error::Error>"* noalias nocapture sret dereferenceable(16) %_21, %"serde_json::de::Deserializer<serde_json::read::StrRead>"* align 8 dereferenceable(56) %self)
  br label %bb17

bb17:                                             ; preds = %bb16
  %22 = bitcast %"core::result::Result<core::option::Option<u8>, serde_json::error::Error>"* %_21 to i8*
  %23 = load i8, i8* %22, align 8, !range !4
  %24 = trunc i8 %23 to i1
  %_23 = zext i1 %24 to i64
  switch i64 %_23, label %bb18 [
    i64 0, label %bb19
    i64 1, label %bb20
  ]

bb18:                                             ; preds = %bb17
  unreachable

bb19:                                             ; preds = %bb17
  %25 = bitcast %"core::result::Result<core::option::Option<u8>, serde_json::error::Error>"* %_21 to %"core::result::Result<core::option::Option<u8>, serde_json::error::Error>::Ok"*
  %26 = getelementptr inbounds %"core::result::Result<core::option::Option<u8>, serde_json::error::Error>::Ok", %"core::result::Result<core::option::Option<u8>, serde_json::error::Error>::Ok"* %25, i32 0, i32 1
  %27 = getelementptr inbounds { i8, i8 }, { i8, i8 }* %26, i32 0, i32 0
  %28 = load i8, i8* %27, align 1, !range !4
  %val.0 = trunc i8 %28 to i1
  %29 = getelementptr inbounds { i8, i8 }, { i8, i8 }* %26, i32 0, i32 1
  %val.1 = load i8, i8* %29, align 1
  %30 = getelementptr inbounds { i8, i8 }, { i8, i8 }* %_20, i32 0, i32 0
  %31 = zext i1 %val.0 to i8
  store i8 %31, i8* %30, align 1
  %32 = getelementptr inbounds { i8, i8 }, { i8, i8 }* %_20, i32 0, i32 1
  store i8 %val.1, i8* %32, align 1
  %33 = bitcast { i8, i8 }* %_20 to i8*
  %34 = load i8, i8* %33, align 1, !range !4
  %35 = trunc i8 %34 to i1
  %_27 = zext i1 %35 to i64
  switch i64 %_27, label %bb25 [
    i64 0, label %bb24
    i64 1, label %bb26
  ]

bb20:                                             ; preds = %bb17
  store i8 0, i8* %_99, align 1
  %36 = bitcast %"core::result::Result<core::option::Option<u8>, serde_json::error::Error>"* %_21 to %"core::result::Result<core::option::Option<u8>, serde_json::error::Error>::Err"*
  %37 = getelementptr inbounds %"core::result::Result<core::option::Option<u8>, serde_json::error::Error>::Err", %"core::result::Result<core::option::Option<u8>, serde_json::error::Error>::Err"* %36, i32 0, i32 1
  %err1 = load i64*, i64** %37, align 8, !nonnull !2
  %38 = bitcast %"core::result::Result<f64, serde_json::error::Error>"* %0 to %"core::result::Result<f64, serde_json::error::Error>::Err"*
  %39 = getelementptr inbounds %"core::result::Result<f64, serde_json::error::Error>::Err", %"core::result::Result<f64, serde_json::error::Error>::Err"* %38, i32 0, i32 1
  store i64* %err1, i64** %39, align 8
  %40 = bitcast %"core::result::Result<f64, serde_json::error::Error>"* %0 to i64*
  store i64 1, i64* %40, align 8
  br label %bb22

bb21:                                             ; preds = %cleanup7
  store i8 0, i8* %_99, align 1
; call core::ptr::real_drop_in_place
  call void @_ZN4core3ptr18real_drop_in_place17hbd244058d832624cE(%"core::result::Result<core::option::Option<u8>, serde_json::error::Error>"* align 8 dereferenceable(16) %_21) #14
  br label %bb1

bb22:                                             ; preds = %bb27, %bb20
  %41 = bitcast %"core::result::Result<core::option::Option<u8>, serde_json::error::Error>"* %_21 to i8*
  %42 = load i8, i8* %41, align 8, !range !4
  %43 = trunc i8 %42 to i1
  %_102 = zext i1 %43 to i64
  %44 = icmp eq i64 %_102, 1
  br i1 %44, label %bb76, label %bb78

bb23:                                             ; preds = %bb75, %bb33
  br label %bb9

bb24:                                             ; preds = %bb19
  %45 = bitcast %"serde_json::error::ErrorCode"* %_31 to i64*
  store i64 5, i64* %45, align 8
; invoke serde_json::de::Deserializer<R>::error
  %46 = invoke noalias align 8 dereferenceable(40) i64* @"_ZN10serde_json2de21Deserializer$LT$R$GT$5error17h608cc2aecfbde555E"(%"serde_json::de::Deserializer<serde_json::read::StrRead>"* noalias readonly align 8 dereferenceable(56) %self, %"serde_json::error::ErrorCode"* noalias nocapture dereferenceable(24) %_31)
          to label %bb27 unwind label %cleanup7

bb25:                                             ; preds = %bb19
  unreachable

bb26:                                             ; preds = %bb19
  %47 = bitcast { i8, i8 }* %_20 to %"core::option::Option<u8>::Some"*
  %48 = getelementptr inbounds %"core::option::Option<u8>::Some", %"core::option::Option<u8>::Some"* %47, i32 0, i32 1
  %b = load i8, i8* %48, align 1
  store i8 0, i8* %_99, align 1
; call core::ptr::real_drop_in_place
  call void @_ZN4core3ptr18real_drop_in_place17hbd244058d832624cE(%"core::result::Result<core::option::Option<u8>, serde_json::error::Error>"* align 8 dereferenceable(16) %_21)
  br label %bb28

bb27:                                             ; preds = %bb24
  %49 = bitcast %"core::result::Result<f64, serde_json::error::Error>"* %0 to %"core::result::Result<f64, serde_json::error::Error>::Err"*
  %50 = getelementptr inbounds %"core::result::Result<f64, serde_json::error::Error>::Err", %"core::result::Result<f64, serde_json::error::Error>::Err"* %49, i32 0, i32 1
  store i64* %46, i64** %50, align 8
  %51 = bitcast %"core::result::Result<f64, serde_json::error::Error>"* %0 to i64*
  store i64 1, i64* %51, align 8
  br label %bb22

bb28:                                             ; preds = %bb26
  store i8 0, i8* %_99, align 1
  %_33 = icmp ule i8 48, %b
  br i1 %_33, label %bb31, label %bb30

bb29:                                             ; preds = %bb31
  %_36 = sub i8 %b, 48
  %52 = zext i8 %_36 to i32
  store i32 %52, i32* %exp, align 4
  br label %bb34

bb30:                                             ; preds = %bb31, %bb28
  %53 = bitcast %"serde_json::error::ErrorCode"* %_40 to i64*
  store i64 14, i64* %53, align 8
; call serde_json::de::Deserializer<R>::error
  %54 = call noalias align 8 dereferenceable(40) i64* @"_ZN10serde_json2de21Deserializer$LT$R$GT$5error17h608cc2aecfbde555E"(%"serde_json::de::Deserializer<serde_json::read::StrRead>"* noalias readonly align 8 dereferenceable(56) %self, %"serde_json::error::ErrorCode"* noalias nocapture dereferenceable(24) %_40)
  br label %bb32

bb31:                                             ; preds = %bb28
  %_34 = icmp ule i8 %b, 57
  br i1 %_34, label %bb29, label %bb30

bb32:                                             ; preds = %bb30
  %55 = bitcast %"core::result::Result<f64, serde_json::error::Error>"* %0 to %"core::result::Result<f64, serde_json::error::Error>::Err"*
  %56 = getelementptr inbounds %"core::result::Result<f64, serde_json::error::Error>::Err", %"core::result::Result<f64, serde_json::error::Error>::Err"* %55, i32 0, i32 1
  store i64* %54, i64** %56, align 8
  %57 = bitcast %"core::result::Result<f64, serde_json::error::Error>"* %0 to i64*
  store i64 1, i64* %57, align 8
  br label %bb33

bb33:                                             ; preds = %bb32, %bb79
  br label %bb23

bb34:                                             ; preds = %bb66, %bb29
  store i8 1, i8* %_100, align 1
; call serde_json::de::Deserializer<R>::peek_or_null
  call void @"_ZN10serde_json2de21Deserializer$LT$R$GT$12peek_or_null17hb35dfed309bd4e58E"(%"core::result::Result<u8, serde_json::error::Error>"* noalias nocapture sret dereferenceable(16) %_42, %"serde_json::de::Deserializer<serde_json::read::StrRead>"* align 8 dereferenceable(56) %self)
  br label %bb35

bb35:                                             ; preds = %bb34
  %58 = bitcast %"core::result::Result<u8, serde_json::error::Error>"* %_42 to i8*
  %59 = load i8, i8* %58, align 8, !range !4
  %60 = trunc i8 %59 to i1
  %_44 = zext i1 %60 to i64
  switch i64 %_44, label %bb36 [
    i64 0, label %bb37
    i64 1, label %bb38
  ]

bb36:                                             ; preds = %bb35
  unreachable

bb37:                                             ; preds = %bb35
  %61 = bitcast %"core::result::Result<u8, serde_json::error::Error>"* %_42 to %"core::result::Result<u8, serde_json::error::Error>::Ok"*
  %62 = getelementptr inbounds %"core::result::Result<u8, serde_json::error::Error>::Ok", %"core::result::Result<u8, serde_json::error::Error>::Ok"* %61, i32 0, i32 1
  %val3 = load i8, i8* %62, align 1
  %_48 = icmp ule i8 48, %val3
  br i1 %_48, label %bb43, label %bb42

bb38:                                             ; preds = %bb35
  store i8 0, i8* %_100, align 1
  %63 = bitcast %"core::result::Result<u8, serde_json::error::Error>"* %_42 to %"core::result::Result<u8, serde_json::error::Error>::Err"*
  %64 = getelementptr inbounds %"core::result::Result<u8, serde_json::error::Error>::Err", %"core::result::Result<u8, serde_json::error::Error>::Err"* %63, i32 0, i32 1
  %err2 = load i64*, i64** %64, align 8, !nonnull !2
  %65 = bitcast %"core::result::Result<f64, serde_json::error::Error>"* %0 to %"core::result::Result<f64, serde_json::error::Error>::Err"*
  %66 = getelementptr inbounds %"core::result::Result<f64, serde_json::error::Error>::Err", %"core::result::Result<f64, serde_json::error::Error>::Err"* %65, i32 0, i32 1
  store i64* %err2, i64** %66, align 8
  %67 = bitcast %"core::result::Result<f64, serde_json::error::Error>"* %0 to i64*
  store i64 1, i64* %67, align 8
  br label %bb40

bb39:                                             ; preds = %cleanup4
  store i8 0, i8* %_100, align 1
; call core::ptr::real_drop_in_place
  call void @_ZN4core3ptr18real_drop_in_place17hda2544e7c0eb7314E(%"core::result::Result<u8, serde_json::error::Error>"* align 8 dereferenceable(16) %_42) #14
  br label %bb1

bb40:                                             ; preds = %bb64, %bb38
  %68 = bitcast %"core::result::Result<u8, serde_json::error::Error>"* %_42 to i8*
  %69 = load i8, i8* %68, align 8, !range !4
  %70 = trunc i8 %69 to i1
  %_103 = zext i1 %70 to i64
  %71 = icmp eq i64 %_103, 1
  br i1 %71, label %bb80, label %bb82

bb41:                                             ; preds = %bb43
; invoke serde_json::de::Deserializer<R>::eat_char
  invoke void @"_ZN10serde_json2de21Deserializer$LT$R$GT$8eat_char17h27880c16013f818fE"(%"serde_json::de::Deserializer<serde_json::read::StrRead>"* align 8 dereferenceable(56) %self)
          to label %bb44 unwind label %cleanup4

bb42:                                             ; preds = %bb43, %bb37
  store i8 0, i8* %_100, align 1
; call core::ptr::real_drop_in_place
  call void @_ZN4core3ptr18real_drop_in_place17hda2544e7c0eb7314E(%"core::result::Result<u8, serde_json::error::Error>"* align 8 dereferenceable(16) %_42)
  br label %bb65

bb43:                                             ; preds = %bb37
  %_49 = icmp ule i8 %val3, 57
  br i1 %_49, label %bb41, label %bb42

bb44:                                             ; preds = %bb41
  %_54 = sub i8 %val3, 48
  %digit = zext i8 %_54 to i32
  %_58 = load i32, i32* %exp, align 4
  br label %bb49

bb45:                                             ; preds = %bb55
  store i8 1, i8* %_56, align 1
  br label %bb48

bb46:                                             ; preds = %bb55, %bb51
  store i8 0, i8* %_56, align 1
  br label %bb48

bb47:                                             ; preds = %bb51
  %_67 = load i32, i32* %exp, align 4
  br label %bb56

bb48:                                             ; preds = %bb46, %bb45
  %72 = load i8, i8* %_56, align 1, !range !4
  %73 = trunc i8 %72 to i1
  br i1 %73, label %bb63, label %bb62

bb49:                                             ; preds = %bb44
  br label %bb50

bb50:                                             ; preds = %bb49
  %_63 = icmp eq i32 2147483647, -2147483648
  %_64 = and i1 false, %_63
  %74 = call i1 @llvm.expect.i1(i1 %_64, i1 false)
  br i1 %74, label %panic, label %bb51

bb51:                                             ; preds = %bb50
  %_59 = sdiv i32 2147483647, 10
  %_57 = icmp sge i32 %_58, %_59
  br i1 %_57, label %bb47, label %bb46

bb52:                                             ; preds = %bb61, %bb58
  store i8 1, i8* %_65, align 1
  br label %bb55

bb53:                                             ; preds = %bb61
  store i8 0, i8* %_65, align 1
  br label %bb55

bb54:                                             ; preds = %bb58
  br label %bb59

bb55:                                             ; preds = %bb53, %bb52
  %75 = load i8, i8* %_65, align 1, !range !4
  %76 = trunc i8 %75 to i1
  br i1 %76, label %bb45, label %bb46

bb56:                                             ; preds = %bb47
  br label %bb57

bb57:                                             ; preds = %bb56
  %_72 = icmp eq i32 2147483647, -2147483648
  %_73 = and i1 false, %_72
  %77 = call i1 @llvm.expect.i1(i1 %_73, i1 false)
  br i1 %77, label %panic5, label %bb58

bb58:                                             ; preds = %bb57
  %_68 = sdiv i32 2147483647, 10
  %_66 = icmp sgt i32 %_67, %_68
  br i1 %_66, label %bb52, label %bb54

bb59:                                             ; preds = %bb54
  br label %bb60

bb60:                                             ; preds = %bb59
  %_80 = icmp eq i32 2147483647, -2147483648
  %_81 = and i1 false, %_80
  %78 = call i1 @llvm.expect.i1(i1 %_81, i1 false)
  br i1 %78, label %panic6, label %bb61

bb61:                                             ; preds = %bb60
  %_76 = srem i32 2147483647, 10
  %_74 = icmp sgt i32 %digit, %_76
  br i1 %_74, label %bb52, label %bb53

bb62:                                             ; preds = %bb48
  %_87 = load i32, i32* %exp, align 4
  %_86 = mul i32 %_87, 10
  %79 = add i32 %_86, %digit
  store i32 %79, i32* %exp, align 4
  store i8 0, i8* %_100, align 1
; call core::ptr::real_drop_in_place
  call void @_ZN4core3ptr18real_drop_in_place17hda2544e7c0eb7314E(%"core::result::Result<u8, serde_json::error::Error>"* align 8 dereferenceable(16) %_42)
  br label %bb66

bb63:                                             ; preds = %bb48
  %80 = load i8, i8* %positive_exp, align 1, !range !4
  %_85 = trunc i8 %80 to i1
; invoke serde_json::de::Deserializer<R>::parse_exponent_overflow
  invoke void @"_ZN10serde_json2de21Deserializer$LT$R$GT$23parse_exponent_overflow17h5bc22750455fcd10E"(%"core::result::Result<f64, serde_json::error::Error>"* noalias nocapture sret dereferenceable(16) %0, %"serde_json::de::Deserializer<serde_json::read::StrRead>"* align 8 dereferenceable(56) %self, i1 zeroext %positive, i64 %significand, i1 zeroext %_85)
          to label %bb64 unwind label %cleanup4

bb64:                                             ; preds = %bb63
  br label %bb40

bb65:                                             ; preds = %bb42
  store i8 0, i8* %_100, align 1
  %81 = load i8, i8* %positive_exp, align 1, !range !4
  %_90 = trunc i8 %81 to i1
  br i1 %_90, label %bb68, label %bb67

bb66:                                             ; preds = %bb62
  store i8 0, i8* %_100, align 1
  br label %bb34

bb67:                                             ; preds = %bb65
  %_94 = load i32, i32* %exp, align 4
; call core::num::<impl i32>::saturating_sub
  %82 = call i32 @"_ZN4core3num21_$LT$impl$u20$i32$GT$14saturating_sub17h462f20001e041eabE"(i32 %starting_exp, i32 %_94)
  store i32 %82, i32* %final_exp, align 4
  br label %bb70

bb68:                                             ; preds = %bb65
  %_92 = load i32, i32* %exp, align 4
; call core::num::<impl i32>::saturating_add
  %83 = call i32 @"_ZN4core3num21_$LT$impl$u20$i32$GT$14saturating_add17h68629e871c7c6c0eE"(i32 %starting_exp, i32 %_92)
  store i32 %83, i32* %final_exp, align 4
  br label %bb69

bb69:                                             ; preds = %bb68
  br label %bb71

bb70:                                             ; preds = %bb67
  br label %bb71

bb71:                                             ; preds = %bb70, %bb69
  %_98 = load i32, i32* %final_exp, align 4
; call serde_json::de::Deserializer<R>::f64_from_parts
  call void @"_ZN10serde_json2de21Deserializer$LT$R$GT$14f64_from_parts17h7d9afe67a76cc10dE"(%"core::result::Result<f64, serde_json::error::Error>"* noalias nocapture sret dereferenceable(16) %0, %"serde_json::de::Deserializer<serde_json::read::StrRead>"* align 8 dereferenceable(56) %self, i1 zeroext %positive, i64 %significand, i32 %_98)
  br label %bb72

bb72:                                             ; preds = %bb71
  br label %bb7

bb73:                                             ; preds = %bb74, %bb6
  br label %bb9

bb74:                                             ; preds = %bb6
; call core::ptr::real_drop_in_place
  call void @_ZN4core3ptr18real_drop_in_place17hda2544e7c0eb7314E(%"core::result::Result<u8, serde_json::error::Error>"* align 8 dereferenceable(16) %_9)
  br label %bb73

bb75:                                             ; preds = %bb77, %bb76, %bb78
  store i8 0, i8* %_99, align 1
  br label %bb23

bb76:                                             ; preds = %bb22
  %84 = load i8, i8* %_99, align 1, !range !4
  %85 = trunc i8 %84 to i1
  br i1 %85, label %bb77, label %bb75

bb77:                                             ; preds = %bb76
  store i8 0, i8* %_99, align 1
  %86 = bitcast %"core::result::Result<core::option::Option<u8>, serde_json::error::Error>"* %_21 to %"core::result::Result<core::option::Option<u8>, serde_json::error::Error>::Err"*
  %87 = getelementptr inbounds %"core::result::Result<core::option::Option<u8>, serde_json::error::Error>::Err", %"core::result::Result<core::option::Option<u8>, serde_json::error::Error>::Err"* %86, i32 0, i32 1
; call core::ptr::real_drop_in_place
  call void @_ZN4core3ptr18real_drop_in_place17h94d8d2616b716ae2E(i64** align 8 dereferenceable(8) %87)
  br label %bb75

bb78:                                             ; preds = %bb22
; call core::ptr::real_drop_in_place
  call void @_ZN4core3ptr18real_drop_in_place17hbd244058d832624cE(%"core::result::Result<core::option::Option<u8>, serde_json::error::Error>"* align 8 dereferenceable(16) %_21)
  br label %bb75

bb79:                                             ; preds = %bb81, %bb80, %bb82
  store i8 0, i8* %_100, align 1
  br label %bb33

bb80:                                             ; preds = %bb40
  %88 = load i8, i8* %_100, align 1, !range !4
  %89 = trunc i8 %88 to i1
  br i1 %89, label %bb81, label %bb79

bb81:                                             ; preds = %bb80
  store i8 0, i8* %_100, align 1
  %90 = bitcast %"core::result::Result<u8, serde_json::error::Error>"* %_42 to %"core::result::Result<u8, serde_json::error::Error>::Err"*
  %91 = getelementptr inbounds %"core::result::Result<u8, serde_json::error::Error>::Err", %"core::result::Result<u8, serde_json::error::Error>::Err"* %90, i32 0, i32 1
; call core::ptr::real_drop_in_place
  call void @_ZN4core3ptr18real_drop_in_place17h94d8d2616b716ae2E(i64** align 8 dereferenceable(8) %91)
  br label %bb79

bb82:                                             ; preds = %bb40
; call core::ptr::real_drop_in_place
  call void @_ZN4core3ptr18real_drop_in_place17hda2544e7c0eb7314E(%"core::result::Result<u8, serde_json::error::Error>"* align 8 dereferenceable(16) %_42)
  br label %bb79

cleanup:                                          ; preds = %bb11, %bb13
  %92 = landingpad { i8*, i32 }
          cleanup
  %93 = extractvalue { i8*, i32 } %92, 0
  %94 = extractvalue { i8*, i32 } %92, 1
  %95 = getelementptr inbounds { i8*, i32 }, { i8*, i32 }* %1, i32 0, i32 0
  store i8* %93, i8** %95, align 8
  %96 = getelementptr inbounds { i8*, i32 }, { i8*, i32 }* %1, i32 0, i32 1
  store i32 %94, i32* %96, align 8
  br label %bb8

cleanup4:                                         ; preds = %bb63, %panic6, %panic5, %panic, %bb41
  %97 = landingpad { i8*, i32 }
          cleanup
  %98 = extractvalue { i8*, i32 } %97, 0
  %99 = extractvalue { i8*, i32 } %97, 1
  %100 = getelementptr inbounds { i8*, i32 }, { i8*, i32 }* %1, i32 0, i32 0
  store i8* %98, i8** %100, align 8
  %101 = getelementptr inbounds { i8*, i32 }, { i8*, i32 }* %1, i32 0, i32 1
  store i32 %99, i32* %101, align 8
  br label %bb39

panic:                                            ; preds = %bb50
; invoke core::panicking::panic
  invoke void @_ZN4core9panicking5panic17h4accb85f0b6300d8E([0 x i8]* noalias nonnull readonly align 1 bitcast ([31 x i8]* @str.0 to [0 x i8]*), i64 31, %"core::panic::Location"* noalias readonly align 8 dereferenceable(24) bitcast (<{ i8*, [16 x i8] }>* @1 to %"core::panic::Location"*))
          to label %unreachable unwind label %cleanup4

unreachable:                                      ; preds = %panic6, %panic5, %panic
  unreachable

panic5:                                           ; preds = %bb57
; invoke core::panicking::panic
  invoke void @_ZN4core9panicking5panic17h4accb85f0b6300d8E([0 x i8]* noalias nonnull readonly align 1 bitcast ([31 x i8]* @str.0 to [0 x i8]*), i64 31, %"core::panic::Location"* noalias readonly align 8 dereferenceable(24) bitcast (<{ i8*, [16 x i8] }>* @2 to %"core::panic::Location"*))
          to label %unreachable unwind label %cleanup4

panic6:                                           ; preds = %bb60
; invoke core::panicking::panic
  invoke void @_ZN4core9panicking5panic17h4accb85f0b6300d8E([0 x i8]* noalias nonnull readonly align 1 bitcast ([48 x i8]* @str.1 to [0 x i8]*), i64 48, %"core::panic::Location"* noalias readonly align 8 dereferenceable(24) bitcast (<{ i8*, [16 x i8] }>* @3 to %"core::panic::Location"*))
          to label %unreachable unwind label %cleanup4

cleanup7:                                         ; preds = %bb24
  %102 = landingpad { i8*, i32 }
          cleanup
  %103 = extractvalue { i8*, i32 } %102, 0
  %104 = extractvalue { i8*, i32 } %102, 1
  %105 = getelementptr inbounds { i8*, i32 }, { i8*, i32 }* %1, i32 0, i32 0
  store i8* %103, i8** %105, align 8
  %106 = getelementptr inbounds { i8*, i32 }, { i8*, i32 }* %1, i32 0, i32 1
  store i32 %104, i32* %106, align 8
  br label %bb21
}

; serde_json::de::Deserializer<R>::parse_any_number
; Function Attrs: uwtable
define internal void @"_ZN10serde_json2de21Deserializer$LT$R$GT$16parse_any_number17h6010bfa3b4b0ba4bE"(%"core::result::Result<serde_json::de::ParserNumber, serde_json::error::Error>"* noalias nocapture sret dereferenceable(24), %"serde_json::de::Deserializer<serde_json::read::StrRead>"* align 8 dereferenceable(56) %self, i1 zeroext %positive) unnamed_addr #1 {
start:
; call serde_json::de::Deserializer<R>::parse_integer
  call void @"_ZN10serde_json2de21Deserializer$LT$R$GT$13parse_integer17h63ff08302b0eeee7E"(%"core::result::Result<serde_json::de::ParserNumber, serde_json::error::Error>"* noalias nocapture sret dereferenceable(24) %0, %"serde_json::de::Deserializer<serde_json::read::StrRead>"* align 8 dereferenceable(56) %self, i1 zeroext %positive)
  br label %bb1

bb1:                                              ; preds = %start
  ret void
}

; serde_json::de::Deserializer<R>::parse_whitespace
; Function Attrs: uwtable
define internal void @"_ZN10serde_json2de21Deserializer$LT$R$GT$16parse_whitespace17h210e0df4acddc4daE"(%"core::result::Result<core::option::Option<u8>, serde_json::error::Error>"* noalias nocapture sret dereferenceable(16), %"serde_json::de::Deserializer<serde_json::read::StrRead>"* align 8 dereferenceable(56) %self) unnamed_addr #1 personality i32 (i32, i32, i64, %"unwind::libunwind::_Unwind_Exception"*, %"unwind::libunwind::_Unwind_Context"*)* @rust_eh_personality {
start:
  %1 = alloca { i8*, i32 }, align 8
  %_14 = alloca i8, align 1
  %_3 = alloca %"core::result::Result<core::option::Option<u8>, serde_json::error::Error>", align 8
  %_2 = alloca { i8, i8 }, align 1
  store i8 0, i8* %_14, align 1
  br label %bb1

bb1:                                              ; preds = %bb13, %start
  store i8 1, i8* %_14, align 1
; call serde_json::de::Deserializer<R>::peek
  call void @"_ZN10serde_json2de21Deserializer$LT$R$GT$4peek17heda9452678a2416aE"(%"core::result::Result<core::option::Option<u8>, serde_json::error::Error>"* noalias nocapture sret dereferenceable(16) %_3, %"serde_json::de::Deserializer<serde_json::read::StrRead>"* align 8 dereferenceable(56) %self)
  br label %bb3

bb2:                                              ; preds = %bb7
  %2 = bitcast { i8*, i32 }* %1 to i8**
  %3 = load i8*, i8** %2, align 8
  %4 = getelementptr inbounds { i8*, i32 }, { i8*, i32 }* %1, i32 0, i32 1
  %5 = load i32, i32* %4, align 8
  %6 = insertvalue { i8*, i32 } undef, i8* %3, 0
  %7 = insertvalue { i8*, i32 } %6, i32 %5, 1
  resume { i8*, i32 } %7

bb3:                                              ; preds = %bb1
  %8 = bitcast %"core::result::Result<core::option::Option<u8>, serde_json::error::Error>"* %_3 to i8*
  %9 = load i8, i8* %8, align 8, !range !4
  %10 = trunc i8 %9 to i1
  %_5 = zext i1 %10 to i64
  switch i64 %_5, label %bb4 [
    i64 0, label %bb5
    i64 1, label %bb6
  ]

bb4:                                              ; preds = %bb3
  unreachable

bb5:                                              ; preds = %bb3
  %11 = bitcast %"core::result::Result<core::option::Option<u8>, serde_json::error::Error>"* %_3 to %"core::result::Result<core::option::Option<u8>, serde_json::error::Error>::Ok"*
  %12 = getelementptr inbounds %"core::result::Result<core::option::Option<u8>, serde_json::error::Error>::Ok", %"core::result::Result<core::option::Option<u8>, serde_json::error::Error>::Ok"* %11, i32 0, i32 1
  %13 = getelementptr inbounds { i8, i8 }, { i8, i8 }* %12, i32 0, i32 0
  %14 = load i8, i8* %13, align 1, !range !4
  %val.0 = trunc i8 %14 to i1
  %15 = getelementptr inbounds { i8, i8 }, { i8, i8 }* %12, i32 0, i32 1
  %val.1 = load i8, i8* %15, align 1
  %16 = getelementptr inbounds { i8, i8 }, { i8, i8 }* %_2, i32 0, i32 0
  %17 = zext i1 %val.0 to i8
  store i8 %17, i8* %16, align 1
  %18 = getelementptr inbounds { i8, i8 }, { i8, i8 }* %_2, i32 0, i32 1
  store i8 %val.1, i8* %18, align 1
  %19 = bitcast { i8, i8 }* %_2 to i8*
  %20 = load i8, i8* %19, align 1, !range !4
  %21 = trunc i8 %20 to i1
  %_9 = zext i1 %21 to i64
  %22 = icmp eq i64 %_9, 1
  br i1 %22, label %bb9, label %bb12

bb6:                                              ; preds = %bb3
  store i8 0, i8* %_14, align 1
  %23 = bitcast %"core::result::Result<core::option::Option<u8>, serde_json::error::Error>"* %_3 to %"core::result::Result<core::option::Option<u8>, serde_json::error::Error>::Err"*
  %24 = getelementptr inbounds %"core::result::Result<core::option::Option<u8>, serde_json::error::Error>::Err", %"core::result::Result<core::option::Option<u8>, serde_json::error::Error>::Err"* %23, i32 0, i32 1
  %err = load i64*, i64** %24, align 8, !nonnull !2
  %25 = bitcast %"core::result::Result<core::option::Option<u8>, serde_json::error::Error>"* %0 to %"core::result::Result<core::option::Option<u8>, serde_json::error::Error>::Err"*
  %26 = getelementptr inbounds %"core::result::Result<core::option::Option<u8>, serde_json::error::Error>::Err", %"core::result::Result<core::option::Option<u8>, serde_json::error::Error>::Err"* %25, i32 0, i32 1
  store i64* %err, i64** %26, align 8
  %27 = bitcast %"core::result::Result<core::option::Option<u8>, serde_json::error::Error>"* %0 to i8*
  store i8 1, i8* %27, align 8
  br label %bb8

bb7:                                              ; preds = %cleanup
  store i8 0, i8* %_14, align 1
; call core::ptr::real_drop_in_place
  call void @_ZN4core3ptr18real_drop_in_place17hbd244058d832624cE(%"core::result::Result<core::option::Option<u8>, serde_json::error::Error>"* align 8 dereferenceable(16) %_3) #14
  br label %bb2

bb8:                                              ; preds = %bb12, %bb6
  %28 = bitcast %"core::result::Result<core::option::Option<u8>, serde_json::error::Error>"* %_3 to i8*
  %29 = load i8, i8* %28, align 8, !range !4
  %30 = trunc i8 %29 to i1
  %_15 = zext i1 %30 to i64
  %31 = icmp eq i64 %_15, 1
  br i1 %31, label %bb15, label %bb17

bb9:                                              ; preds = %bb5
  %32 = bitcast { i8, i8 }* %_2 to %"core::option::Option<u8>::Some"*
  %33 = getelementptr inbounds %"core::option::Option<u8>::Some", %"core::option::Option<u8>::Some"* %32, i32 0, i32 1
  %34 = load i8, i8* %33, align 1
  switch i8 %34, label %bb12 [
    i8 32, label %bb10
    i8 10, label %bb10
    i8 9, label %bb10
    i8 13, label %bb10
  ]

bb10:                                             ; preds = %bb9, %bb9, %bb9, %bb9
; invoke serde_json::de::Deserializer<R>::eat_char
  invoke void @"_ZN10serde_json2de21Deserializer$LT$R$GT$8eat_char17h27880c16013f818fE"(%"serde_json::de::Deserializer<serde_json::read::StrRead>"* align 8 dereferenceable(56) %self)
          to label %bb11 unwind label %cleanup

bb11:                                             ; preds = %bb10
  store i8 0, i8* %_14, align 1
; call core::ptr::real_drop_in_place
  call void @_ZN4core3ptr18real_drop_in_place17hbd244058d832624cE(%"core::result::Result<core::option::Option<u8>, serde_json::error::Error>"* align 8 dereferenceable(16) %_3)
  br label %bb13

bb12:                                             ; preds = %bb9, %bb5
  %35 = getelementptr inbounds { i8, i8 }, { i8, i8 }* %_2, i32 0, i32 0
  %36 = load i8, i8* %35, align 1, !range !4
  %other.0 = trunc i8 %36 to i1
  %37 = getelementptr inbounds { i8, i8 }, { i8, i8 }* %_2, i32 0, i32 1
  %other.1 = load i8, i8* %37, align 1
  %38 = bitcast %"core::result::Result<core::option::Option<u8>, serde_json::error::Error>"* %0 to %"core::result::Result<core::option::Option<u8>, serde_json::error::Error>::Ok"*
  %39 = getelementptr inbounds %"core::result::Result<core::option::Option<u8>, serde_json::error::Error>::Ok", %"core::result::Result<core::option::Option<u8>, serde_json::error::Error>::Ok"* %38, i32 0, i32 1
  %40 = getelementptr inbounds { i8, i8 }, { i8, i8 }* %39, i32 0, i32 0
  %41 = zext i1 %other.0 to i8
  store i8 %41, i8* %40, align 1
  %42 = getelementptr inbounds { i8, i8 }, { i8, i8 }* %39, i32 0, i32 1
  store i8 %other.1, i8* %42, align 1
  %43 = bitcast %"core::result::Result<core::option::Option<u8>, serde_json::error::Error>"* %0 to i8*
  store i8 0, i8* %43, align 8
  br label %bb8

bb13:                                             ; preds = %bb11
  store i8 0, i8* %_14, align 1
  br label %bb1

bb14:                                             ; preds = %bb16, %bb15, %bb17
  store i8 0, i8* %_14, align 1
  ret void

bb15:                                             ; preds = %bb8
  %44 = load i8, i8* %_14, align 1, !range !4
  %45 = trunc i8 %44 to i1
  br i1 %45, label %bb16, label %bb14

bb16:                                             ; preds = %bb15
  store i8 0, i8* %_14, align 1
  %46 = bitcast %"core::result::Result<core::option::Option<u8>, serde_json::error::Error>"* %_3 to %"core::result::Result<core::option::Option<u8>, serde_json::error::Error>::Err"*
  %47 = getelementptr inbounds %"core::result::Result<core::option::Option<u8>, serde_json::error::Error>::Err", %"core::result::Result<core::option::Option<u8>, serde_json::error::Error>::Err"* %46, i32 0, i32 1
; call core::ptr::real_drop_in_place
  call void @_ZN4core3ptr18real_drop_in_place17h94d8d2616b716ae2E(i64** align 8 dereferenceable(8) %47)
  br label %bb14

bb17:                                             ; preds = %bb8
; call core::ptr::real_drop_in_place
  call void @_ZN4core3ptr18real_drop_in_place17hbd244058d832624cE(%"core::result::Result<core::option::Option<u8>, serde_json::error::Error>"* align 8 dereferenceable(16) %_3)
  br label %bb14

cleanup:                                          ; preds = %bb10
  %48 = landingpad { i8*, i32 }
          cleanup
  %49 = extractvalue { i8*, i32 } %48, 0
  %50 = extractvalue { i8*, i32 } %48, 1
  %51 = getelementptr inbounds { i8*, i32 }, { i8*, i32 }* %1, i32 0, i32 0
  store i8* %49, i8** %51, align 8
  %52 = getelementptr inbounds { i8*, i32 }, { i8*, i32 }* %1, i32 0, i32 1
  store i32 %50, i32* %52, align 8
  br label %bb7
}

; serde_json::de::Deserializer<R>::parse_long_integer
; Function Attrs: uwtable
