	.section	__TEXT,__text,regular,pure_instructions
	.macosx_version_min 10, 7
	.p2align	4, 0x90
__ZN103_$LT$core..ops..range..RangeFrom$LT$usize$GT$$u20$as$u20$core..slice..SliceIndex$LT$$u5b$T$u5d$$GT$$GT$17get_unchecked_mut17hd64912864bd0a3f9E:
	.cfi_startproc
	pushq	%rbp
	.cfi_def_cfa_offset 16
	.cfi_offset %rbp, -16
	movq	%rsp, %rbp
	.cfi_def_cfa_register %rbp
	subq	$64, %rsp
	movq	%rdi, -24(%rbp)
	movq	%rsi, %rdi
	movq	%rsi, -32(%rbp)
	movq	%rdx, %rsi
	movq	%rdx, -40(%rbp)
	callq	__ZN4core5slice29_$LT$impl$u20$$u5b$T$u5d$$GT$3len17hc211230a7243c68bE
	movq	%rax, -48(%rbp)
	movq	-24(%rbp), %rax
	movq	%rax, -16(%rbp)
	movq	-48(%rbp), %rcx
	movq	%rcx, -8(%rbp)
	movq	-16(%rbp), %rdi
	movq	-8(%rbp), %rsi
	movq	-32(%rbp), %rdx
	movq	-40(%rbp), %rcx
	callq	__ZN99_$LT$core..ops..range..Range$LT$usize$GT$$u20$as$u20$core..slice..SliceIndex$LT$$u5b$T$u5d$$GT$$GT$17get_unchecked_mut17hdb909e221daffdcdE
	movq	%rax, -56(%rbp)
	movq	%rdx, -64(%rbp)
	movq	-56(%rbp), %rax
	movq	-64(%rbp), %rdx
	addq	$64, %rsp
	popq	%rbp
	retq
	.cfi_endproc

	.p2align	4, 0x90
__ZN109_$LT$alloc..vec..Vec$LT$T$GT$$u20$as$u20$alloc..vec..SpecExtend$LT$$RF$T$C$core..slice..Iter$LT$T$GT$$GT$$GT$11spec_extend17hc740559ffb375a4dE:
	.cfi_startproc
	pushq	%rbp
	.cfi_def_cfa_offset 16
	.cfi_offset %rbp, -16
	movq	%rsp, %rbp
	.cfi_def_cfa_register %rbp
	subq	$112, %rsp
	movq	%rsi, -24(%rbp)
	movq	%rdx, -16(%rbp)
	leaq	-24(%rbp), %rax
	movq	%rdi, -32(%rbp)
	movq	%rax, %rdi
	callq	__ZN4core5slice13Iter$LT$T$GT$8as_slice17h1eeb1dfd8e9033ecE
	movq	%rax, -40(%rbp)
	movq	%rdx, -48(%rbp)
	movq	-40(%rbp), %rdi
	movq	-48(%rbp), %rsi
	callq	__ZN4core5slice29_$LT$impl$u20$$u5b$T$u5d$$GT$3len17hc211230a7243c68bE
	movq	%rax, -56(%rbp)
	movq	-32(%rbp), %rdi
	movq	-56(%rbp), %rsi
	callq	__ZN5alloc3vec12Vec$LT$T$GT$7reserve17h5212ae0671e06415E
	movq	-32(%rbp), %rdi
	callq	__ZN5alloc3vec12Vec$LT$T$GT$3len17ha1386654566913eaE
	movq	%rax, -64(%rbp)
	movq	-40(%rbp), %rdi
	movq	-48(%rbp), %rsi
	callq	__ZN4core5slice29_$LT$impl$u20$$u5b$T$u5d$$GT$3len17hc211230a7243c68bE
	movq	%rax, -72(%rbp)
	movq	-64(%rbp), %rax
	movq	-72(%rbp), %rcx
	addq	%rcx, %rax
	movq	-32(%rbp), %rdi
	movq	%rax, %rsi
	callq	__ZN5alloc3vec12Vec$LT$T$GT$7set_len17hbfe99e7e439e91d5E
	movq	-32(%rbp), %rdi
	callq	__ZN71_$LT$alloc..vec..Vec$LT$T$GT$$u20$as$u20$core..ops..deref..DerefMut$GT$9deref_mut17h589a0160353ee4e0E
	movq	%rax, -80(%rbp)
	movq	%rdx, -88(%rbp)
	movq	-64(%rbp), %rax
	movq	%rax, -8(%rbp)
	movq	-8(%rbp), %rdx
	movq	-80(%rbp), %rdi
	movq	-88(%rbp), %rsi
	callq	__ZN4core5slice29_$LT$impl$u20$$u5b$T$u5d$$GT$17get_unchecked_mut17he3db8f7bb3638e38E
	movq	%rax, -96(%rbp)
	movq	%rdx, -104(%rbp)
	movq	-96(%rbp), %rdi
	movq	-104(%rbp), %rsi
	movq	-40(%rbp), %rdx
	movq	-48(%rbp), %rcx
	callq	__ZN4core5slice29_$LT$impl$u20$$u5b$T$u5d$$GT$15copy_from_slice17he89b076b9f180569E
	addq	$112, %rsp
	popq	%rbp
	retq
	.cfi_endproc

	.p2align	4, 0x90
__ZN10serde_json2de10from_trait17h3a15270127c36777E:
Lfunc_begin0:
	.cfi_startproc
	.cfi_personality 155, _rust_eh_personality
	.cfi_lsda 16, Lexception0
	pushq	%rbp
	.cfi_def_cfa_offset 16
	.cfi_offset %rbp, -16
	movq	%rsp, %rbp
	.cfi_def_cfa_register %rbp
	subq	$272, %rsp
	movq	%rdi, %rax
	movq	(%rsi), %rcx
	movq	%rcx, -184(%rbp)
	movq	8(%rsi), %rcx
	movq	%rcx, -176(%rbp)
	movq	16(%rsi), %rcx
	movq	%rcx, -168(%rbp)
	leaq	-240(%rbp), %rcx
	movq	%rdi, -248(%rbp)
	movq	%rcx, %rdi
	leaq	-184(%rbp), %rsi
	movq	%rax, -256(%rbp)
	callq	__ZN10serde_json2de21Deserializer$LT$R$GT$3new17h15325ca982be86c9E
	jmp	LBB2_2
LBB2_1:
	movq	-16(%rbp), %rdi
	callq	__Unwind_Resume
	ud2
LBB2_2:
Ltmp0:
	leaq	-128(%rbp), %rdi
	leaq	-240(%rbp), %rsi
	callq	__ZN10serde_json5value2de77_$LT$impl$u20$serde..de..Deserialize$u20$for$u20$serde_json..value..Value$GT$11deserialize17h6a070a70d67c12dbE
Ltmp1:
	jmp	LBB2_3
LBB2_3:
	movq	-128(%rbp), %rax
	testq	%rax, %rax
	je	LBB2_6
	jmp	LBB2_27
LBB2_27:
	jmp	LBB2_7
LBB2_4:
	leaq	-240(%rbp), %rdi
	callq	__ZN4core3ptr18real_drop_in_place17h6ab0cad95da20374E
	jmp	LBB2_1
	ud2
LBB2_6:
	movq	-120(%rbp), %rax
	movq	%rax, -88(%rbp)
	movq	-112(%rbp), %rax
	movq	%rax, -80(%rbp)
	movq	-104(%rbp), %rax
	movq	%rax, -72(%rbp)
	movq	-96(%rbp), %rax
	movq	%rax, -64(%rbp)
	movq	-88(%rbp), %rax
	movq	%rax, -160(%rbp)
	movq	-80(%rbp), %rax
	movq	%rax, -152(%rbp)
	movq	-72(%rbp), %rax
	movq	%rax, -144(%rbp)
	movq	-64(%rbp), %rax
	movq	%rax, -136(%rbp)
	cmpq	$0, -128(%rbp)
	je	LBB2_19
	jmp	LBB2_20
LBB2_7:
	movq	-120(%rbp), %rax
	movq	-248(%rbp), %rcx
	movq	%rax, 8(%rcx)
	movq	$1, (%rcx)
	cmpq	$0, -128(%rbp)
	je	LBB2_22
	jmp	LBB2_21
LBB2_8:
	movq	-256(%rbp), %rax
	addq	$272, %rsp
	popq	%rbp
	retq
LBB2_9:
	leaq	-240(%rbp), %rdi
	callq	__ZN4core3ptr18real_drop_in_place17h6ab0cad95da20374E
	jmp	LBB2_8
LBB2_11:
	leaq	-160(%rbp), %rdi
	callq	__ZN4core3ptr18real_drop_in_place17hf41454ab830ed941E
	jmp	LBB2_4
LBB2_12:
	movq	-264(%rbp), %rax
	movq	%rax, -56(%rbp)
	movq	-56(%rbp), %rcx
	testq	%rcx, %rcx
	setne	%dl
	movzbl	%dl, %esi
	movl	%esi, %ecx
	je	LBB2_14
	jmp	LBB2_28
LBB2_28:
	jmp	LBB2_15
	ud2
LBB2_14:
Ltmp13:
	leaq	-56(%rbp), %rdi
	callq	__ZN4core3ptr18real_drop_in_place17hfb44039b78fb0ea9E
Ltmp14:
	jmp	LBB2_17
LBB2_15:
	xorl	%eax, %eax
	movl	%eax, %ecx
	movq	-56(%rbp), %rdx
	movq	-248(%rbp), %rsi
	movq	%rdx, 8(%rsi)
	movq	$1, (%rsi)
	cmpq	$0, -56(%rbp)
	movl	$1, %edx
	cmovbeq	%rcx, %rdx
	cmpq	$1, %rdx
	je	LBB2_23
	jmp	LBB2_24
LBB2_16:
	jmp	LBB2_9
LBB2_17:
	movq	-160(%rbp), %rax
	movq	%rax, -48(%rbp)
	movq	-152(%rbp), %rax
	movq	%rax, -40(%rbp)
	movq	-144(%rbp), %rax
	movq	%rax, -32(%rbp)
	movq	-136(%rbp), %rax
	movq	%rax, -24(%rbp)
	movq	-48(%rbp), %rax
	movq	-248(%rbp), %rcx
	movq	%rax, 8(%rcx)
	movq	-40(%rbp), %rax
	movq	%rax, 16(%rcx)
	movq	-32(%rbp), %rax
	movq	%rax, 24(%rcx)
	movq	-24(%rbp), %rax
	movq	%rax, 32(%rcx)
	movq	$0, (%rcx)
	leaq	-240(%rbp), %rdi
	callq	__ZN4core3ptr18real_drop_in_place17h6ab0cad95da20374E
	jmp	LBB2_8
LBB2_19:
Ltmp6:
	leaq	-240(%rbp), %rdi
	callq	__ZN10serde_json2de21Deserializer$LT$R$GT$3end17hcbcbe374b4655a15E
Ltmp7:
	movq	%rax, -264(%rbp)
	jmp	LBB2_12
LBB2_20:
	leaq	-120(%rbp), %rdi
Ltmp4:
	callq	__ZN4core3ptr18real_drop_in_place17h94d8d2616b716ae2E
Ltmp5:
	jmp	LBB2_19
LBB2_21:
	jmp	LBB2_9
LBB2_22:
	leaq	-120(%rbp), %rdi
Ltmp2:
	callq	__ZN4core3ptr18real_drop_in_place17hf41454ab830ed941E
Ltmp3:
	jmp	LBB2_21
LBB2_23:
Ltmp10:
	leaq	-160(%rbp), %rdi
	callq	__ZN4core3ptr18real_drop_in_place17hf41454ab830ed941E
Ltmp11:
	jmp	LBB2_16
LBB2_24:
Ltmp8:
	leaq	-56(%rbp), %rdi
	callq	__ZN4core3ptr18real_drop_in_place17hfb44039b78fb0ea9E
Ltmp9:
	jmp	LBB2_23
LBB2_25:
Ltmp12:
	movq	%rax, -16(%rbp)
	movl	%edx, -8(%rbp)
	jmp	LBB2_4
LBB2_26:
Ltmp15:
	movq	%rax, -16(%rbp)
	movl	%edx, -8(%rbp)
	jmp	LBB2_11
Lfunc_end0:
	.cfi_endproc
	.section	__TEXT,__gcc_except_tab
	.p2align	2
GCC_except_table2:
Lexception0:
	.byte	255
	.byte	255
	.byte	1
	.uleb128 Lcst_end0-Lcst_begin0
Lcst_begin0:
	.uleb128 Lfunc_begin0-Lfunc_begin0
	.uleb128 Ltmp0-Lfunc_begin0
	.byte	0
	.byte	0
	.uleb128 Ltmp0-Lfunc_begin0
	.uleb128 Ltmp1-Ltmp0
	.uleb128 Ltmp12-Lfunc_begin0
	.byte	0
	.uleb128 Ltmp1-Lfunc_begin0
	.uleb128 Ltmp13-Ltmp1
	.byte	0
	.byte	0
	.uleb128 Ltmp13-Lfunc_begin0
	.uleb128 Ltmp14-Ltmp13
	.uleb128 Ltmp15-Lfunc_begin0
	.byte	0
	.uleb128 Ltmp14-Lfunc_begin0
	.uleb128 Ltmp6-Ltmp14
	.byte	0
	.byte	0
	.uleb128 Ltmp6-Lfunc_begin0
	.uleb128 Ltmp5-Ltmp6
	.uleb128 Ltmp15-Lfunc_begin0
	.byte	0
	.uleb128 Ltmp2-Lfunc_begin0
	.uleb128 Ltmp11-Ltmp2
	.uleb128 Ltmp12-Lfunc_begin0
	.byte	0
	.uleb128 Ltmp8-Lfunc_begin0
	.uleb128 Ltmp9-Ltmp8
	.uleb128 Ltmp15-Lfunc_begin0
	.byte	0
Lcst_end0:
	.p2align	2

	.section	__TEXT,__text,regular,pure_instructions
	.p2align	4, 0x90
__ZN10serde_json2de12ParserNumber5visit17h8ecc1c455e59bd2dE:
	.cfi_startproc
	pushq	%rbp
	.cfi_def_cfa_offset 16
	.cfi_offset %rbp, -16
	movq	%rsp, %rbp
	.cfi_def_cfa_register %rbp
	subq	$32, %rsp
	movq	%rdi, %rax
	movq	(%rsi), %rcx
	testq	%rcx, %rcx
	movq	%rsi, -8(%rbp)
	movq	%rdi, -16(%rbp)
	movq	%rax, -24(%rbp)
	movq	%rcx, -32(%rbp)
	je	LBB3_2
	jmp	LBB3_9
LBB3_9:
	movq	-32(%rbp), %rax
	subq	$1, %rax
	je	LBB3_4
	jmp	LBB3_10
LBB3_10:
	jmp	LBB3_6
	ud2
LBB3_2:
	movq	-8(%rbp), %rax
	movsd	8(%rax), %xmm0
	movq	-16(%rbp), %rdi
	callq	__ZN165_$LT$serde_json..value..de..$LT$impl$u20$serde..de..Deserialize$u20$for$u20$serde_json..value..Value$GT$..deserialize..ValueVisitor$u20$as$u20$serde..de..Visitor$GT$9visit_f6417h5653e63d5c357d8aE
	jmp	LBB3_8
LBB3_4:
	movq	-8(%rbp), %rax
	movq	8(%rax), %rsi
	movq	-16(%rbp), %rdi
	callq	__ZN165_$LT$serde_json..value..de..$LT$impl$u20$serde..de..Deserialize$u20$for$u20$serde_json..value..Value$GT$..deserialize..ValueVisitor$u20$as$u20$serde..de..Visitor$GT$9visit_u6417hbe2bc3a34e0cab04E
	jmp	LBB3_8
LBB3_6:
	movq	-8(%rbp), %rax
	movq	8(%rax), %rsi
	movq	-16(%rbp), %rdi
	callq	__ZN165_$LT$serde_json..value..de..$LT$impl$u20$serde..de..Deserialize$u20$for$u20$serde_json..value..Value$GT$..deserialize..ValueVisitor$u20$as$u20$serde..de..Visitor$GT$9visit_i6417h9ce7ec6c7da90479E
	jmp	LBB3_8
LBB3_8:
	movq	-24(%rbp), %rax
	addq	$32, %rsp
	popq	%rbp
	retq
	.cfi_endproc

	.p2align	4, 0x90
__ZN10serde_json2de18MapAccess$LT$R$GT$3new17h84746e6730a85f4eE:
	.cfi_startproc
	pushq	%rbp
	.cfi_def_cfa_offset 16
	.cfi_offset %rbp, -16
	movq	%rsp, %rbp
	.cfi_def_cfa_register %rbp
	subq	$16, %rsp
	movq	%rdi, -16(%rbp)
	movb	$1, -8(%rbp)
	movq	-16(%rbp), %rax
	movb	-8(%rbp), %dl
	addq	$16, %rsp
	popq	%rbp
	retq
	.cfi_endproc

	.p2align	4, 0x90
__ZN10serde_json2de18SeqAccess$LT$R$GT$3new17hb6bd22e213983f12E:
	.cfi_startproc
	pushq	%rbp
	.cfi_def_cfa_offset 16
	.cfi_offset %rbp, -16
	movq	%rsp, %rbp
	.cfi_def_cfa_register %rbp
	subq	$16, %rsp
	movq	%rdi, -16(%rbp)
	movb	$1, -8(%rbp)
	movq	-16(%rbp), %rax
	movb	-8(%rbp), %dl
	addq	$16, %rsp
	popq	%rbp
	retq
	.cfi_endproc

	.p2align	4, 0x90
__ZN10serde_json2de21Deserializer$LT$R$GT$10peek_error17hc91437f5405786d2E:
Lfunc_begin1:
	.cfi_startproc
	.cfi_personality 155, _rust_eh_personality
	.cfi_lsda 16, Lexception1
	pushq	%rbp
	.cfi_def_cfa_offset 16
	.cfi_offset %rbp, -16
	movq	%rsp, %rbp
	.cfi_def_cfa_register %rbp
	subq	$96, %rsp
	movq	%rdi, -56(%rbp)
	movb	$0, -17(%rbp)
	movb	$1, -17(%rbp)
	movq	-56(%rbp), %rdi
Ltmp16:
	movq	%rsi, -64(%rbp)
	callq	__ZN68_$LT$serde_json..read..StrRead$u20$as$u20$serde_json..read..Read$GT$13peek_position17hedd027b1449046ecE
Ltmp17:
	movq	%rdx, -72(%rbp)
	movq	%rax, -80(%rbp)
	jmp	LBB6_2
LBB6_1:
	movq	-16(%rbp), %rdi
	callq	__Unwind_Resume
	ud2
LBB6_2:
	movb	$0, -17(%rbp)
	movq	-64(%rbp), %rax
	movq	16(%rax), %rcx
	movq	%rcx, -32(%rbp)
	movq	(%rax), %rcx
	movq	8(%rax), %rdx
	movq	%rdx, -40(%rbp)
	movq	%rcx, -48(%rbp)
Ltmp18:
	leaq	-48(%rbp), %rdi
	movq	-80(%rbp), %rsi
	movq	-72(%rbp), %rdx
	callq	__ZN10serde_json5error5Error6syntax17h5970e7652e1e592cE
Ltmp19:
	movq	%rax, -88(%rbp)
	jmp	LBB6_3
LBB6_3:
	movq	-88(%rbp), %rax
	addq	$96, %rsp
	popq	%rbp
	retq
LBB6_4:
	movb	$0, -17(%rbp)
	movq	-64(%rbp), %rdi
	callq	__ZN4core3ptr18real_drop_in_place17h61d59176afeb8a22E
	jmp	LBB6_1
LBB6_5:
	testb	$1, -17(%rbp)
	jne	LBB6_4
	jmp	LBB6_1
LBB6_6:
Ltmp20:
	movq	%rax, -16(%rbp)
	movl	%edx, -8(%rbp)
	jmp	LBB6_5
Lfunc_end1:
	.cfi_endproc
	.section	__TEXT,__gcc_except_tab
	.p2align	2
GCC_except_table6:
Lexception1:
	.byte	255
	.byte	255
	.byte	1
	.uleb128 Lcst_end1-Lcst_begin1
Lcst_begin1:
	.uleb128 Ltmp16-Lfunc_begin1
	.uleb128 Ltmp17-Ltmp16
	.uleb128 Ltmp20-Lfunc_begin1
	.byte	0
	.uleb128 Ltmp17-Lfunc_begin1
	.uleb128 Ltmp18-Ltmp17
	.byte	0
	.byte	0
	.uleb128 Ltmp18-Lfunc_begin1
	.uleb128 Ltmp19-Ltmp18
	.uleb128 Ltmp20-Lfunc_begin1
	.byte	0
	.uleb128 Ltmp19-Lfunc_begin1
	.uleb128 Lfunc_end1-Ltmp19
	.byte	0
	.byte	0
Lcst_end1:
	.p2align	2

	.section	__TEXT,__text,regular,pure_instructions
	.p2align	4, 0x90
__ZN10serde_json2de21Deserializer$LT$R$GT$11parse_ident17h302880db207ea2acE:
Lfunc_begin2:
	.cfi_startproc
	.cfi_personality 155, _rust_eh_personality
	.cfi_lsda 16, Lexception2
	pushq	%rbp
	.cfi_def_cfa_offset 16
	.cfi_offset %rbp, -16
	movq	%rsp, %rbp
	.cfi_def_cfa_register %rbp
	subq	$176, %rsp
	movb	$0, -17(%rbp)
	movq	%rdi, -136(%rbp)
	movq	%rsi, %rdi
	movq	%rdx, %rsi
	callq	__ZN4core5slice87_$LT$impl$u20$core..iter..traits..collect..IntoIterator$u20$for$u20$$RF$$u5b$T$u5d$$GT$9into_iter17h62294fff6c0bee53E
	movq	%rax, -144(%rbp)
	movq	%rdx, -152(%rbp)
	jmp	LBB7_2
LBB7_1:
	movq	-16(%rbp), %rdi
	callq	__Unwind_Resume
	ud2
LBB7_2:
	movq	-144(%rbp), %rax
	movq	%rax, -120(%rbp)
	movq	-152(%rbp), %rcx
	movq	%rcx, -112(%rbp)
LBB7_3:
	leaq	-120(%rbp), %rdi
	callq	__ZN85_$LT$core..slice..Iter$LT$T$GT$$u20$as$u20$core..iter..traits..iterator..Iterator$GT$4next17h3a5f1015b75355f6E
	movq	%rax, -104(%rbp)
	movq	-104(%rbp), %rax
	testq	%rax, %rax
	setne	%cl
	movzbl	%cl, %edx
	movl	%edx, %eax
	je	LBB7_5
	jmp	LBB7_28
LBB7_28:
	jmp	LBB7_7
LBB7_5:
	movq	$0, -128(%rbp)
	jmp	LBB7_12
	ud2
LBB7_7:
	movq	-104(%rbp), %rax
	movb	$1, -17(%rbp)
	leaq	-88(%rbp), %rdi
	movq	-136(%rbp), %rsi
	movq	%rax, -160(%rbp)
	callq	__ZN10serde_json2de21Deserializer$LT$R$GT$9next_char17h0e00787cc80c5e1eE
	movzbl	-88(%rbp), %eax
	movl	%eax, %ecx
	testb	$1, %cl
	je	LBB7_10
	jmp	LBB7_29
LBB7_29:
	jmp	LBB7_11
	ud2
LBB7_10:
	movb	-87(%rbp), %al
	movb	-86(%rbp), %cl
	movb	%al, -96(%rbp)
	movb	%cl, -95(%rbp)
	movzbl	-96(%rbp), %edx
	movl	%edx, %esi
	testb	$1, %sil
	je	LBB7_16
	jmp	LBB7_30
LBB7_30:
	jmp	LBB7_18
LBB7_11:
	movb	$0, -17(%rbp)
	movq	-80(%rbp), %rax
	movq	%rax, -128(%rbp)
	jmp	LBB7_14
LBB7_12:
	movq	-128(%rbp), %rax
	addq	$176, %rsp
	popq	%rbp
	retq
LBB7_13:
	movb	$0, -17(%rbp)
	leaq	-88(%rbp), %rdi
	callq	__ZN4core3ptr18real_drop_in_place17hbd244058d832624cE
	jmp	LBB7_1
LBB7_14:
	movb	-88(%rbp), %al
	andb	$1, %al
	movzbl	%al, %ecx
	movl	%ecx, %edx
	cmpq	$1, %rdx
	je	LBB7_24
	jmp	LBB7_26
	ud2
LBB7_16:
	movq	$5, -72(%rbp)
Ltmp23:
	leaq	-72(%rbp), %rsi
	movq	-136(%rbp), %rdi
	callq	__ZN10serde_json2de21Deserializer$LT$R$GT$5error17h608cc2aecfbde555E
Ltmp24:
	movq	%rax, -168(%rbp)
	jmp	LBB7_17
LBB7_17:
	movq	-168(%rbp), %rax
	movq	%rax, -128(%rbp)
	jmp	LBB7_14
LBB7_18:
	movb	-95(%rbp), %al
	movq	-160(%rbp), %rcx
	cmpb	(%rcx), %al
	jne	LBB7_20
	movb	$0, -17(%rbp)
	leaq	-88(%rbp), %rdi
	callq	__ZN4core3ptr18real_drop_in_place17hbd244058d832624cE
	jmp	LBB7_22
LBB7_20:
	movq	$10, -48(%rbp)
Ltmp21:
	leaq	-48(%rbp), %rsi
	movq	-136(%rbp), %rdi
	callq	__ZN10serde_json2de21Deserializer$LT$R$GT$5error17h608cc2aecfbde555E
Ltmp22:
	movq	%rax, -176(%rbp)
	jmp	LBB7_21
LBB7_21:
	movq	-176(%rbp), %rax
	movq	%rax, -128(%rbp)
	jmp	LBB7_14
LBB7_22:
	movb	$0, -17(%rbp)
	jmp	LBB7_3
LBB7_23:
	movb	$0, -17(%rbp)
	jmp	LBB7_12
LBB7_24:
	testb	$1, -17(%rbp)
	je	LBB7_23
	movb	$0, -17(%rbp)
	leaq	-88(%rbp), %rax
	addq	$8, %rax
	movq	%rax, %rdi
	callq	__ZN4core3ptr18real_drop_in_place17h94d8d2616b716ae2E
	jmp	LBB7_23
LBB7_26:
	leaq	-88(%rbp), %rdi
	callq	__ZN4core3ptr18real_drop_in_place17hbd244058d832624cE
	jmp	LBB7_23
LBB7_27:
Ltmp25:
	movq	%rax, -16(%rbp)
	movl	%edx, -8(%rbp)
	jmp	LBB7_13
Lfunc_end2:
	.cfi_endproc
	.section	__TEXT,__gcc_except_tab
	.p2align	2
GCC_except_table7:
Lexception2:
	.byte	255
	.byte	255
	.byte	1
	.uleb128 Lcst_end2-Lcst_begin2
Lcst_begin2:
	.uleb128 Lfunc_begin2-Lfunc_begin2
	.uleb128 Ltmp23-Lfunc_begin2
	.byte	0
	.byte	0
	.uleb128 Ltmp23-Lfunc_begin2
	.uleb128 Ltmp24-Ltmp23
	.uleb128 Ltmp25-Lfunc_begin2
	.byte	0
	.uleb128 Ltmp24-Lfunc_begin2
	.uleb128 Ltmp21-Ltmp24
	.byte	0
	.byte	0
	.uleb128 Ltmp21-Lfunc_begin2
	.uleb128 Ltmp22-Ltmp21
	.uleb128 Ltmp25-Lfunc_begin2
	.byte	0
	.uleb128 Ltmp22-Lfunc_begin2
	.uleb128 Lfunc_end2-Ltmp22
	.byte	0
	.byte	0
Lcst_end2:
	.p2align	2

	.section	__TEXT,__text,regular,pure_instructions
	.p2align	4, 0x90
__ZN10serde_json2de21Deserializer$LT$R$GT$12fix_position17ha0ac31358975066aE:
	.cfi_startproc
	pushq	%rbp
	.cfi_def_cfa_offset 16
	.cfi_offset %rbp, -16
	movq	%rsp, %rbp
	.cfi_def_cfa_register %rbp
	subq	$16, %rsp
	movq	%rdi, -8(%rbp)
	movq	-8(%rbp), %rax
	movq	%rsi, %rdi
	movq	%rax, %rsi
	callq	__ZN10serde_json5error5Error12fix_position17hccdd20e0785ef7c1E
	movq	%rax, -16(%rbp)
	movq	-16(%rbp), %rax
	addq	$16, %rsp
	popq	%rbp
	retq
	.cfi_endproc

	.p2align	4, 0x90
__ZN10serde_json2de21Deserializer$LT$R$GT$12fix_position28_$u7b$$u7b$closure$u7d$$u7d$17h2452be0badd59b4fE:
	.cfi_startproc
	pushq	%rbp
	.cfi_def_cfa_offset 16
	.cfi_offset %rbp, -16
	movq	%rsp, %rbp
	.cfi_def_cfa_register %rbp
	subq	$32, %rsp
	movq	(%rsi), %rax
	movq	%rax, -24(%rbp)
	movq	8(%rsi), %rax
	movq	%rax, -16(%rbp)
	movq	16(%rsi), %rax
	movq	%rax, -8(%rbp)
	leaq	-24(%rbp), %rsi
	callq	__ZN10serde_json2de21Deserializer$LT$R$GT$5error17h608cc2aecfbde555E
	movq	%rax, -32(%rbp)
	movq	-32(%rbp), %rax
	addq	$32, %rsp
	popq	%rbp
	retq
	.cfi_endproc

	.section	__TEXT,__literal16,16byte_literals
	.p2align	4
LCPI10_0:
	.long	1127219200
	.long	1160773632
	.long	0
	.long	0
LCPI10_1:
	.quad	4841369599423283200
	.quad	4985484787499139072
	.section	__TEXT,__text,regular,pure_instructions
	.p2align	4, 0x90
__ZN10serde_json2de21Deserializer$LT$R$GT$12parse_number17h431239a50d116072E:
Lfunc_begin3:
	.cfi_startproc
	.cfi_personality 155, _rust_eh_personality
	.cfi_lsda 16, Lexception3
	pushq	%rbp
	.cfi_def_cfa_offset 16
	.cfi_offset %rbp, -16
	movq	%rsp, %rbp
	.cfi_def_cfa_register %rbp
	subq	$144, %rsp
	movq	%rdi, %rax
	movb	$0, -17(%rbp)
	movb	$1, -17(%rbp)
	leaq	-72(%rbp), %r8
	movq	%rdi, -96(%rbp)
	movq	%r8, %rdi
	movq	%rsi, -104(%rbp)
	movq	%rcx, -112(%rbp)
	movb	%dl, -113(%rbp)
	movq	%rax, -128(%rbp)
	callq	__ZN10serde_json2de21Deserializer$LT$R$GT$12peek_or_null17hb35dfed309bd4e58E
	jmp	LBB10_2
LBB10_1:
	movq	-16(%rbp), %rdi
	callq	__Unwind_Resume
	ud2
LBB10_2:
	movzbl	-72(%rbp), %eax
	movl	%eax, %ecx
	testb	$1, %cl
	je	LBB10_4
	jmp	LBB10_40
LBB10_40:
	jmp	LBB10_5
	ud2
LBB10_4:
	movb	-71(%rbp), %al
	movb	%al, %cl
	subb	$46, %cl
	movb	%al, -129(%rbp)
	je	LBB10_10
	jmp	LBB10_41
LBB10_41:
	movb	-129(%rbp), %al
	subb	$69, %al
	je	LBB10_16
	jmp	LBB10_42
LBB10_42:
	movb	-129(%rbp), %al
	subb	$101, %al
	je	LBB10_16
	jmp	LBB10_9
LBB10_5:
	movb	$0, -17(%rbp)
	movq	-64(%rbp), %rax
	movq	-96(%rbp), %rcx
	movq	%rax, 8(%rcx)
	movq	$1, (%rcx)
	jmp	LBB10_8
LBB10_6:
	movq	-128(%rbp), %rax
	addq	$144, %rsp
	popq	%rbp
	retq
LBB10_7:
	movb	$0, -17(%rbp)
	leaq	-72(%rbp), %rdi
	callq	__ZN4core3ptr18real_drop_in_place17hda2544e7c0eb7314E
	jmp	LBB10_1
LBB10_8:
	movb	-72(%rbp), %al
	andb	$1, %al
	movzbl	%al, %ecx
	movl	%ecx, %edx
	cmpq	$1, %rdx
	je	LBB10_32
	jmp	LBB10_34
LBB10_9:
	movb	-113(%rbp), %al
	testb	$1, %al
	jne	LBB10_23
	jmp	LBB10_22
LBB10_10:
Ltmp32:
	movb	-113(%rbp), %al
	movzbl	%al, %ecx
	andl	$1, %ecx
	leaq	-56(%rbp), %rdi
	xorl	%r8d, %r8d
	movq	-104(%rbp), %rsi
	movl	%ecx, %edx
	movq	-112(%rbp), %rcx
	callq	__ZN10serde_json2de21Deserializer$LT$R$GT$13parse_decimal17habee609a866cc241E
Ltmp33:
	jmp	LBB10_11
LBB10_11:
	movq	-56(%rbp), %rax
	testq	%rax, %rax
	je	LBB10_13
	jmp	LBB10_44
LBB10_44:
	jmp	LBB10_14
	ud2
LBB10_13:
	movsd	-48(%rbp), %xmm0
	movsd	%xmm0, -80(%rbp)
	movq	$0, -88(%rbp)
Ltmp36:
	leaq	-56(%rbp), %rdi
	callq	__ZN4core3ptr18real_drop_in_place17h164d76c7649c96aaE
Ltmp37:
	jmp	LBB10_15
LBB10_14:
	movq	-48(%rbp), %rax
	movq	-96(%rbp), %rcx
	movq	%rax, 8(%rcx)
	movq	$1, (%rcx)
	cmpq	$1, -56(%rbp)
	je	LBB10_35
	jmp	LBB10_36
LBB10_15:
	jmp	LBB10_29
LBB10_16:
Ltmp26:
	movb	-113(%rbp), %al
	movzbl	%al, %ecx
	andl	$1, %ecx
	leaq	-40(%rbp), %rdi
	xorl	%r8d, %r8d
	movq	-104(%rbp), %rsi
	movl	%ecx, %edx
	movq	-112(%rbp), %rcx
	callq	__ZN10serde_json2de21Deserializer$LT$R$GT$14parse_exponent17h88fb6703e140e55bE
Ltmp27:
	jmp	LBB10_17
LBB10_17:
	movq	-40(%rbp), %rax
	testq	%rax, %rax
	je	LBB10_19
	jmp	LBB10_43
LBB10_43:
	jmp	LBB10_20
	ud2
LBB10_19:
	movsd	-32(%rbp), %xmm0
	movsd	%xmm0, -80(%rbp)
	movq	$0, -88(%rbp)
Ltmp30:
	leaq	-40(%rbp), %rdi
	callq	__ZN4core3ptr18real_drop_in_place17h164d76c7649c96aaE
Ltmp31:
	jmp	LBB10_21
LBB10_20:
	movq	-32(%rbp), %rax
	movq	-96(%rbp), %rcx
	movq	%rax, 8(%rcx)
	movq	$1, (%rcx)
	cmpq	$1, -40(%rbp)
	je	LBB10_37
	jmp	LBB10_38
LBB10_21:
	jmp	LBB10_29
LBB10_22:
Ltmp38:
	movq	-112(%rbp), %rdi
	callq	__ZN4core3num21_$LT$impl$u20$i64$GT$12wrapping_neg17h28bb4a02d4eb7217E
Ltmp39:
	movq	%rax, -144(%rbp)
	jmp	LBB10_24
LBB10_23:
	movq	-112(%rbp), %rax
	movq	%rax, -80(%rbp)
	movq	$1, -88(%rbp)
	jmp	LBB10_28
LBB10_24:
	movq	-144(%rbp), %rax
	cmpq	$0, %rax
	jg	LBB10_26
	movq	-144(%rbp), %rax
	movq	%rax, -80(%rbp)
	movq	$2, -88(%rbp)
	jmp	LBB10_27
LBB10_26:
	movq	-112(%rbp), %rax
	movq	%rax, %xmm0
	movaps	LCPI10_0(%rip), %xmm1
	punpckldq	%xmm1, %xmm0
	movapd	LCPI10_1(%rip), %xmm1
	subpd	%xmm1, %xmm0
	haddpd	%xmm0, %xmm0
	movq	%xmm0, %rcx
	movabsq	$-9223372036854775808, %rdx
	xorq	%rdx, %rcx
	movq	%rcx, %xmm0
	movsd	%xmm0, -80(%rbp)
	movq	$0, -88(%rbp)
LBB10_27:
	jmp	LBB10_28
LBB10_28:
	jmp	LBB10_29
LBB10_29:
	movq	-88(%rbp), %rax
	movq	-96(%rbp), %rcx
	movq	%rax, 8(%rcx)
	movq	-80(%rbp), %rax
	movq	%rax, 16(%rcx)
	movq	$0, (%rcx)
	movb	$0, -17(%rbp)
	leaq	-72(%rbp), %rdi
	callq	__ZN4core3ptr18real_drop_in_place17hda2544e7c0eb7314E
	movb	$0, -17(%rbp)
	jmp	LBB10_6
LBB10_31:
	movb	$0, -17(%rbp)
	jmp	LBB10_6
LBB10_32:
	testb	$1, -17(%rbp)
	je	LBB10_31
	movb	$0, -17(%rbp)
	leaq	-72(%rbp), %rax
	addq	$8, %rax
	movq	%rax, %rdi
	callq	__ZN4core3ptr18real_drop_in_place17h94d8d2616b716ae2E
	jmp	LBB10_31
LBB10_34:
	leaq	-72(%rbp), %rdi
	callq	__ZN4core3ptr18real_drop_in_place17hda2544e7c0eb7314E
	jmp	LBB10_31
LBB10_35:
	jmp	LBB10_8
LBB10_36:
Ltmp34:
	leaq	-56(%rbp), %rdi
	callq	__ZN4core3ptr18real_drop_in_place17h164d76c7649c96aaE
Ltmp35:
	jmp	LBB10_35
LBB10_37:
	jmp	LBB10_8
LBB10_38:
Ltmp28:
	leaq	-40(%rbp), %rdi
	callq	__ZN4core3ptr18real_drop_in_place17h164d76c7649c96aaE
Ltmp29:
	jmp	LBB10_37
LBB10_39:
Ltmp40:
	movq	%rax, -16(%rbp)
	movl	%edx, -8(%rbp)
	jmp	LBB10_7
Lfunc_end3:
	.cfi_endproc
	.section	__TEXT,__gcc_except_tab
	.p2align	2
GCC_except_table10:
Lexception3:
	.byte	255
	.byte	255
	.byte	1
	.uleb128 Lcst_end3-Lcst_begin3
Lcst_begin3:
	.uleb128 Lfunc_begin3-Lfunc_begin3
	.uleb128 Ltmp32-Lfunc_begin3
	.byte	0
	.byte	0
	.uleb128 Ltmp32-Lfunc_begin3
	.uleb128 Ltmp39-Ltmp32
	.uleb128 Ltmp40-Lfunc_begin3
	.byte	0
	.uleb128 Ltmp39-Lfunc_begin3
	.uleb128 Ltmp34-Ltmp39
	.byte	0
	.byte	0
	.uleb128 Ltmp34-Lfunc_begin3
	.uleb128 Ltmp29-Ltmp34
	.uleb128 Ltmp40-Lfunc_begin3
	.byte	0
Lcst_end3:
	.p2align	2

	.section	__TEXT,__text,regular,pure_instructions
	.p2align	4, 0x90
__ZN10serde_json2de21Deserializer$LT$R$GT$12peek_or_null17hb35dfed309bd4e58E:
Lfunc_begin4:
	.cfi_startproc
	.cfi_personality 155, _rust_eh_personality
	.cfi_lsda 16, Lexception4
	pushq	%rbp
	.cfi_def_cfa_offset 16
	.cfi_offset %rbp, -16
	movq	%rsp, %rbp
	.cfi_def_cfa_register %rbp
	subq	$64, %rsp
	movq	%rdi, %rax
	leaq	-32(%rbp), %rcx
	movq	%rdi, -40(%rbp)
	movq	%rcx, %rdi
	movq	%rax, -48(%rbp)
	callq	__ZN10serde_json2de21Deserializer$LT$R$GT$4peek17heda9452678a2416aE
	jmp	LBB11_2
LBB11_1:
	movq	-16(%rbp), %rdi
	callq	__Unwind_Resume
	ud2
LBB11_2:
	movzbl	-32(%rbp), %eax
	movl	%eax, %ecx
	testb	$1, %cl
	je	LBB11_4
	jmp	LBB11_13
LBB11_13:
	jmp	LBB11_5
	ud2
LBB11_4:
	movzbl	-31(%rbp), %edi
	movzbl	-30(%rbp), %esi
Ltmp41:
	xorl	%edx, %edx
	callq	__ZN4core6option15Option$LT$T$GT$9unwrap_or17hd64941d0494c1e05E
Ltmp42:
	movb	%al, -49(%rbp)
	jmp	LBB11_8
LBB11_5:
	movq	-24(%rbp), %rax
	movq	-40(%rbp), %rcx
	movq	%rax, 8(%rcx)
	movb	$1, (%rcx)
	movb	-32(%rbp), %dl
	andb	$1, %dl
	movzbl	%dl, %esi
	movl	%esi, %eax
	cmpq	$1, %rax
	je	LBB11_10
	jmp	LBB11_11
LBB11_6:
	movq	-48(%rbp), %rax
	addq	$64, %rsp
	popq	%rbp
	retq
LBB11_7:
	leaq	-32(%rbp), %rdi
	callq	__ZN4core3ptr18real_drop_in_place17hbd244058d832624cE
	jmp	LBB11_1
LBB11_8:
	movq	-40(%rbp), %rax
	movb	-49(%rbp), %cl
	movb	%cl, 1(%rax)
	movb	$0, (%rax)
	leaq	-32(%rbp), %rdi
	callq	__ZN4core3ptr18real_drop_in_place17hbd244058d832624cE
	jmp	LBB11_6
LBB11_10:
	jmp	LBB11_6
LBB11_11:
	leaq	-32(%rbp), %rdi
	callq	__ZN4core3ptr18real_drop_in_place17hbd244058d832624cE
	jmp	LBB11_10
LBB11_12:
Ltmp43:
	movq	%rax, -16(%rbp)
	movl	%edx, -8(%rbp)
	jmp	LBB11_7
Lfunc_end4:
	.cfi_endproc
	.section	__TEXT,__gcc_except_tab
	.p2align	2
GCC_except_table11:
Lexception4:
	.byte	255
	.byte	255
	.byte	1
	.uleb128 Lcst_end4-Lcst_begin4
Lcst_begin4:
	.uleb128 Lfunc_begin4-Lfunc_begin4
	.uleb128 Ltmp41-Lfunc_begin4
	.byte	0
	.byte	0
	.uleb128 Ltmp41-Lfunc_begin4
	.uleb128 Ltmp42-Ltmp41
	.uleb128 Ltmp43-Lfunc_begin4
	.byte	0
	.uleb128 Ltmp42-Lfunc_begin4
	.uleb128 Lfunc_end4-Ltmp42
	.byte	0
	.byte	0
Lcst_end4:
	.p2align	2

	.section	__TEXT,__text,regular,pure_instructions
	.p2align	4, 0x90
__ZN10serde_json2de21Deserializer$LT$R$GT$13parse_decimal17habee609a866cc241E:
Lfunc_begin5:
	.cfi_startproc
	.cfi_personality 155, _rust_eh_personality
	.cfi_lsda 16, Lexception5
	pushq	%rbp
	.cfi_def_cfa_offset 16
	.cfi_offset %rbp, -16
	movq	%rsp, %rbp
	.cfi_def_cfa_register %rbp
	subq	$256, %rsp
	movq	%rdi, %rax
	movq	%rcx, -168(%rbp)
	movl	%r8d, -160(%rbp)
	movb	$0, -18(%rbp)
	movb	$0, -17(%rbp)
	movq	%rdi, -176(%rbp)
	movq	%rsi, %rdi
	movq	%rsi, -184(%rbp)
	movb	%dl, -185(%rbp)
	movq	%rax, -200(%rbp)
	callq	__ZN10serde_json2de21Deserializer$LT$R$GT$8eat_char17h27880c16013f818fE
	jmp	LBB12_2
LBB12_1:
	movq	-16(%rbp), %rdi
	callq	__Unwind_Resume
	ud2
LBB12_2:
	movb	$0, -153(%rbp)
LBB12_3:
	movb	$1, -18(%rbp)
	leaq	-152(%rbp), %rdi
	movq	-184(%rbp), %rsi
	callq	__ZN10serde_json2de21Deserializer$LT$R$GT$12peek_or_null17hb35dfed309bd4e58E
	movzbl	-152(%rbp), %eax
	movl	%eax, %ecx
	testb	$1, %cl
	je	LBB12_6
	jmp	LBB12_86
LBB12_86:
	jmp	LBB12_7
	ud2
LBB12_6:
	movb	-151(%rbp), %al
	movb	$48, %cl
	cmpb	%al, %cl
	movb	%al, -201(%rbp)
	jbe	LBB12_13
	jmp	LBB12_43
LBB12_7:
	movb	$0, -18(%rbp)
	movq	-144(%rbp), %rax
	movq	-176(%rbp), %rcx
	movq	%rax, 8(%rcx)
	movq	$1, (%rcx)
	jmp	LBB12_10
LBB12_8:
	movq	-200(%rbp), %rax
	addq	$256, %rsp
	popq	%rbp
	retq
LBB12_9:
	movb	$0, -18(%rbp)
	leaq	-152(%rbp), %rdi
	callq	__ZN4core3ptr18real_drop_in_place17hda2544e7c0eb7314E
	jmp	LBB12_1
LBB12_10:
	movb	-152(%rbp), %al
	andb	$1, %al
	movzbl	%al, %ecx
	movl	%ecx, %edx
	cmpq	$1, %rdx
	je	LBB12_71
	jmp	LBB12_73
LBB12_11:
	jmp	LBB12_8
LBB12_12:
Ltmp44:
	movq	-184(%rbp), %rdi
	callq	__ZN10serde_json2de21Deserializer$LT$R$GT$8eat_char17h27880c16013f818fE
Ltmp45:
	jmp	LBB12_14
LBB12_13:
	movb	-201(%rbp), %al
	cmpb	$57, %al
	jbe	LBB12_12
	jmp	LBB12_43
LBB12_14:
	movb	-201(%rbp), %al
	subb	$48, %al
	movzbl	%al, %ecx
	movl	%ecx, %edx
	movb	$1, -153(%rbp)
	movq	-168(%rbp), %rsi
	movq	%rdx, -216(%rbp)
	movq	%rsi, -224(%rbp)
	jmp	LBB12_19
LBB12_15:
	movb	$1, -130(%rbp)
	jmp	LBB12_18
LBB12_16:
	movb	$0, -130(%rbp)
	jmp	LBB12_18
LBB12_17:
	movq	-168(%rbp), %rax
	movq	%rax, -232(%rbp)
	jmp	LBB12_25
LBB12_18:
	testb	$1, -130(%rbp)
	jne	LBB12_30
	jmp	LBB12_29
LBB12_19:
	jmp	LBB12_20
LBB12_20:
	movq	$-1, %rax
	xorl	%ecx, %ecx
	movl	%ecx, %edx
	movl	$10, %esi
	divq	%rsi
	movq	-224(%rbp), %rsi
	cmpq	%rax, %rsi
	jae	LBB12_17
	jmp	LBB12_16
LBB12_21:
	movb	$1, -129(%rbp)
	jmp	LBB12_24
LBB12_22:
	movb	$0, -129(%rbp)
	jmp	LBB12_24
LBB12_23:
	jmp	LBB12_27
LBB12_24:
	testb	$1, -129(%rbp)
	jne	LBB12_15
	jmp	LBB12_16
LBB12_25:
	jmp	LBB12_26
LBB12_26:
	movq	$-1, %rax
	xorl	%ecx, %ecx
	movl	%ecx, %edx
	movl	$10, %esi
	divq	%rsi
	movq	-232(%rbp), %rsi
	cmpq	%rax, %rsi
	ja	LBB12_21
	jmp	LBB12_23
LBB12_27:
	jmp	LBB12_28
LBB12_28:
	movq	$-1, %rax
	xorl	%ecx, %ecx
	movl	%ecx, %edx
	movl	$10, %esi
	divq	%rsi
	movq	-216(%rbp), %rsi
	cmpq	%rdx, %rsi
	ja	LBB12_21
	jmp	LBB12_22
LBB12_29:
	imulq	$10, -168(%rbp), %rax
	movq	-216(%rbp), %rcx
	addq	%rcx, %rax
	movq	%rax, -168(%rbp)
	movl	-160(%rbp), %edx
	subl	$1, %edx
	movl	%edx, -160(%rbp)
	movb	$0, -18(%rbp)
	leaq	-152(%rbp), %rdi
	callq	__ZN4core3ptr18real_drop_in_place17hda2544e7c0eb7314E
	jmp	LBB12_45
LBB12_30:
	jmp	LBB12_31
LBB12_31:
Ltmp46:
	leaq	-128(%rbp), %rdi
	movq	-184(%rbp), %rsi
	callq	__ZN10serde_json2de21Deserializer$LT$R$GT$12peek_or_null17hb35dfed309bd4e58E
Ltmp47:
	jmp	LBB12_32
LBB12_32:
	movzbl	-128(%rbp), %eax
	movl	%eax, %ecx
	testb	$1, %cl
	je	LBB12_34
	jmp	LBB12_87
LBB12_87:
	jmp	LBB12_35
	ud2
LBB12_34:
	movb	-127(%rbp), %al
	movb	$48, %cl
	cmpb	%al, %cl
	movb	%al, -233(%rbp)
	jbe	LBB12_39
	jmp	LBB12_38
LBB12_35:
	movq	-120(%rbp), %rax
	movq	-176(%rbp), %rcx
	movq	%rax, 8(%rcx)
	movq	$1, (%rcx)
	movb	-128(%rbp), %dl
	andb	$1, %dl
	movzbl	%dl, %esi
	movl	%esi, %eax
	cmpq	$1, %rax
	je	LBB12_74
	jmp	LBB12_75
LBB12_36:
	leaq	-128(%rbp), %rdi
	callq	__ZN4core3ptr18real_drop_in_place17hda2544e7c0eb7314E
	jmp	LBB12_9
LBB12_37:
Ltmp62:
	movq	-184(%rbp), %rdi
	callq	__ZN10serde_json2de21Deserializer$LT$R$GT$8eat_char17h27880c16013f818fE
Ltmp63:
	jmp	LBB12_40
LBB12_38:
Ltmp50:
	leaq	-128(%rbp), %rdi
	callq	__ZN4core3ptr18real_drop_in_place17hda2544e7c0eb7314E
Ltmp51:
	jmp	LBB12_41
LBB12_39:
	movb	-233(%rbp), %al
	cmpb	$57, %al
	jbe	LBB12_37
	jmp	LBB12_38
LBB12_40:
Ltmp65:
	leaq	-128(%rbp), %rdi
	callq	__ZN4core3ptr18real_drop_in_place17hda2544e7c0eb7314E
Ltmp66:
	jmp	LBB12_42
LBB12_41:
	jmp	LBB12_43
LBB12_42:
	jmp	LBB12_31
LBB12_43:
	movb	$0, -18(%rbp)
	leaq	-152(%rbp), %rdi
	callq	__ZN4core3ptr18real_drop_in_place17hda2544e7c0eb7314E
	movb	$0, -18(%rbp)
	movb	-153(%rbp), %al
	xorb	$-1, %al
	testb	$1, %al
	jne	LBB12_47
	jmp	LBB12_46
LBB12_45:
	movb	$0, -18(%rbp)
	jmp	LBB12_3
LBB12_46:
	leaq	-40(%rbp), %rdi
	movq	-184(%rbp), %rsi
	callq	__ZN10serde_json2de21Deserializer$LT$R$GT$12peek_or_null17hb35dfed309bd4e58E
	jmp	LBB12_59
LBB12_47:
	movb	$1, -17(%rbp)
	leaq	-104(%rbp), %rdi
	movq	-184(%rbp), %rsi
	callq	__ZN10serde_json2de21Deserializer$LT$R$GT$4peek17heda9452678a2416aE
	movzbl	-104(%rbp), %eax
	movl	%eax, %ecx
	testb	$1, %cl
	je	LBB12_50
	jmp	LBB12_89
LBB12_89:
	jmp	LBB12_51
	ud2
LBB12_50:
	movb	-103(%rbp), %al
	movb	-102(%rbp), %cl
	movb	%al, -112(%rbp)
	movb	%cl, -111(%rbp)
	movzbl	-112(%rbp), %edx
	movl	%edx, %esi
	testb	$1, %sil
	je	LBB12_54
	jmp	LBB12_90
LBB12_90:
	jmp	LBB12_56
LBB12_51:
	movb	$0, -17(%rbp)
	movq	-96(%rbp), %rax
	movq	-176(%rbp), %rcx
	movq	%rax, 8(%rcx)
	movq	$1, (%rcx)
	jmp	LBB12_53
LBB12_52:
	movb	$0, -17(%rbp)
	leaq	-104(%rbp), %rdi
	callq	__ZN4core3ptr18real_drop_in_place17hbd244058d832624cE
	jmp	LBB12_1
LBB12_53:
	movb	-104(%rbp), %al
	andb	$1, %al
	movzbl	%al, %ecx
	movl	%ecx, %edx
	cmpq	$1, %rdx
	je	LBB12_77
	jmp	LBB12_79
LBB12_54:
	movq	$5, -64(%rbp)
Ltmp59:
	leaq	-64(%rbp), %rsi
	movq	-184(%rbp), %rdi
	callq	__ZN10serde_json2de21Deserializer$LT$R$GT$10peek_error17hc91437f5405786d2E
Ltmp60:
	movq	%rax, -248(%rbp)
	jmp	LBB12_58
	ud2
LBB12_56:
	movq	$14, -88(%rbp)
Ltmp57:
	leaq	-88(%rbp), %rsi
	movq	-184(%rbp), %rdi
	callq	__ZN10serde_json2de21Deserializer$LT$R$GT$10peek_error17hc91437f5405786d2E
Ltmp58:
	movq	%rax, -256(%rbp)
	jmp	LBB12_57
LBB12_57:
	movq	-176(%rbp), %rax
	movq	-256(%rbp), %rcx
	movq	%rcx, 8(%rax)
	movq	$1, (%rax)
	jmp	LBB12_53
LBB12_58:
	movq	-176(%rbp), %rax
	movq	-248(%rbp), %rcx
	movq	%rcx, 8(%rax)
	movq	$1, (%rax)
	jmp	LBB12_53
LBB12_59:
	movzbl	-40(%rbp), %eax
	movl	%eax, %ecx
	testb	$1, %cl
	je	LBB12_61
	jmp	LBB12_88
LBB12_88:
	jmp	LBB12_62
	ud2
LBB12_61:
	movb	-39(%rbp), %al
	orb	$32, %al
	subb	$101, %al
	je	LBB12_65
	jmp	LBB12_64
LBB12_62:
	movq	-32(%rbp), %rax
	movq	-176(%rbp), %rcx
	movq	%rax, 8(%rcx)
	movq	$1, (%rcx)
	movb	-40(%rbp), %dl
	andb	$1, %dl
	movzbl	%dl, %esi
	movl	%esi, %eax
	cmpq	$1, %rax
	je	LBB12_80
	jmp	LBB12_81
LBB12_63:
	leaq	-40(%rbp), %rdi
	callq	__ZN4core3ptr18real_drop_in_place17hda2544e7c0eb7314E
	jmp	LBB12_1
LBB12_64:
	movq	-168(%rbp), %rcx
	movl	-160(%rbp), %r8d
Ltmp54:
	movb	-185(%rbp), %al
	movzbl	%al, %edx
	andl	$1, %edx
	movq	-176(%rbp), %rdi
	movq	-184(%rbp), %rsi
	callq	__ZN10serde_json2de21Deserializer$LT$R$GT$14f64_from_parts17h7d9afe67a76cc10dE
Ltmp55:
	jmp	LBB12_67
LBB12_65:
	movq	-168(%rbp), %rcx
	movl	-160(%rbp), %r8d
Ltmp52:
	movb	-185(%rbp), %al
	movzbl	%al, %edx
	andl	$1, %edx
	movq	-176(%rbp), %rdi
	movq	-184(%rbp), %rsi
	callq	__ZN10serde_json2de21Deserializer$LT$R$GT$14parse_exponent17h88fb6703e140e55bE
Ltmp53:
	jmp	LBB12_66
LBB12_66:
	jmp	LBB12_68
LBB12_67:
	jmp	LBB12_68
LBB12_68:
	leaq	-40(%rbp), %rdi
	callq	__ZN4core3ptr18real_drop_in_place17hda2544e7c0eb7314E
	jmp	LBB12_8
LBB12_70:
	movb	$0, -18(%rbp)
	jmp	LBB12_11
LBB12_71:
	testb	$1, -18(%rbp)
	je	LBB12_70
	movb	$0, -18(%rbp)
	leaq	-152(%rbp), %rax
	addq	$8, %rax
	movq	%rax, %rdi
	callq	__ZN4core3ptr18real_drop_in_place17h94d8d2616b716ae2E
	jmp	LBB12_70
LBB12_73:
	leaq	-152(%rbp), %rdi
	callq	__ZN4core3ptr18real_drop_in_place17hda2544e7c0eb7314E
	jmp	LBB12_70
LBB12_74:
	jmp	LBB12_10
LBB12_75:
Ltmp48:
	leaq	-128(%rbp), %rdi
	callq	__ZN4core3ptr18real_drop_in_place17hda2544e7c0eb7314E
Ltmp49:
	jmp	LBB12_74
LBB12_76:
	movb	$0, -17(%rbp)
	jmp	LBB12_11
LBB12_77:
	testb	$1, -17(%rbp)
	je	LBB12_76
	movb	$0, -17(%rbp)
	leaq	-104(%rbp), %rax
	addq	$8, %rax
	movq	%rax, %rdi
	callq	__ZN4core3ptr18real_drop_in_place17h94d8d2616b716ae2E
	jmp	LBB12_76
LBB12_79:
	leaq	-104(%rbp), %rdi
	callq	__ZN4core3ptr18real_drop_in_place17hbd244058d832624cE
	jmp	LBB12_76
LBB12_80:
	jmp	LBB12_8
LBB12_81:
	leaq	-40(%rbp), %rdi
	callq	__ZN4core3ptr18real_drop_in_place17hda2544e7c0eb7314E
	jmp	LBB12_80
LBB12_82:
Ltmp67:
	movq	%rax, -16(%rbp)
	movl	%edx, -8(%rbp)
	jmp	LBB12_9
LBB12_83:
Ltmp64:
	movq	%rax, -16(%rbp)
	movl	%edx, -8(%rbp)
	jmp	LBB12_36
LBB12_84:
Ltmp61:
	movq	%rax, -16(%rbp)
	movl	%edx, -8(%rbp)
	jmp	LBB12_52
LBB12_85:
Ltmp56:
	movq	%rax, -16(%rbp)
	movl	%edx, -8(%rbp)
	jmp	LBB12_63
Lfunc_end5:
	.cfi_endproc
	.section	__TEXT,__gcc_except_tab
	.p2align	2
GCC_except_table12:
Lexception5:
	.byte	255
	.byte	255
	.byte	1
	.uleb128 Lcst_end5-Lcst_begin5
Lcst_begin5:
	.uleb128 Lfunc_begin5-Lfunc_begin5
	.uleb128 Ltmp44-Lfunc_begin5
	.byte	0
	.byte	0
	.uleb128 Ltmp44-Lfunc_begin5
	.uleb128 Ltmp45-Ltmp44
	.uleb128 Ltmp67-Lfunc_begin5
	.byte	0
	.uleb128 Ltmp45-Lfunc_begin5
	.uleb128 Ltmp46-Ltmp45
	.byte	0
	.byte	0
	.uleb128 Ltmp46-Lfunc_begin5
	.uleb128 Ltmp47-Ltmp46
	.uleb128 Ltmp67-Lfunc_begin5
	.byte	0
	.uleb128 Ltmp47-Lfunc_begin5
	.uleb128 Ltmp62-Ltmp47
	.byte	0
	.byte	0
	.uleb128 Ltmp62-Lfunc_begin5
	.uleb128 Ltmp63-Ltmp62
	.uleb128 Ltmp64-Lfunc_begin5
	.byte	0
	.uleb128 Ltmp50-Lfunc_begin5
	.uleb128 Ltmp66-Ltmp50
	.uleb128 Ltmp67-Lfunc_begin5
	.byte	0
	.uleb128 Ltmp66-Lfunc_begin5
	.uleb128 Ltmp59-Ltmp66
	.byte	0
	.byte	0
	.uleb128 Ltmp59-Lfunc_begin5
	.uleb128 Ltmp58-Ltmp59
	.uleb128 Ltmp61-Lfunc_begin5
	.byte	0
	.uleb128 Ltmp58-Lfunc_begin5
	.uleb128 Ltmp54-Ltmp58
	.byte	0
	.byte	0
	.uleb128 Ltmp54-Lfunc_begin5
	.uleb128 Ltmp53-Ltmp54
	.uleb128 Ltmp56-Lfunc_begin5
	.byte	0
	.uleb128 Ltmp53-Lfunc_begin5
	.uleb128 Ltmp48-Ltmp53
	.byte	0
	.byte	0
	.uleb128 Ltmp48-Lfunc_begin5
	.uleb128 Ltmp49-Ltmp48
	.uleb128 Ltmp67-Lfunc_begin5
	.byte	0
	.uleb128 Ltmp49-Lfunc_begin5
	.uleb128 Lfunc_end5-Ltmp49
	.byte	0
	.byte	0
Lcst_end5:
	.p2align	2

	.section	__TEXT,__text,regular,pure_instructions
	.p2align	4, 0x90
__ZN10serde_json2de21Deserializer$LT$R$GT$13parse_integer17h63ff08302b0eeee7E:
Lfunc_begin6:
	.cfi_startproc
	.cfi_personality 155, _rust_eh_personality
	.cfi_lsda 16, Lexception6
	pushq	%rbp
	.cfi_def_cfa_offset 16
	.cfi_offset %rbp, -16
	movq	%rsp, %rbp
	.cfi_def_cfa_register %rbp
	subq	$320, %rsp
	movq	%rdi, %rax
	movb	$0, -17(%rbp)
	movb	$0, -19(%rbp)
	movb	$0, -18(%rbp)
	movb	$1, -19(%rbp)
	leaq	-192(%rbp), %rcx
	movq	%rdi, -208(%rbp)
	movq	%rcx, %rdi
	movq	%rsi, -216(%rbp)
	movb	%dl, -217(%rbp)
	movq	%rax, -232(%rbp)
	callq	__ZN10serde_json2de21Deserializer$LT$R$GT$9next_char17h0e00787cc80c5e1eE
	jmp	LBB13_2
LBB13_1:
	movq	-16(%rbp), %rdi
	callq	__Unwind_Resume
	ud2
LBB13_2:
	movzbl	-192(%rbp), %eax
	movl	%eax, %ecx
	testb	$1, %cl
	je	LBB13_4
	jmp	LBB13_85
LBB13_85:
	jmp	LBB13_5
	ud2
LBB13_4:
	movb	-191(%rbp), %al
	movb	-190(%rbp), %cl
	movb	%al, -200(%rbp)
	movb	%cl, -199(%rbp)
	movzbl	-200(%rbp), %edx
	movl	%edx, %esi
	testb	$1, %sil
	je	LBB13_10
	jmp	LBB13_86
LBB13_86:
	jmp	LBB13_12
LBB13_5:
	movb	$0, -19(%rbp)
	movq	-184(%rbp), %rax
	movq	-208(%rbp), %rcx
	movq	%rax, 8(%rcx)
	movq	$1, (%rcx)
	jmp	LBB13_8
LBB13_6:
	movq	-232(%rbp), %rax
	addq	$320, %rsp
	popq	%rbp
	retq
LBB13_7:
	movb	$0, -19(%rbp)
	leaq	-192(%rbp), %rdi
	callq	__ZN4core3ptr18real_drop_in_place17hbd244058d832624cE
	jmp	LBB13_1
LBB13_8:
	movb	-192(%rbp), %al
	andb	$1, %al
	movzbl	%al, %ecx
	movl	%ecx, %edx
	cmpq	$1, %rdx
	je	LBB13_68
	jmp	LBB13_70
LBB13_9:
	jmp	LBB13_6
LBB13_10:
	movq	$5, -176(%rbp)
Ltmp84:
	leaq	-176(%rbp), %rsi
	movq	-216(%rbp), %rdi
	callq	__ZN10serde_json2de21Deserializer$LT$R$GT$5error17h608cc2aecfbde555E
Ltmp85:
	movq	%rax, -240(%rbp)
	jmp	LBB13_13
	ud2
LBB13_12:
	movb	-199(%rbp), %al
	movb	$0, -19(%rbp)
	leaq	-192(%rbp), %rdi
	movb	%al, -241(%rbp)
	callq	__ZN4core3ptr18real_drop_in_place17hbd244058d832624cE
	jmp	LBB13_14
LBB13_13:
	movq	-208(%rbp), %rax
	movq	-240(%rbp), %rcx
	movq	%rcx, 8(%rax)
	movq	$1, (%rax)
	jmp	LBB13_8
LBB13_14:
	movb	$0, -19(%rbp)
	movb	-241(%rbp), %al
	cmpb	$48, %al
	je	LBB13_19
	jmp	LBB13_17
LBB13_15:
	movb	-241(%rbp), %al
	subb	$48, %al
	movzbl	%al, %ecx
	movl	%ecx, %edx
	movq	%rdx, -112(%rbp)
	jmp	LBB13_32
LBB13_16:
	movq	$14, -48(%rbp)
	movq	-216(%rbp), %rdi
	leaq	-48(%rbp), %rsi
	callq	__ZN10serde_json2de21Deserializer$LT$R$GT$5error17h608cc2aecfbde555E
	movq	%rax, -256(%rbp)
	jmp	LBB13_65
LBB13_17:
	movb	$49, %al
	movb	-241(%rbp), %cl
	cmpb	%cl, %al
	ja	LBB13_16
	movb	-241(%rbp), %al
	cmpb	$57, %al
	jbe	LBB13_15
	jmp	LBB13_16
LBB13_19:
	leaq	-152(%rbp), %rdi
	movq	-216(%rbp), %rsi
	callq	__ZN10serde_json2de21Deserializer$LT$R$GT$12peek_or_null17hb35dfed309bd4e58E
	movzbl	-152(%rbp), %eax
	movl	%eax, %ecx
	testb	$1, %cl
	je	LBB13_22
	jmp	LBB13_89
LBB13_89:
	jmp	LBB13_23
	ud2
LBB13_22:
	movb	-151(%rbp), %al
	movb	$48, %cl
	cmpb	%al, %cl
	movb	%al, -257(%rbp)
	jbe	LBB13_27
	jmp	LBB13_26
LBB13_23:
	movq	-144(%rbp), %rax
	movq	-208(%rbp), %rcx
	movq	%rax, 8(%rcx)
	movq	$1, (%rcx)
	movb	-152(%rbp), %dl
	andb	$1, %dl
	movzbl	%dl, %esi
	movl	%esi, %eax
	cmpq	$1, %rax
	je	LBB13_71
	jmp	LBB13_72
LBB13_24:
	leaq	-152(%rbp), %rdi
	callq	__ZN4core3ptr18real_drop_in_place17hda2544e7c0eb7314E
	jmp	LBB13_1
LBB13_25:
	movq	$14, -136(%rbp)
Ltmp81:
	leaq	-136(%rbp), %rsi
	movq	-216(%rbp), %rdi
	callq	__ZN10serde_json2de21Deserializer$LT$R$GT$10peek_error17hc91437f5405786d2E
Ltmp82:
	movq	%rax, -272(%rbp)
	jmp	LBB13_28
LBB13_26:
Ltmp79:
	movb	-217(%rbp), %al
	movzbl	%al, %ecx
	andl	$1, %ecx
	xorl	%edx, %edx
	movl	%edx, %esi
	movq	-208(%rbp), %rdi
	movq	-216(%rbp), %r8
	movq	%rsi, -280(%rbp)
	movq	%r8, %rsi
	movl	%ecx, %edx
	movq	-280(%rbp), %rcx
	callq	__ZN10serde_json2de21Deserializer$LT$R$GT$12parse_number17h431239a50d116072E
Ltmp80:
	jmp	LBB13_29
LBB13_27:
	movb	-257(%rbp), %al
	cmpb	$57, %al
	jbe	LBB13_25
	jmp	LBB13_26
LBB13_28:
	movq	-208(%rbp), %rax
	movq	-272(%rbp), %rcx
	movq	%rcx, 8(%rax)
	movq	$1, (%rax)
	jmp	LBB13_30
LBB13_29:
	jmp	LBB13_30
LBB13_30:
	leaq	-152(%rbp), %rdi
	callq	__ZN4core3ptr18real_drop_in_place17hda2544e7c0eb7314E
	jmp	LBB13_66
LBB13_32:
	movb	$1, -18(%rbp)
	leaq	-104(%rbp), %rdi
	movq	-216(%rbp), %rsi
	callq	__ZN10serde_json2de21Deserializer$LT$R$GT$12peek_or_null17hb35dfed309bd4e58E
	movzbl	-104(%rbp), %eax
	movl	%eax, %ecx
	testb	$1, %cl
	je	LBB13_35
	jmp	LBB13_87
LBB13_87:
	jmp	LBB13_36
	ud2
LBB13_35:
	movb	-103(%rbp), %al
	movb	$48, %cl
	cmpb	%al, %cl
	movb	%al, -281(%rbp)
	jbe	LBB13_41
	jmp	LBB13_40
LBB13_36:
	movb	$0, -18(%rbp)
	movq	-96(%rbp), %rax
	movq	-208(%rbp), %rcx
	movq	%rax, 8(%rcx)
	movq	$1, (%rcx)
	jmp	LBB13_38
LBB13_37:
	movb	$0, -18(%rbp)
	leaq	-104(%rbp), %rdi
	callq	__ZN4core3ptr18real_drop_in_place17hda2544e7c0eb7314E
	jmp	LBB13_1
LBB13_38:
	movb	-104(%rbp), %al
	andb	$1, %al
	movzbl	%al, %ecx
	movl	%ecx, %edx
	cmpq	$1, %rdx
	je	LBB13_74
	jmp	LBB13_76
LBB13_39:
Ltmp70:
	movq	-216(%rbp), %rdi
	callq	__ZN10serde_json2de21Deserializer$LT$R$GT$8eat_char17h27880c16013f818fE
Ltmp71:
	jmp	LBB13_42
LBB13_40:
	movq	-112(%rbp), %rcx
Ltmp68:
	movb	-217(%rbp), %al
	movzbl	%al, %edx
	andl	$1, %edx
	movq	-208(%rbp), %rdi
	movq	-216(%rbp), %rsi
	callq	__ZN10serde_json2de21Deserializer$LT$R$GT$12parse_number17h431239a50d116072E
Ltmp69:
	jmp	LBB13_63
LBB13_41:
	movb	-281(%rbp), %al
	cmpb	$57, %al
	jbe	LBB13_39
	jmp	LBB13_40
LBB13_42:
	movb	-281(%rbp), %al
	subb	$48, %al
	movzbl	%al, %ecx
	movl	%ecx, %edx
	movq	-112(%rbp), %rsi
	movq	%rdx, -296(%rbp)
	movq	%rsi, -304(%rbp)
	jmp	LBB13_47
LBB13_43:
	movb	$1, -82(%rbp)
	jmp	LBB13_46
LBB13_44:
	movb	$0, -82(%rbp)
	jmp	LBB13_46
LBB13_45:
	movq	-112(%rbp), %rax
	movq	%rax, -312(%rbp)
	jmp	LBB13_53
LBB13_46:
	testb	$1, -82(%rbp)
	jne	LBB13_58
	jmp	LBB13_57
LBB13_47:
	jmp	LBB13_48
LBB13_48:
	movq	$-1, %rax
	xorl	%ecx, %ecx
	movl	%ecx, %edx
	movl	$10, %esi
	divq	%rsi
	movq	-304(%rbp), %rsi
	cmpq	%rax, %rsi
	jae	LBB13_45
	jmp	LBB13_44
LBB13_49:
	movb	$1, -81(%rbp)
	jmp	LBB13_52
LBB13_50:
	movb	$0, -81(%rbp)
	jmp	LBB13_52
LBB13_51:
	jmp	LBB13_55
LBB13_52:
	testb	$1, -81(%rbp)
	jne	LBB13_43
	jmp	LBB13_44
LBB13_53:
	jmp	LBB13_54
LBB13_54:
	movq	$-1, %rax
	xorl	%ecx, %ecx
	movl	%ecx, %edx
	movl	$10, %esi
	divq	%rsi
	movq	-312(%rbp), %rsi
	cmpq	%rax, %rsi
	ja	LBB13_49
	jmp	LBB13_51
LBB13_55:
	jmp	LBB13_56
LBB13_56:
	movq	$-1, %rax
	xorl	%ecx, %ecx
	movl	%ecx, %edx
	movl	$10, %esi
	divq	%rsi
	movq	-296(%rbp), %rsi
	cmpq	%rdx, %rsi
	ja	LBB13_49
	jmp	LBB13_50
LBB13_57:
	imulq	$10, -112(%rbp), %rax
	movq	-296(%rbp), %rcx
	addq	%rcx, %rax
	movq	%rax, -112(%rbp)
	movb	$0, -18(%rbp)
	leaq	-104(%rbp), %rdi
	callq	__ZN4core3ptr18real_drop_in_place17hda2544e7c0eb7314E
	jmp	LBB13_64
LBB13_58:
	movq	-112(%rbp), %rcx
Ltmp72:
	movb	-217(%rbp), %al
	movzbl	%al, %edx
	andl	$1, %edx
	leaq	-64(%rbp), %rdi
	movl	$1, %r8d
	movq	-216(%rbp), %rsi
	callq	__ZN10serde_json2de21Deserializer$LT$R$GT$18parse_long_integer17hb31b4fa604dd876bE
Ltmp73:
	jmp	LBB13_59
LBB13_59:
	movb	$1, -17(%rbp)
	movq	-64(%rbp), %rax
	testq	%rax, %rax
	je	LBB13_61
	jmp	LBB13_88
LBB13_88:
	jmp	LBB13_62
	ud2
LBB13_61:
	movsd	-56(%rbp), %xmm0
	movsd	%xmm0, -72(%rbp)
	movq	$0, -80(%rbp)
	movq	-80(%rbp), %rax
	movq	-208(%rbp), %rcx
	movq	%rax, 8(%rcx)
	movq	-72(%rbp), %rax
	movq	%rax, 16(%rcx)
	movq	$0, (%rcx)
	jmp	LBB13_81
LBB13_62:
	movb	$0, -17(%rbp)
	movq	-56(%rbp), %rax
	movq	-208(%rbp), %rcx
	movq	%rax, 8(%rcx)
	movq	$1, (%rcx)
	jmp	LBB13_81
LBB13_63:
	jmp	LBB13_38
LBB13_64:
	movb	$0, -18(%rbp)
	jmp	LBB13_32
LBB13_65:
	movq	-208(%rbp), %rax
	movq	-256(%rbp), %rcx
	movq	%rcx, 8(%rax)
	movq	$1, (%rax)
LBB13_66:
	jmp	LBB13_6
LBB13_67:
	movb	$0, -19(%rbp)
	jmp	LBB13_9
LBB13_68:
	testb	$1, -19(%rbp)
	je	LBB13_67
	movb	$0, -19(%rbp)
	leaq	-192(%rbp), %rax
	addq	$8, %rax
	movq	%rax, %rdi
	callq	__ZN4core3ptr18real_drop_in_place17h94d8d2616b716ae2E
	jmp	LBB13_67
LBB13_70:
	leaq	-192(%rbp), %rdi
	callq	__ZN4core3ptr18real_drop_in_place17hbd244058d832624cE
	jmp	LBB13_67
LBB13_71:
	jmp	LBB13_9
LBB13_72:
	leaq	-152(%rbp), %rdi
	callq	__ZN4core3ptr18real_drop_in_place17hda2544e7c0eb7314E
	jmp	LBB13_71
LBB13_73:
	movb	$0, -18(%rbp)
	jmp	LBB13_9
LBB13_74:
	testb	$1, -18(%rbp)
	je	LBB13_73
	movb	$0, -18(%rbp)
	leaq	-104(%rbp), %rax
	addq	$8, %rax
	movq	%rax, %rdi
	callq	__ZN4core3ptr18real_drop_in_place17h94d8d2616b716ae2E
	jmp	LBB13_73
LBB13_76:
	leaq	-104(%rbp), %rdi
	callq	__ZN4core3ptr18real_drop_in_place17hda2544e7c0eb7314E
	jmp	LBB13_73
LBB13_77:
	movb	$0, -17(%rbp)
	jmp	LBB13_38
LBB13_78:
	testb	$1, -17(%rbp)
	je	LBB13_77
	movb	$0, -17(%rbp)
	leaq	-56(%rbp), %rdi
Ltmp76:
	callq	__ZN4core3ptr18real_drop_in_place17h94d8d2616b716ae2E
Ltmp77:
	jmp	LBB13_77
LBB13_80:
Ltmp74:
	leaq	-64(%rbp), %rdi
	callq	__ZN4core3ptr18real_drop_in_place17h164d76c7649c96aaE
Ltmp75:
	jmp	LBB13_77
LBB13_81:
	cmpq	$1, -64(%rbp)
	je	LBB13_78
	jmp	LBB13_80
LBB13_82:
Ltmp78:
	movq	%rax, -16(%rbp)
	movl	%edx, -8(%rbp)
	jmp	LBB13_37
LBB13_83:
Ltmp83:
	movq	%rax, -16(%rbp)
	movl	%edx, -8(%rbp)
	jmp	LBB13_24
LBB13_84:
Ltmp86:
	movq	%rax, -16(%rbp)
	movl	%edx, -8(%rbp)
	jmp	LBB13_7
Lfunc_end6:
	.cfi_endproc
	.section	__TEXT,__gcc_except_tab
	.p2align	2
GCC_except_table13:
Lexception6:
	.byte	255
	.byte	255
	.byte	1
	.uleb128 Lcst_end6-Lcst_begin6
Lcst_begin6:
	.uleb128 Lfunc_begin6-Lfunc_begin6
	.uleb128 Ltmp84-Lfunc_begin6
	.byte	0
	.byte	0
	.uleb128 Ltmp84-Lfunc_begin6
	.uleb128 Ltmp85-Ltmp84
	.uleb128 Ltmp86-Lfunc_begin6
	.byte	0
	.uleb128 Ltmp85-Lfunc_begin6
	.uleb128 Ltmp81-Ltmp85
	.byte	0
	.byte	0
	.uleb128 Ltmp81-Lfunc_begin6
	.uleb128 Ltmp80-Ltmp81
	.uleb128 Ltmp83-Lfunc_begin6
	.byte	0
	.uleb128 Ltmp80-Lfunc_begin6
	.uleb128 Ltmp70-Ltmp80
	.byte	0
	.byte	0
	.uleb128 Ltmp70-Lfunc_begin6
	.uleb128 Ltmp69-Ltmp70
	.uleb128 Ltmp78-Lfunc_begin6
	.byte	0
	.uleb128 Ltmp69-Lfunc_begin6
	.uleb128 Ltmp72-Ltmp69
	.byte	0
	.byte	0
	.uleb128 Ltmp72-Lfunc_begin6
	.uleb128 Ltmp73-Ltmp72
	.uleb128 Ltmp78-Lfunc_begin6
	.byte	0
	.uleb128 Ltmp73-Lfunc_begin6
	.uleb128 Ltmp76-Ltmp73
	.byte	0
	.byte	0
	.uleb128 Ltmp76-Lfunc_begin6
	.uleb128 Ltmp75-Ltmp76
	.uleb128 Ltmp78-Lfunc_begin6
	.byte	0
Lcst_end6:
	.p2align	2

	.section	__TEXT,__literal16,16byte_literals
	.p2align	4
LCPI14_0:
	.long	1127219200
	.long	1160773632
	.long	0
	.long	0
LCPI14_1:
	.quad	4841369599423283200
	.quad	4985484787499139072
	.section	__TEXT,__literal8,8byte_literals
	.p2align	3
LCPI14_2:
	.quad	9214871658872686752
	.section	__TEXT,__text,regular,pure_instructions
	.p2align	4, 0x90
__ZN10serde_json2de21Deserializer$LT$R$GT$14f64_from_parts17h7d9afe67a76cc10dE:
	.cfi_startproc
	pushq	%rbp
	.cfi_def_cfa_offset 16
	.cfi_offset %rbp, -16
	movq	%rsp, %rbp
	.cfi_def_cfa_register %rbp
	subq	$160, %rsp
	movq	%rdi, %rax
	movl	%r8d, -76(%rbp)
	movq	%rcx, %xmm0
	movaps	LCPI14_0(%rip), %xmm1
	punpckldq	%xmm1, %xmm0
	movapd	LCPI14_1(%rip), %xmm1
	subpd	%xmm1, %xmm0
	haddpd	%xmm0, %xmm0
	movsd	%xmm0, -72(%rbp)
	movq	%rsi, -88(%rbp)
	movq	%rdi, -96(%rbp)
	movb	%dl, -97(%rbp)
	movq	%rax, -112(%rbp)
LBB14_1:
	movl	-76(%rbp), %edi
	callq	__ZN4core3num21_$LT$impl$u20$i32$GT$12wrapping_abs17hd60904074f74e421E
	movl	%eax, -116(%rbp)
	movq	__ZN10serde_json2de5POW1017hf5de5bb0e948b3cfE@GOTPCREL(%rip), %rax
	movl	-116(%rbp), %ecx
	movslq	%ecx, %rdx
	movq	%rax, %rdi
	movl	$309, %esi
	callq	__ZN4core5slice29_$LT$impl$u20$$u5b$T$u5d$$GT$3get17hc137014e2a501e49E
	movq	%rax, -64(%rbp)
	movq	-64(%rbp), %rax
	testq	%rax, %rax
	setne	%cl
	movzbl	%cl, %edx
	movl	%edx, %eax
	je	LBB14_4
	jmp	LBB14_25
LBB14_25:
	jmp	LBB14_6
LBB14_4:
	movsd	-72(%rbp), %xmm0
	xorps	%xmm1, %xmm1
	ucomisd	%xmm1, %xmm0
	jne	LBB14_17
	jp	LBB14_17
	jmp	LBB14_18
	ud2
LBB14_6:
	movq	-64(%rbp), %rax
	movsd	(%rax), %xmm0
	cmpl	$0, -76(%rbp)
	movsd	%xmm0, -128(%rbp)
	jge	LBB14_8
	movsd	-72(%rbp), %xmm0
	movsd	-128(%rbp), %xmm1
	divsd	%xmm1, %xmm0
	movsd	%xmm0, -72(%rbp)
	jmp	LBB14_15
LBB14_8:
	movsd	-128(%rbp), %xmm0
	mulsd	-72(%rbp), %xmm0
	movsd	%xmm0, -72(%rbp)
	movsd	-72(%rbp), %xmm0
	callq	__ZN4core3f6421_$LT$impl$u20$f64$GT$11is_infinite17h30643d1eb9d48562E
	movb	%al, -129(%rbp)
	movb	-129(%rbp), %al
	testb	$1, %al
	jne	LBB14_11
	jmp	LBB14_10
LBB14_10:
	jmp	LBB14_15
LBB14_11:
	movq	$15, -56(%rbp)
	movq	-88(%rbp), %rdi
	leaq	-56(%rbp), %rsi
	callq	__ZN10serde_json2de21Deserializer$LT$R$GT$5error17h608cc2aecfbde555E
	movq	%rax, -144(%rbp)
	jmp	LBB14_13
LBB14_12:
	movq	-112(%rbp), %rax
	addq	$160, %rsp
	popq	%rbp
	retq
LBB14_13:
	movq	-96(%rbp), %rax
	movq	-144(%rbp), %rcx
	movq	%rcx, 8(%rax)
	movq	$1, (%rax)
LBB14_14:
	jmp	LBB14_12
LBB14_15:
	jmp	LBB14_16
LBB14_16:
	movb	-97(%rbp), %al
	testb	$1, %al
	jne	LBB14_23
	jmp	LBB14_22
LBB14_17:
	cmpl	$0, -76(%rbp)
	jge	LBB14_20
	jmp	LBB14_19
LBB14_18:
	jmp	LBB14_16
LBB14_19:
	movsd	LCPI14_2(%rip), %xmm0
	movsd	-72(%rbp), %xmm1
	divsd	%xmm0, %xmm1
	movsd	%xmm1, -72(%rbp)
	movl	-76(%rbp), %eax
	addl	$308, %eax
	movl	%eax, -76(%rbp)
	jmp	LBB14_1
LBB14_20:
	movq	$15, -32(%rbp)
	movq	-88(%rbp), %rdi
	leaq	-32(%rbp), %rsi
	callq	__ZN10serde_json2de21Deserializer$LT$R$GT$5error17h608cc2aecfbde555E
	movq	%rax, -152(%rbp)
	movq	-96(%rbp), %rax
	movq	-152(%rbp), %rcx
	movq	%rcx, 8(%rax)
	movq	$1, (%rax)
	jmp	LBB14_14
LBB14_22:
	movsd	-72(%rbp), %xmm0
	movq	%xmm0, %rax
	movabsq	$-9223372036854775808, %rcx
	xorq	%rcx, %rax
	movq	%rax, %xmm0
	movsd	%xmm0, -8(%rbp)
	jmp	LBB14_24
LBB14_23:
	movsd	-72(%rbp), %xmm0
	movsd	%xmm0, -8(%rbp)
LBB14_24:
	movsd	-8(%rbp), %xmm0
	movq	-96(%rbp), %rax
	movsd	%xmm0, 8(%rax)
	movq	$0, (%rax)
	jmp	LBB14_12
	.cfi_endproc

	.p2align	4, 0x90
__ZN10serde_json2de21Deserializer$LT$R$GT$14parse_exponent17h88fb6703e140e55bE:
Lfunc_begin7:
	.cfi_startproc
	.cfi_personality 155, _rust_eh_personality
	.cfi_lsda 16, Lexception7
	pushq	%rbp
	.cfi_def_cfa_offset 16
	.cfi_offset %rbp, -16
	movq	%rsp, %rbp
	.cfi_def_cfa_register %rbp
	subq	$256, %rsp
	movq	%rdi, %rax
	movb	$0, -18(%rbp)
	movb	$0, -17(%rbp)
	movq	%rdi, -160(%rbp)
	movq	%rsi, %rdi
	movl	%r8d, -164(%rbp)
	movq	%rcx, -176(%rbp)
	movq	%rsi, -184(%rbp)
	movb	%dl, -185(%rbp)
	movq	%rax, -200(%rbp)
	callq	__ZN10serde_json2de21Deserializer$LT$R$GT$8eat_char17h27880c16013f818fE
	jmp	LBB15_2
LBB15_1:
	movq	-16(%rbp), %rdi
	callq	__Unwind_Resume
	ud2
LBB15_2:
	leaq	-144(%rbp), %rdi
	movq	-184(%rbp), %rsi
	callq	__ZN10serde_json2de21Deserializer$LT$R$GT$12peek_or_null17hb35dfed309bd4e58E
	movzbl	-144(%rbp), %eax
	movl	%eax, %ecx
	testb	$1, %cl
	je	LBB15_5
	jmp	LBB15_90
LBB15_90:
	jmp	LBB15_6
	ud2
LBB15_5:
	movb	-143(%rbp), %al
	movb	%al, %cl
	subb	$43, %cl
	movb	%al, -201(%rbp)
	je	LBB15_11
	jmp	LBB15_91
LBB15_91:
	movb	-201(%rbp), %al
	subb	$45, %al
	je	LBB15_13
	jmp	LBB15_10
LBB15_6:
	movq	-136(%rbp), %rax
	movq	-160(%rbp), %rcx
	movq	%rax, 8(%rcx)
	movq	$1, (%rcx)
	movb	-144(%rbp), %dl
	andb	$1, %dl
	movzbl	%dl, %esi
	movl	%esi, %eax
	cmpq	$1, %rax
	je	LBB15_73
	jmp	LBB15_74
LBB15_7:
	movq	-200(%rbp), %rax
	addq	$256, %rsp
	popq	%rbp
	retq
LBB15_8:
	leaq	-144(%rbp), %rdi
	callq	__ZN4core3ptr18real_drop_in_place17hda2544e7c0eb7314E
	jmp	LBB15_1
LBB15_9:
	jmp	LBB15_7
LBB15_10:
	movb	$1, -145(%rbp)
	jmp	LBB15_15
LBB15_11:
Ltmp89:
	movq	-184(%rbp), %rdi
	callq	__ZN10serde_json2de21Deserializer$LT$R$GT$8eat_char17h27880c16013f818fE
Ltmp90:
	jmp	LBB15_12
LBB15_12:
	movb	$1, -145(%rbp)
	jmp	LBB15_15
LBB15_13:
Ltmp87:
	movq	-184(%rbp), %rdi
	callq	__ZN10serde_json2de21Deserializer$LT$R$GT$8eat_char17h27880c16013f818fE
Ltmp88:
	jmp	LBB15_14
LBB15_14:
	movb	$0, -145(%rbp)
LBB15_15:
	leaq	-144(%rbp), %rdi
	callq	__ZN4core3ptr18real_drop_in_place17hda2544e7c0eb7314E
	movb	$1, -18(%rbp)
	leaq	-120(%rbp), %rdi
	movq	-184(%rbp), %rsi
	callq	__ZN10serde_json2de21Deserializer$LT$R$GT$9next_char17h0e00787cc80c5e1eE
	movzbl	-120(%rbp), %eax
	movl	%eax, %ecx
	testb	$1, %cl
	je	LBB15_19
	jmp	LBB15_92
LBB15_92:
	jmp	LBB15_20
	ud2
LBB15_19:
	movb	-119(%rbp), %al
	movb	-118(%rbp), %cl
	movb	%al, -128(%rbp)
	movb	%cl, -127(%rbp)
	movzbl	-128(%rbp), %edx
	movl	%edx, %esi
	testb	$1, %sil
	je	LBB15_24
	jmp	LBB15_93
LBB15_93:
	jmp	LBB15_26
LBB15_20:
	movb	$0, -18(%rbp)
	movq	-112(%rbp), %rax
	movq	-160(%rbp), %rcx
	movq	%rax, 8(%rcx)
	movq	$1, (%rcx)
	jmp	LBB15_22
LBB15_21:
	movb	$0, -18(%rbp)
	leaq	-120(%rbp), %rdi
	callq	__ZN4core3ptr18real_drop_in_place17hbd244058d832624cE
	jmp	LBB15_1
LBB15_22:
	movb	-120(%rbp), %al
	andb	$1, %al
	movzbl	%al, %ecx
	movl	%ecx, %edx
	cmpq	$1, %rdx
	je	LBB15_76
	jmp	LBB15_78
LBB15_23:
	jmp	LBB15_9
LBB15_24:
	movq	$5, -104(%rbp)
Ltmp103:
	leaq	-104(%rbp), %rsi
	movq	-184(%rbp), %rdi
	callq	__ZN10serde_json2de21Deserializer$LT$R$GT$5error17h608cc2aecfbde555E
Ltmp104:
	movq	%rax, -216(%rbp)
	jmp	LBB15_27
	ud2
LBB15_26:
	movb	-127(%rbp), %al
	movb	$0, -18(%rbp)
	leaq	-120(%rbp), %rdi
	movb	%al, -217(%rbp)
	callq	__ZN4core3ptr18real_drop_in_place17hbd244058d832624cE
	jmp	LBB15_28
LBB15_27:
	movq	-160(%rbp), %rax
	movq	-216(%rbp), %rcx
	movq	%rcx, 8(%rax)
	movq	$1, (%rax)
	jmp	LBB15_22
LBB15_28:
	movb	$0, -18(%rbp)
	movb	$48, %al
	movb	-217(%rbp), %cl
	cmpb	%cl, %al
	jbe	LBB15_31
	jmp	LBB15_30
LBB15_29:
	movb	-217(%rbp), %al
	subb	$48, %al
	movzbl	%al, %ecx
	movl	%ecx, -76(%rbp)
	jmp	LBB15_34
LBB15_30:
	movq	$14, -72(%rbp)
	movq	-184(%rbp), %rdi
	leaq	-72(%rbp), %rsi
	callq	__ZN10serde_json2de21Deserializer$LT$R$GT$5error17h608cc2aecfbde555E
	movq	%rax, -232(%rbp)
	jmp	LBB15_32
LBB15_31:
	movb	-217(%rbp), %al
	cmpb	$57, %al
	jbe	LBB15_29
	jmp	LBB15_30
LBB15_32:
	movq	-160(%rbp), %rax
	movq	-232(%rbp), %rcx
	movq	%rcx, 8(%rax)
	movq	$1, (%rax)
LBB15_33:
	jmp	LBB15_23
LBB15_34:
	movb	$1, -17(%rbp)
	leaq	-48(%rbp), %rdi
	movq	-184(%rbp), %rsi
	callq	__ZN10serde_json2de21Deserializer$LT$R$GT$12peek_or_null17hb35dfed309bd4e58E
	movzbl	-48(%rbp), %eax
	movl	%eax, %ecx
	testb	$1, %cl
	je	LBB15_37
	jmp	LBB15_94
LBB15_94:
	jmp	LBB15_38
	ud2
LBB15_37:
	movb	-47(%rbp), %al
	movb	$48, %cl
	cmpb	%al, %cl
	movb	%al, -233(%rbp)
	jbe	LBB15_43
	jmp	LBB15_42
LBB15_38:
	movb	$0, -17(%rbp)
	movq	-40(%rbp), %rax
	movq	-160(%rbp), %rcx
	movq	%rax, 8(%rcx)
	movq	$1, (%rcx)
	jmp	LBB15_40
LBB15_39:
	movb	$0, -17(%rbp)
	leaq	-48(%rbp), %rdi
	callq	__ZN4core3ptr18real_drop_in_place17hda2544e7c0eb7314E
	jmp	LBB15_1
LBB15_40:
	movb	-48(%rbp), %al
	andb	$1, %al
	movzbl	%al, %ecx
	movl	%ecx, %edx
	cmpq	$1, %rdx
	je	LBB15_80
	jmp	LBB15_82
LBB15_41:
Ltmp92:
	movq	-184(%rbp), %rdi
	callq	__ZN10serde_json2de21Deserializer$LT$R$GT$8eat_char17h27880c16013f818fE
Ltmp93:
	jmp	LBB15_44
LBB15_42:
	movb	$0, -17(%rbp)
	leaq	-48(%rbp), %rdi
	callq	__ZN4core3ptr18real_drop_in_place17hda2544e7c0eb7314E
	jmp	LBB15_65
LBB15_43:
	movb	-233(%rbp), %al
	cmpb	$57, %al
	jbe	LBB15_41
	jmp	LBB15_42
LBB15_44:
	movb	-233(%rbp), %al
	subb	$48, %al
	movzbl	%al, %ecx
	movl	-76(%rbp), %edx
	movl	%ecx, -240(%rbp)
	movl	%edx, -244(%rbp)
	jmp	LBB15_49
LBB15_45:
	movb	$1, -26(%rbp)
	jmp	LBB15_48
LBB15_46:
	movb	$0, -26(%rbp)
	jmp	LBB15_48
LBB15_47:
	movl	-76(%rbp), %eax
	movl	%eax, -248(%rbp)
	jmp	LBB15_56
LBB15_48:
	testb	$1, -26(%rbp)
	jne	LBB15_63
	jmp	LBB15_62
LBB15_49:
	jmp	LBB15_50
LBB15_50:
	movl	$2147483647, %eax
	cmpl	$-2147483648, %eax
	sete	%cl
	andb	$0, %cl
	testb	$1, %cl
	jne	LBB15_85
	movl	$2147483647, %eax
	cltd
	movl	$10, %ecx
	idivl	%ecx
	movl	-244(%rbp), %ecx
	cmpl	%eax, %ecx
	jge	LBB15_47
	jmp	LBB15_46
LBB15_52:
	movb	$1, -25(%rbp)
	jmp	LBB15_55
LBB15_53:
	movb	$0, -25(%rbp)
	jmp	LBB15_55
LBB15_54:
	jmp	LBB15_59
LBB15_55:
	testb	$1, -25(%rbp)
	jne	LBB15_45
	jmp	LBB15_46
LBB15_56:
	jmp	LBB15_57
LBB15_57:
	movl	$2147483647, %eax
	cmpl	$-2147483648, %eax
	sete	%cl
	andb	$0, %cl
	testb	$1, %cl
	jne	LBB15_87
	movl	$2147483647, %eax
	cltd
	movl	$10, %ecx
	idivl	%ecx
	movl	-248(%rbp), %ecx
	cmpl	%eax, %ecx
	jg	LBB15_52
	jmp	LBB15_54
LBB15_59:
	jmp	LBB15_60
LBB15_60:
	movl	$2147483647, %eax
	cmpl	$-2147483648, %eax
	sete	%cl
	andb	$0, %cl
	testb	$1, %cl
	jne	LBB15_88
	movl	$2147483647, %eax
	cltd
	movl	$10, %ecx
	idivl	%ecx
	movl	-240(%rbp), %ecx
	cmpl	%edx, %ecx
	jg	LBB15_52
	jmp	LBB15_53
LBB15_62:
	imull	$10, -76(%rbp), %eax
	movl	-240(%rbp), %ecx
	addl	%ecx, %eax
	movl	%eax, -76(%rbp)
	movb	$0, -17(%rbp)
	leaq	-48(%rbp), %rdi
	callq	__ZN4core3ptr18real_drop_in_place17hda2544e7c0eb7314E
	jmp	LBB15_66
LBB15_63:
	movzbl	-145(%rbp), %r8d
Ltmp96:
	movb	-185(%rbp), %al
	movzbl	%al, %ecx
	andl	$1, %ecx
	movq	-160(%rbp), %rdi
	movq	-184(%rbp), %rsi
	movl	%ecx, %edx
	movq	-176(%rbp), %rcx
	callq	__ZN10serde_json2de21Deserializer$LT$R$GT$23parse_exponent_overflow17h5bc22750455fcd10E
Ltmp97:
	jmp	LBB15_64
LBB15_64:
	jmp	LBB15_40
LBB15_65:
	movb	$0, -17(%rbp)
	testb	$1, -145(%rbp)
	jne	LBB15_68
	jmp	LBB15_67
LBB15_66:
	movb	$0, -17(%rbp)
	jmp	LBB15_34
LBB15_67:
	movl	-76(%rbp), %esi
	movl	-164(%rbp), %edi
	callq	__ZN4core3num21_$LT$impl$u20$i32$GT$14saturating_sub17h462f20001e041eabE
	movl	%eax, -24(%rbp)
	jmp	LBB15_70
LBB15_68:
	movl	-76(%rbp), %esi
	movl	-164(%rbp), %edi
	callq	__ZN4core3num21_$LT$impl$u20$i32$GT$14saturating_add17h68629e871c7c6c0eE
	movl	%eax, -24(%rbp)
	jmp	LBB15_71
LBB15_70:
	jmp	LBB15_71
LBB15_71:
	movl	-24(%rbp), %r8d
	movb	-185(%rbp), %al
	movzbl	%al, %ecx
	andl	$1, %ecx
	movq	-160(%rbp), %rdi
	movq	-184(%rbp), %rsi
	movl	%ecx, %edx
	movq	-176(%rbp), %rcx
	callq	__ZN10serde_json2de21Deserializer$LT$R$GT$14f64_from_parts17h7d9afe67a76cc10dE
	jmp	LBB15_7
LBB15_73:
	jmp	LBB15_9
LBB15_74:
	leaq	-144(%rbp), %rdi
	callq	__ZN4core3ptr18real_drop_in_place17hda2544e7c0eb7314E
	jmp	LBB15_73
LBB15_75:
	movb	$0, -18(%rbp)
	jmp	LBB15_23
LBB15_76:
	testb	$1, -18(%rbp)
	je	LBB15_75
	movb	$0, -18(%rbp)
	leaq	-120(%rbp), %rax
	addq	$8, %rax
	movq	%rax, %rdi
	callq	__ZN4core3ptr18real_drop_in_place17h94d8d2616b716ae2E
	jmp	LBB15_75
LBB15_78:
	leaq	-120(%rbp), %rdi
	callq	__ZN4core3ptr18real_drop_in_place17hbd244058d832624cE
	jmp	LBB15_75
LBB15_79:
	movb	$0, -17(%rbp)
	jmp	LBB15_33
LBB15_80:
	testb	$1, -17(%rbp)
	je	LBB15_79
	movb	$0, -17(%rbp)
	leaq	-48(%rbp), %rax
	addq	$8, %rax
	movq	%rax, %rdi
	callq	__ZN4core3ptr18real_drop_in_place17h94d8d2616b716ae2E
	jmp	LBB15_79
LBB15_82:
	leaq	-48(%rbp), %rdi
	callq	__ZN4core3ptr18real_drop_in_place17hda2544e7c0eb7314E
	jmp	LBB15_79
LBB15_83:
Ltmp91:
	movq	%rax, -16(%rbp)
	movl	%edx, -8(%rbp)
	jmp	LBB15_8
LBB15_84:
Ltmp102:
	movq	%rax, -16(%rbp)
	movl	%edx, -8(%rbp)
	jmp	LBB15_39
LBB15_85:
Ltmp100:
	leaq	_str.0(%rip), %rdi
	leaq	l___unnamed_1(%rip), %rdx
	movl	$31, %esi
	callq	__ZN4core9panicking5panic17h4accb85f0b6300d8E
Ltmp101:
	jmp	LBB15_86
LBB15_86:
	ud2
LBB15_87:
Ltmp98:
	leaq	_str.0(%rip), %rdi
	leaq	l___unnamed_2(%rip), %rdx
	movl	$31, %esi
	callq	__ZN4core9panicking5panic17h4accb85f0b6300d8E
Ltmp99:
	jmp	LBB15_86
LBB15_88:
Ltmp94:
	leaq	_str.1(%rip), %rdi
	leaq	l___unnamed_3(%rip), %rdx
	movl	$48, %esi
	callq	__ZN4core9panicking5panic17h4accb85f0b6300d8E
Ltmp95:
	jmp	LBB15_86
LBB15_89:
Ltmp105:
	movq	%rax, -16(%rbp)
	movl	%edx, -8(%rbp)
	jmp	LBB15_21
Lfunc_end7:
	.cfi_endproc
	.section	__TEXT,__gcc_except_tab
	.p2align	2
GCC_except_table15:
Lexception7:
	.byte	255
	.byte	255
	.byte	1
	.uleb128 Lcst_end7-Lcst_begin7
Lcst_begin7:
	.uleb128 Lfunc_begin7-Lfunc_begin7
	.uleb128 Ltmp89-Lfunc_begin7
	.byte	0
	.byte	0
	.uleb128 Ltmp89-Lfunc_begin7
	.uleb128 Ltmp88-Ltmp89
	.uleb128 Ltmp91-Lfunc_begin7
	.byte	0
	.uleb128 Ltmp88-Lfunc_begin7
	.uleb128 Ltmp103-Ltmp88
	.byte	0
	.byte	0
	.uleb128 Ltmp103-Lfunc_begin7
	.uleb128 Ltmp104-Ltmp103
	.uleb128 Ltmp105-Lfunc_begin7
	.byte	0
	.uleb128 Ltmp104-Lfunc_begin7
	.uleb128 Ltmp92-Ltmp104
	.byte	0
	.byte	0
	.uleb128 Ltmp92-Lfunc_begin7
	.uleb128 Ltmp93-Ltmp92
	.uleb128 Ltmp102-Lfunc_begin7
	.byte	0
	.uleb128 Ltmp93-Lfunc_begin7
	.uleb128 Ltmp96-Ltmp93
	.byte	0
	.byte	0
	.uleb128 Ltmp96-Lfunc_begin7
	.uleb128 Ltmp97-Ltmp96
	.uleb128 Ltmp102-Lfunc_begin7
	.byte	0
	.uleb128 Ltmp97-Lfunc_begin7
	.uleb128 Ltmp100-Ltmp97
	.byte	0
	.byte	0
	.uleb128 Ltmp100-Lfunc_begin7
	.uleb128 Ltmp95-Ltmp100
	.uleb128 Ltmp102-Lfunc_begin7
	.byte	0
Lcst_end7:
	.p2align	2

	.section	__TEXT,__text,regular,pure_instructions
	.p2align	4, 0x90
__ZN10serde_json2de21Deserializer$LT$R$GT$16parse_any_number17h6010bfa3b4b0ba4bE:
	.cfi_startproc
	pushq	%rbp
	.cfi_def_cfa_offset 16
	.cfi_offset %rbp, -16
	movq	%rsp, %rbp
	.cfi_def_cfa_register %rbp
	subq	$16, %rsp
	movq	%rdi, %rax
	movzbl	%dl, %ecx
	andl	$1, %ecx
	movl	%ecx, %edx
	movq	%rax, -8(%rbp)
	callq	__ZN10serde_json2de21Deserializer$LT$R$GT$13parse_integer17h63ff08302b0eeee7E
	movq	-8(%rbp), %rax
	addq	$16, %rsp
	popq	%rbp
	retq
	.cfi_endproc

	.p2align	4, 0x90
__ZN10serde_json2de21Deserializer$LT$R$GT$16parse_whitespace17h210e0df4acddc4daE:
Lfunc_begin8:
	.cfi_startproc
	.cfi_personality 155, _rust_eh_personality
	.cfi_lsda 16, Lexception8
	pushq	%rbp
	.cfi_def_cfa_offset 16
	.cfi_offset %rbp, -16
	movq	%rsp, %rbp
	.cfi_def_cfa_register %rbp
	subq	$80, %rsp
	movq	%rdi, %rax
	movb	$0, -17(%rbp)
	movq	%rsi, -56(%rbp)
	movq	%rdi, -64(%rbp)
	movq	%rax, -72(%rbp)
LBB17_1:
	movb	$1, -17(%rbp)
	leaq	-40(%rbp), %rdi
	movq	-56(%rbp), %rsi
	callq	__ZN10serde_json2de21Deserializer$LT$R$GT$4peek17heda9452678a2416aE
	jmp	LBB17_3
LBB17_2:
	movq	-16(%rbp), %rdi
	callq	__Unwind_Resume
	ud2
LBB17_3:
	movzbl	-40(%rbp), %eax
	movl	%eax, %ecx
	testb	$1, %cl
	je	LBB17_5
	jmp	LBB17_19
LBB17_19:
	jmp	LBB17_6
	ud2
LBB17_5:
	movb	-39(%rbp), %al
	movb	-38(%rbp), %cl
	andb	$1, %al
	movb	%al, -48(%rbp)
	movb	%cl, -47(%rbp)
	movb	-48(%rbp), %al
	andb	$1, %al
	movzbl	%al, %edx
	movl	%edx, %esi
	cmpq	$1, %rsi
	je	LBB17_9
	jmp	LBB17_12
LBB17_6:
	movb	$0, -17(%rbp)
	movq	-32(%rbp), %rax
	movq	-64(%rbp), %rcx
	movq	%rax, 8(%rcx)
	movb	$1, (%rcx)
	jmp	LBB17_8
LBB17_7:
	movb	$0, -17(%rbp)
	leaq	-40(%rbp), %rdi
	callq	__ZN4core3ptr18real_drop_in_place17hbd244058d832624cE
	jmp	LBB17_2
LBB17_8:
	movb	-40(%rbp), %al
	andb	$1, %al
	movzbl	%al, %ecx
	movl	%ecx, %edx
	cmpq	$1, %rdx
	je	LBB17_15
	jmp	LBB17_17
LBB17_9:
	movb	-47(%rbp), %al
	movb	%al, %cl
	addb	$-9, %cl
	subb	$2, %cl
	movb	%al, -73(%rbp)
	jb	LBB17_10
	jmp	LBB17_20
LBB17_20:
	movb	-73(%rbp), %al
	subb	$13, %al
	je	LBB17_10
	jmp	LBB17_21
LBB17_21:
	movb	-73(%rbp), %al
	subb	$32, %al
	jne	LBB17_12
	jmp	LBB17_10
LBB17_10:
Ltmp106:
	movq	-56(%rbp), %rdi
	callq	__ZN10serde_json2de21Deserializer$LT$R$GT$8eat_char17h27880c16013f818fE
Ltmp107:
	jmp	LBB17_11
LBB17_11:
	movb	$0, -17(%rbp)
	leaq	-40(%rbp), %rdi
	callq	__ZN4core3ptr18real_drop_in_place17hbd244058d832624cE
	jmp	LBB17_13
LBB17_12:
	movb	-48(%rbp), %al
	movb	-47(%rbp), %cl
	andb	$1, %al
	movq	-64(%rbp), %rdx
	movb	%al, 1(%rdx)
	movb	%cl, 2(%rdx)
	movb	$0, (%rdx)
	jmp	LBB17_8
LBB17_13:
	movb	$0, -17(%rbp)
	jmp	LBB17_1
LBB17_14:
	movb	$0, -17(%rbp)
	movq	-72(%rbp), %rax
	addq	$80, %rsp
	popq	%rbp
	retq
LBB17_15:
	testb	$1, -17(%rbp)
	je	LBB17_14
	movb	$0, -17(%rbp)
	leaq	-40(%rbp), %rax
	addq	$8, %rax
	movq	%rax, %rdi
	callq	__ZN4core3ptr18real_drop_in_place17h94d8d2616b716ae2E
	jmp	LBB17_14
LBB17_17:
	leaq	-40(%rbp), %rdi
	callq	__ZN4core3ptr18real_drop_in_place17hbd244058d832624cE
	jmp	LBB17_14
LBB17_18:
Ltmp108:
	movq	%rax, -16(%rbp)
	movl	%edx, -8(%rbp)
	jmp	LBB17_7
Lfunc_end8:
	.cfi_endproc
	.section	__TEXT,__gcc_except_tab
	.p2align	2
GCC_except_table17:
Lexception8:
	.byte	255
	.byte	255
	.byte	1
	.uleb128 Lcst_end8-Lcst_begin8
Lcst_begin8:
	.uleb128 Lfunc_begin8-Lfunc_begin8
	.uleb128 Ltmp106-Lfunc_begin8
	.byte	0
	.byte	0
	.uleb128 Ltmp106-Lfunc_begin8
	.uleb128 Ltmp107-Ltmp106
	.uleb128 Ltmp108-Lfunc_begin8
	.byte	0
	.uleb128 Ltmp107-Lfunc_begin8
	.uleb128 Lfunc_end8-Ltmp107
	.byte	0
	.byte	0
Lcst_end8:
	.p2align	2

	.section	__TEXT,__text,regular,pure_instructions
	.p2align	4, 0x90
__ZN10serde_json2de21Deserializer$LT$R$GT$18parse_long_integer17hb31b4fa604dd876bE:
Lfunc_begin9:
	.cfi_startproc
	.cfi_personality 155, _rust_eh_personality
	.cfi_lsda 16, Lexception9
	pushq	%rbp
	.cfi_def_cfa_offset 16
	.cfi_offset %rbp, -16
	movq	%rsp, %rbp
	.cfi_def_cfa_register %rbp
	subq	$96, %rsp
	movq	%rdi, %rax
	movl	%r8d, -44(%rbp)
	movb	$0, -17(%rbp)
	movq	%rcx, -56(%rbp)
	movq	%rsi, -64(%rbp)
	movq	%rdi, -72(%rbp)
	movb	%dl, -73(%rbp)
	movq	%rax, -88(%rbp)
LBB18_1:
	movb	$1, -17(%rbp)
	leaq	-40(%rbp), %rdi
	movq	-64(%rbp), %rsi
	callq	__ZN10serde_json2de21Deserializer$LT$R$GT$12peek_or_null17hb35dfed309bd4e58E
	jmp	LBB18_3
LBB18_2:
	movq	-16(%rbp), %rdi
	callq	__Unwind_Resume
	ud2
LBB18_3:
	movzbl	-40(%rbp), %eax
	movl	%eax, %ecx
	testb	$1, %cl
	je	LBB18_5
	jmp	LBB18_25
LBB18_25:
	jmp	LBB18_6
	ud2
LBB18_5:
	movb	-39(%rbp), %al
	movb	$48, %cl
	cmpb	%al, %cl
	movb	%al, -89(%rbp)
	jbe	LBB18_12
	jmp	LBB18_13
LBB18_6:
	movb	$0, -17(%rbp)
	movq	-32(%rbp), %rax
	movq	-72(%rbp), %rcx
	movq	%rax, 8(%rcx)
	movq	$1, (%rcx)
	jmp	LBB18_8
LBB18_7:
	movb	$0, -17(%rbp)
	leaq	-40(%rbp), %rdi
	callq	__ZN4core3ptr18real_drop_in_place17hda2544e7c0eb7314E
	jmp	LBB18_2
LBB18_8:
	movb	-40(%rbp), %al
	andb	$1, %al
	movzbl	%al, %ecx
	movl	%ecx, %edx
	cmpq	$1, %rdx
	je	LBB18_21
	jmp	LBB18_23
LBB18_9:
Ltmp115:
	movq	-64(%rbp), %rdi
	callq	__ZN10serde_json2de21Deserializer$LT$R$GT$8eat_char17h27880c16013f818fE
Ltmp116:
	jmp	LBB18_14
LBB18_10:
	movl	-44(%rbp), %r8d
Ltmp111:
	movb	-73(%rbp), %al
	movzbl	%al, %ecx
	andl	$1, %ecx
	movq	-72(%rbp), %rdi
	movq	-64(%rbp), %rsi
	movl	%ecx, %edx
	movq	-56(%rbp), %rcx
	callq	__ZN10serde_json2de21Deserializer$LT$R$GT$13parse_decimal17habee609a866cc241E
Ltmp112:
	jmp	LBB18_15
LBB18_11:
	movl	-44(%rbp), %r8d
Ltmp113:
	movb	-73(%rbp), %al
	movzbl	%al, %ecx
	andl	$1, %ecx
	movq	-72(%rbp), %rdi
	movq	-64(%rbp), %rsi
	movl	%ecx, %edx
	movq	-56(%rbp), %rcx
	callq	__ZN10serde_json2de21Deserializer$LT$R$GT$14f64_from_parts17h7d9afe67a76cc10dE
Ltmp114:
	jmp	LBB18_18
LBB18_12:
	movb	-89(%rbp), %al
	cmpb	$57, %al
	jbe	LBB18_9
LBB18_13:
	movb	-89(%rbp), %al
	subb	$46, %al
	je	LBB18_10
	jmp	LBB18_26
LBB18_26:
	movb	-89(%rbp), %al
	subb	$69, %al
	je	LBB18_16
	jmp	LBB18_27
LBB18_27:
	movb	-89(%rbp), %al
	subb	$101, %al
	je	LBB18_16
	jmp	LBB18_11
LBB18_14:
	movl	-44(%rbp), %eax
	addl	$1, %eax
	movl	%eax, -44(%rbp)
	movb	$0, -17(%rbp)
	leaq	-40(%rbp), %rdi
	callq	__ZN4core3ptr18real_drop_in_place17hda2544e7c0eb7314E
	jmp	LBB18_19
LBB18_15:
	jmp	LBB18_8
LBB18_16:
	movl	-44(%rbp), %r8d
Ltmp109:
	movb	-73(%rbp), %al
	movzbl	%al, %ecx
	andl	$1, %ecx
	movq	-72(%rbp), %rdi
	movq	-64(%rbp), %rsi
	movl	%ecx, %edx
	movq	-56(%rbp), %rcx
	callq	__ZN10serde_json2de21Deserializer$LT$R$GT$14parse_exponent17h88fb6703e140e55bE
Ltmp110:
	jmp	LBB18_17
LBB18_17:
	jmp	LBB18_8
LBB18_18:
	jmp	LBB18_8
LBB18_19:
	movb	$0, -17(%rbp)
	jmp	LBB18_1
LBB18_20:
	movb	$0, -17(%rbp)
	movq	-88(%rbp), %rax
	addq	$96, %rsp
	popq	%rbp
	retq
LBB18_21:
	testb	$1, -17(%rbp)
	je	LBB18_20
	movb	$0, -17(%rbp)
	leaq	-40(%rbp), %rax
	addq	$8, %rax
	movq	%rax, %rdi
	callq	__ZN4core3ptr18real_drop_in_place17h94d8d2616b716ae2E
	jmp	LBB18_20
LBB18_23:
	leaq	-40(%rbp), %rdi
	callq	__ZN4core3ptr18real_drop_in_place17hda2544e7c0eb7314E
	jmp	LBB18_20
LBB18_24:
Ltmp117:
	movq	%rax, -16(%rbp)
	movl	%edx, -8(%rbp)
	jmp	LBB18_7
Lfunc_end9:
	.cfi_endproc
	.section	__TEXT,__gcc_except_tab
	.p2align	2
GCC_except_table18:
Lexception9:
	.byte	255
	.byte	255
	.byte	1
	.uleb128 Lcst_end9-Lcst_begin9
Lcst_begin9:
	.uleb128 Lfunc_begin9-Lfunc_begin9
	.uleb128 Ltmp115-Lfunc_begin9
	.byte	0
	.byte	0
	.uleb128 Ltmp115-Lfunc_begin9
	.uleb128 Ltmp114-Ltmp115
	.uleb128 Ltmp117-Lfunc_begin9
	.byte	0
	.uleb128 Ltmp114-Lfunc_begin9
	.uleb128 Ltmp109-Ltmp114
	.byte	0
	.byte	0
	.uleb128 Ltmp109-Lfunc_begin9
	.uleb128 Ltmp110-Ltmp109
	.uleb128 Ltmp117-Lfunc_begin9
	.byte	0
	.uleb128 Ltmp110-Lfunc_begin9
	.uleb128 Lfunc_end9-Ltmp110
	.byte	0
	.byte	0
Lcst_end9:
	.p2align	2

	.section	__TEXT,__text,regular,pure_instructions
	.p2align	4, 0x90
__ZN10serde_json2de21Deserializer$LT$R$GT$18parse_object_colon17h2f365d57f6a97b57E:
Lfunc_begin10:
	.cfi_startproc
	.cfi_personality 155, _rust_eh_personality
	.cfi_lsda 16, Lexception10
	pushq	%rbp
	.cfi_def_cfa_offset 16
	.cfi_offset %rbp, -16
	movq	%rsp, %rbp
	.cfi_def_cfa_register %rbp
	subq	$128, %rsp
	leaq	-88(%rbp), %rax
	movq	%rdi, -112(%rbp)
	movq	%rax, %rdi
	movq	-112(%rbp), %rsi
	callq	__ZN10serde_json2de21Deserializer$LT$R$GT$16parse_whitespace17h210e0df4acddc4daE
	jmp	LBB19_2
LBB19_1:
	movq	-16(%rbp), %rdi
	callq	__Unwind_Resume
	ud2
LBB19_2:
	movzbl	-88(%rbp), %eax
	movl	%eax, %ecx
	testb	$1, %cl
	je	LBB19_4
	jmp	LBB19_21
LBB19_21:
	jmp	LBB19_5
	ud2
LBB19_4:
	movb	-87(%rbp), %al
	movb	-86(%rbp), %cl
	movb	%al, -96(%rbp)
	movb	%cl, -95(%rbp)
	movzbl	-96(%rbp), %edx
	movl	%edx, %esi
	testb	$1, %sil
	je	LBB19_10
	jmp	LBB19_22
LBB19_22:
	jmp	LBB19_11
LBB19_5:
	movq	-80(%rbp), %rax
	movq	%rax, -104(%rbp)
	movb	-88(%rbp), %cl
	andb	$1, %cl
	movzbl	%cl, %edx
	movl	%edx, %eax
	cmpq	$1, %rax
	je	LBB19_18
	jmp	LBB19_19
LBB19_6:
	movq	-104(%rbp), %rax
	addq	$128, %rsp
	popq	%rbp
	retq
LBB19_7:
	leaq	-88(%rbp), %rdi
	callq	__ZN4core3ptr18real_drop_in_place17hbd244058d832624cE
	jmp	LBB19_1
LBB19_8:
Ltmp120:
	movq	-112(%rbp), %rdi
	callq	__ZN10serde_json2de21Deserializer$LT$R$GT$8eat_char17h27880c16013f818fE
Ltmp121:
	jmp	LBB19_13
LBB19_9:
	movq	$6, -64(%rbp)
Ltmp118:
	leaq	-64(%rbp), %rsi
	movq	-112(%rbp), %rdi
	callq	__ZN10serde_json2de21Deserializer$LT$R$GT$10peek_error17hc91437f5405786d2E
Ltmp119:
	movq	%rax, -120(%rbp)
	jmp	LBB19_14
LBB19_10:
	movq	$3, -40(%rbp)
Ltmp122:
	leaq	-40(%rbp), %rsi
	movq	-112(%rbp), %rdi
	callq	__ZN10serde_json2de21Deserializer$LT$R$GT$10peek_error17hc91437f5405786d2E
Ltmp123:
	movq	%rax, -128(%rbp)
	jmp	LBB19_15
LBB19_11:
	cmpb	$58, -95(%rbp)
	je	LBB19_8
	jmp	LBB19_9
	ud2
LBB19_13:
	movq	$0, -104(%rbp)
	jmp	LBB19_16
LBB19_14:
	movq	-120(%rbp), %rax
	movq	%rax, -104(%rbp)
	jmp	LBB19_16
LBB19_15:
	movq	-128(%rbp), %rax
	movq	%rax, -104(%rbp)
LBB19_16:
	leaq	-88(%rbp), %rdi
	callq	__ZN4core3ptr18real_drop_in_place17hbd244058d832624cE
	jmp	LBB19_6
LBB19_18:
	jmp	LBB19_6
LBB19_19:
	leaq	-88(%rbp), %rdi
	callq	__ZN4core3ptr18real_drop_in_place17hbd244058d832624cE
	jmp	LBB19_18
LBB19_20:
Ltmp124:
	movq	%rax, -16(%rbp)
	movl	%edx, -8(%rbp)
	jmp	LBB19_7
Lfunc_end10:
	.cfi_endproc
	.section	__TEXT,__gcc_except_tab
	.p2align	2
GCC_except_table19:
Lexception10:
	.byte	255
	.byte	255
	.byte	1
	.uleb128 Lcst_end10-Lcst_begin10
Lcst_begin10:
	.uleb128 Lfunc_begin10-Lfunc_begin10
	.uleb128 Ltmp120-Lfunc_begin10
	.byte	0
	.byte	0
	.uleb128 Ltmp120-Lfunc_begin10
	.uleb128 Ltmp123-Ltmp120
	.uleb128 Ltmp124-Lfunc_begin10
	.byte	0
	.uleb128 Ltmp123-Lfunc_begin10
	.uleb128 Lfunc_end10-Ltmp123
	.byte	0
	.byte	0
Lcst_end10:
	.p2align	2

	.section	__TEXT,__literal8,8byte_literals
	.p2align	3
LCPI20_0:
	.quad	-9223372036854775808
	.section	__TEXT,__text,regular,pure_instructions
	.p2align	4, 0x90
__ZN10serde_json2de21Deserializer$LT$R$GT$23parse_exponent_overflow17h5bc22750455fcd10E:
Lfunc_begin11:
	.cfi_startproc
	.cfi_personality 155, _rust_eh_personality
	.cfi_lsda 16, Lexception11
	pushq	%rbp
	.cfi_def_cfa_offset 16
	.cfi_offset %rbp, -16
	movq	%rsp, %rbp
	.cfi_def_cfa_register %rbp
	subq	$128, %rsp
	movq	%rdi, %rax
	cmpq	$0, %rcx
	movq	%rsi, -80(%rbp)
	movq	%rdi, -88(%rbp)
	movb	%r8b, -89(%rbp)
	movb	%dl, -90(%rbp)
	movq	%rax, -104(%rbp)
	jne	LBB20_3
	jmp	LBB20_2
LBB20_1:
	movb	$1, -65(%rbp)
	jmp	LBB20_4
LBB20_2:
	movb	$0, -65(%rbp)
	jmp	LBB20_4
LBB20_3:
	movb	-89(%rbp), %al
	testb	$1, %al
	jne	LBB20_1
	jmp	LBB20_2
LBB20_4:
	testb	$1, -65(%rbp)
	jne	LBB20_7
	jmp	LBB20_6
LBB20_5:
	movq	-16(%rbp), %rdi
	callq	__Unwind_Resume
	ud2
LBB20_6:
	jmp	LBB20_10
LBB20_7:
	movq	$15, -64(%rbp)
	movq	-80(%rbp), %rdi
	leaq	-64(%rbp), %rsi
	callq	__ZN10serde_json2de21Deserializer$LT$R$GT$5error17h608cc2aecfbde555E
	movq	%rax, -112(%rbp)
	jmp	LBB20_9
LBB20_8:
	movq	-104(%rbp), %rax
	addq	$128, %rsp
	popq	%rbp
	retq
LBB20_9:
	movq	-88(%rbp), %rax
	movq	-112(%rbp), %rcx
	movq	%rcx, 8(%rax)
	movq	$1, (%rax)
	jmp	LBB20_8
LBB20_10:
	leaq	-40(%rbp), %rdi
	movq	-80(%rbp), %rsi
	callq	__ZN10serde_json2de21Deserializer$LT$R$GT$12peek_or_null17hb35dfed309bd4e58E
	movzbl	-40(%rbp), %eax
	movl	%eax, %ecx
	testb	$1, %cl
	je	LBB20_13
	jmp	LBB20_28
LBB20_28:
	jmp	LBB20_14
	ud2
LBB20_13:
	movb	-39(%rbp), %al
	movb	$48, %cl
	cmpb	%al, %cl
	movb	%al, -113(%rbp)
	jbe	LBB20_18
	jmp	LBB20_17
LBB20_14:
	movq	-32(%rbp), %rax
	movq	-88(%rbp), %rcx
	movq	%rax, 8(%rcx)
	movq	$1, (%rcx)
	movb	-40(%rbp), %dl
	andb	$1, %dl
	movzbl	%dl, %esi
	movl	%esi, %eax
	cmpq	$1, %rax
	je	LBB20_25
	jmp	LBB20_26
LBB20_15:
	leaq	-40(%rbp), %rdi
	callq	__ZN4core3ptr18real_drop_in_place17hda2544e7c0eb7314E
	jmp	LBB20_5
LBB20_16:
Ltmp125:
	movq	-80(%rbp), %rdi
	callq	__ZN10serde_json2de21Deserializer$LT$R$GT$8eat_char17h27880c16013f818fE
Ltmp126:
	jmp	LBB20_19
LBB20_17:
	leaq	-40(%rbp), %rdi
	callq	__ZN4core3ptr18real_drop_in_place17hda2544e7c0eb7314E
	jmp	LBB20_20
LBB20_18:
	movb	-113(%rbp), %al
	cmpb	$57, %al
	jbe	LBB20_16
	jmp	LBB20_17
LBB20_19:
	leaq	-40(%rbp), %rdi
	callq	__ZN4core3ptr18real_drop_in_place17hda2544e7c0eb7314E
	jmp	LBB20_21
LBB20_20:
	movb	-90(%rbp), %al
	testb	$1, %al
	jne	LBB20_23
	jmp	LBB20_22
LBB20_21:
	jmp	LBB20_10
LBB20_22:
	movsd	LCPI20_0(%rip), %xmm0
	movsd	%xmm0, -24(%rbp)
	jmp	LBB20_24
LBB20_23:
	xorps	%xmm0, %xmm0
	movsd	%xmm0, -24(%rbp)
LBB20_24:
	movsd	-24(%rbp), %xmm0
	movq	-88(%rbp), %rax
	movsd	%xmm0, 8(%rax)
	movq	$0, (%rax)
	jmp	LBB20_8
LBB20_25:
	jmp	LBB20_8
LBB20_26:
	leaq	-40(%rbp), %rdi
	callq	__ZN4core3ptr18real_drop_in_place17hda2544e7c0eb7314E
	jmp	LBB20_25
LBB20_27:
Ltmp127:
	movq	%rax, -16(%rbp)
	movl	%edx, -8(%rbp)
	jmp	LBB20_15
Lfunc_end11:
	.cfi_endproc
	.section	__TEXT,__gcc_except_tab
	.p2align	2
GCC_except_table20:
Lexception11:
	.byte	255
	.byte	255
	.byte	1
	.uleb128 Lcst_end11-Lcst_begin11
Lcst_begin11:
	.uleb128 Lfunc_begin11-Lfunc_begin11
	.uleb128 Ltmp125-Lfunc_begin11
	.byte	0
	.byte	0
	.uleb128 Ltmp125-Lfunc_begin11
	.uleb128 Ltmp126-Ltmp125
	.uleb128 Ltmp127-Lfunc_begin11
	.byte	0
	.uleb128 Ltmp126-Lfunc_begin11
	.uleb128 Lfunc_end11-Ltmp126
	.byte	0
	.byte	0
Lcst_end11:
	.p2align	2

	.section	__TEXT,__text,regular,pure_instructions
	.p2align	4, 0x90
__ZN10serde_json2de21Deserializer$LT$R$GT$3end17hcbcbe374b4655a15E:
Lfunc_begin12:
	.cfi_startproc
	.cfi_personality 155, _rust_eh_personality
	.cfi_lsda 16, Lexception12
	pushq	%rbp
	.cfi_def_cfa_offset 16
	.cfi_offset %rbp, -16
	movq	%rsp, %rbp
	.cfi_def_cfa_register %rbp
	subq	$96, %rsp
	leaq	-64(%rbp), %rax
	movq	%rdi, -88(%rbp)
	movq	%rax, %rdi
	movq	-88(%rbp), %rsi
	callq	__ZN10serde_json2de21Deserializer$LT$R$GT$16parse_whitespace17h210e0df4acddc4daE
	jmp	LBB21_2
LBB21_1:
	movq	-16(%rbp), %rdi
	callq	__Unwind_Resume
	ud2
LBB21_2:
	movzbl	-64(%rbp), %eax
	movl	%eax, %ecx
	testb	$1, %cl
	je	LBB21_4
	jmp	LBB21_17
LBB21_17:
	jmp	LBB21_5
	ud2
LBB21_4:
	movb	-63(%rbp), %al
	movb	-62(%rbp), %cl
	movb	%al, -72(%rbp)
	movb	%cl, -71(%rbp)
	movzbl	-72(%rbp), %edx
	movl	%edx, %esi
	testb	$1, %sil
	je	LBB21_8
	jmp	LBB21_18
LBB21_18:
	jmp	LBB21_10
LBB21_5:
	movq	-56(%rbp), %rax
	movq	%rax, -80(%rbp)
	movb	-64(%rbp), %cl
	andb	$1, %cl
	movzbl	%cl, %edx
	movl	%edx, %eax
	cmpq	$1, %rax
	je	LBB21_14
	jmp	LBB21_15
LBB21_6:
	movq	-80(%rbp), %rax
	addq	$96, %rsp
	popq	%rbp
	retq
LBB21_7:
	leaq	-64(%rbp), %rdi
	callq	__ZN4core3ptr18real_drop_in_place17hbd244058d832624cE
	jmp	LBB21_1
LBB21_8:
	movq	$0, -80(%rbp)
	jmp	LBB21_12
	ud2
LBB21_10:
	movq	$21, -48(%rbp)
Ltmp128:
	leaq	-48(%rbp), %rsi
	movq	-88(%rbp), %rdi
	callq	__ZN10serde_json2de21Deserializer$LT$R$GT$10peek_error17hc91437f5405786d2E
Ltmp129:
	movq	%rax, -96(%rbp)
	jmp	LBB21_11
LBB21_11:
	movq	-96(%rbp), %rax
	movq	%rax, -80(%rbp)
LBB21_12:
	leaq	-64(%rbp), %rdi
	callq	__ZN4core3ptr18real_drop_in_place17hbd244058d832624cE
	jmp	LBB21_6
LBB21_14:
	jmp	LBB21_6
LBB21_15:
	leaq	-64(%rbp), %rdi
	callq	__ZN4core3ptr18real_drop_in_place17hbd244058d832624cE
	jmp	LBB21_14
LBB21_16:
Ltmp130:
	movq	%rax, -16(%rbp)
	movl	%edx, -8(%rbp)
	jmp	LBB21_7
Lfunc_end12:
	.cfi_endproc
	.section	__TEXT,__gcc_except_tab
	.p2align	2
GCC_except_table21:
Lexception12:
	.byte	255
	.byte	255
	.byte	1
	.uleb128 Lcst_end12-Lcst_begin12
Lcst_begin12:
	.uleb128 Lfunc_begin12-Lfunc_begin12
	.uleb128 Ltmp128-Lfunc_begin12
	.byte	0
	.byte	0
	.uleb128 Ltmp128-Lfunc_begin12
	.uleb128 Ltmp129-Ltmp128
	.uleb128 Ltmp130-Lfunc_begin12
	.byte	0
	.uleb128 Ltmp129-Lfunc_begin12
	.uleb128 Lfunc_end12-Ltmp129
	.byte	0
	.byte	0
Lcst_end12:
	.p2align	2

	.section	__TEXT,__text,regular,pure_instructions
	.p2align	4, 0x90
__ZN10serde_json2de21Deserializer$LT$R$GT$3new17h15325ca982be86c9E:
Lfunc_begin13:
	.cfi_startproc
	.cfi_personality 155, _rust_eh_personality
	.cfi_lsda 16, Lexception13
	pushq	%rbp
	.cfi_def_cfa_offset 16
	.cfi_offset %rbp, -16
	movq	%rsp, %rbp
	.cfi_def_cfa_register %rbp
	subq	$80, %rsp
	movq	%rdi, %rax
	movq	16(%rsi), %rcx
	movq	%rcx, -48(%rbp)
	movq	(%rsi), %rcx
	movq	8(%rsi), %rdx
	movq	%rdx, -56(%rbp)
	movq	%rcx, -64(%rbp)
Ltmp131:
	leaq	-40(%rbp), %rcx
	movq	%rdi, -72(%rbp)
	movq	%rcx, %rdi
	movq	%rax, -80(%rbp)
	callq	__ZN5alloc3vec12Vec$LT$T$GT$3new17h193ac73394eb716fE
Ltmp132:
	jmp	LBB22_1
LBB22_1:
	movq	-64(%rbp), %rax
	movq	-72(%rbp), %rcx
	movq	%rax, (%rcx)
	movq	-56(%rbp), %rax
	movq	%rax, 8(%rcx)
	movq	-48(%rbp), %rax
	movq	%rax, 16(%rcx)
	movq	-40(%rbp), %rax
	movq	%rax, 24(%rcx)
	movq	-32(%rbp), %rax
	movq	%rax, 32(%rcx)
	movq	-24(%rbp), %rax
	movq	%rax, 40(%rcx)
	movb	$-128, 48(%rcx)
	movq	-80(%rbp), %rax
	addq	$80, %rsp
	popq	%rbp
	retq
LBB22_2:
	movq	-16(%rbp), %rdi
	callq	__Unwind_Resume
	ud2
LBB22_3:
	jmp	LBB22_2
LBB22_4:
Ltmp133:
	movq	%rax, -16(%rbp)
	movl	%edx, -8(%rbp)
	jmp	LBB22_3
Lfunc_end13:
	.cfi_endproc
	.section	__TEXT,__gcc_except_tab
	.p2align	2
GCC_except_table22:
Lexception13:
	.byte	255
	.byte	255
	.byte	1
	.uleb128 Lcst_end13-Lcst_begin13
Lcst_begin13:
	.uleb128 Ltmp131-Lfunc_begin13
	.uleb128 Ltmp132-Ltmp131
	.uleb128 Ltmp133-Lfunc_begin13
	.byte	0
	.uleb128 Ltmp132-Lfunc_begin13
	.uleb128 Lfunc_end13-Ltmp132
	.byte	0
	.byte	0
Lcst_end13:
	.p2align	2

	.section	__TEXT,__text,regular,pure_instructions
	.p2align	4, 0x90
__ZN10serde_json2de21Deserializer$LT$R$GT$4peek17heda9452678a2416aE:
	.cfi_startproc
	pushq	%rbp
	.cfi_def_cfa_offset 16
	.cfi_offset %rbp, -16
	movq	%rsp, %rbp
	.cfi_def_cfa_register %rbp
	subq	$16, %rsp
	movq	%rdi, %rax
	movq	%rsi, -8(%rbp)
	movq	-8(%rbp), %rcx
	movq	%rcx, %rsi
	movq	%rax, -16(%rbp)
	callq	__ZN68_$LT$serde_json..read..StrRead$u20$as$u20$serde_json..read..Read$GT$4peek17hfc3d3cc0e9ebdf09E
	movq	-16(%rbp), %rax
	addq	$16, %rsp
	popq	%rbp
	retq
	.cfi_endproc

	.p2align	4, 0x90
__ZN10serde_json2de21Deserializer$LT$R$GT$5error17h608cc2aecfbde555E:
Lfunc_begin14:
	.cfi_startproc
	.cfi_personality 155, _rust_eh_personality
	.cfi_lsda 16, Lexception14
	pushq	%rbp
	.cfi_def_cfa_offset 16
	.cfi_offset %rbp, -16
	movq	%rsp, %rbp
	.cfi_def_cfa_register %rbp
	subq	$96, %rsp
	movq	%rdi, -56(%rbp)
	movb	$0, -17(%rbp)
	movb	$1, -17(%rbp)
	movq	-56(%rbp), %rdi
Ltmp134:
	movq	%rsi, -64(%rbp)
	callq	__ZN68_$LT$serde_json..read..StrRead$u20$as$u20$serde_json..read..Read$GT$8position17h0de67cf19128ec6bE
Ltmp135:
	movq	%rdx, -72(%rbp)
	movq	%rax, -80(%rbp)
	jmp	LBB24_2
LBB24_1:
	movq	-16(%rbp), %rdi
	callq	__Unwind_Resume
	ud2
LBB24_2:
	movb	$0, -17(%rbp)
	movq	-64(%rbp), %rax
	movq	16(%rax), %rcx
	movq	%rcx, -32(%rbp)
	movq	(%rax), %rcx
	movq	8(%rax), %rdx
	movq	%rdx, -40(%rbp)
	movq	%rcx, -48(%rbp)
Ltmp136:
	leaq	-48(%rbp), %rdi
	movq	-80(%rbp), %rsi
	movq	-72(%rbp), %rdx
	callq	__ZN10serde_json5error5Error6syntax17h5970e7652e1e592cE
Ltmp137:
	movq	%rax, -88(%rbp)
	jmp	LBB24_3
LBB24_3:
	movq	-88(%rbp), %rax
	addq	$96, %rsp
	popq	%rbp
	retq
LBB24_4:
	movb	$0, -17(%rbp)
	movq	-64(%rbp), %rdi
	callq	__ZN4core3ptr18real_drop_in_place17h61d59176afeb8a22E
	jmp	LBB24_1
LBB24_5:
	testb	$1, -17(%rbp)
	jne	LBB24_4
	jmp	LBB24_1
LBB24_6:
Ltmp138:
	movq	%rax, -16(%rbp)
	movl	%edx, -8(%rbp)
	jmp	LBB24_5
Lfunc_end14:
	.cfi_endproc
	.section	__TEXT,__gcc_except_tab
	.p2align	2
GCC_except_table24:
Lexception14:
	.byte	255
	.byte	255
	.byte	1
	.uleb128 Lcst_end14-Lcst_begin14
Lcst_begin14:
	.uleb128 Ltmp134-Lfunc_begin14
	.uleb128 Ltmp135-Ltmp134
	.uleb128 Ltmp138-Lfunc_begin14
	.byte	0
	.uleb128 Ltmp135-Lfunc_begin14
	.uleb128 Ltmp136-Ltmp135
	.byte	0
	.byte	0
	.uleb128 Ltmp136-Lfunc_begin14
	.uleb128 Ltmp137-Ltmp136
	.uleb128 Ltmp138-Lfunc_begin14
	.byte	0
	.uleb128 Ltmp137-Lfunc_begin14
	.uleb128 Lfunc_end14-Ltmp137
	.byte	0
	.byte	0
Lcst_end14:
	.p2align	2

	.section	__TEXT,__text,regular,pure_instructions
	.p2align	4, 0x90
__ZN10serde_json2de21Deserializer$LT$R$GT$7end_map17hd390008053535ac2E:
Lfunc_begin15:
	.cfi_startproc
	.cfi_personality 155, _rust_eh_personality
	.cfi_lsda 16, Lexception15
	pushq	%rbp
	.cfi_def_cfa_offset 16
	.cfi_offset %rbp, -16
	movq	%rsp, %rbp
	.cfi_def_cfa_register %rbp
	subq	$176, %rsp
	leaq	-112(%rbp), %rax
	movq	%rdi, -136(%rbp)
	movq	%rax, %rdi
	movq	-136(%rbp), %rsi
	callq	__ZN10serde_json2de21Deserializer$LT$R$GT$16parse_whitespace17h210e0df4acddc4daE
	jmp	LBB25_2
LBB25_1:
	movq	-16(%rbp), %rdi
	callq	__Unwind_Resume
	ud2
LBB25_2:
	movzbl	-112(%rbp), %eax
	movl	%eax, %ecx
	testb	$1, %cl
	je	LBB25_4
	jmp	LBB25_23
LBB25_23:
	jmp	LBB25_5
	ud2
LBB25_4:
	movb	-111(%rbp), %al
	movb	-110(%rbp), %cl
	movb	%al, -120(%rbp)
	movb	%cl, -119(%rbp)
	movzbl	-120(%rbp), %edx
	movl	%edx, %esi
	testb	$1, %sil
	je	LBB25_11
	jmp	LBB25_24
LBB25_24:
	jmp	LBB25_12
LBB25_5:
	movq	-104(%rbp), %rax
	movq	%rax, -128(%rbp)
	movb	-112(%rbp), %cl
	andb	$1, %cl
	movzbl	%cl, %edx
	movl	%edx, %eax
	cmpq	$1, %rax
	je	LBB25_20
	jmp	LBB25_21
LBB25_6:
	movq	-128(%rbp), %rax
	addq	$176, %rsp
	popq	%rbp
	retq
LBB25_7:
	leaq	-112(%rbp), %rdi
	callq	__ZN4core3ptr18real_drop_in_place17hbd244058d832624cE
	jmp	LBB25_1
LBB25_8:
Ltmp141:
	movq	-136(%rbp), %rdi
	callq	__ZN10serde_json2de21Deserializer$LT$R$GT$8eat_char17h27880c16013f818fE
Ltmp142:
	jmp	LBB25_14
LBB25_9:
	movq	$20, -88(%rbp)
Ltmp139:
	leaq	-88(%rbp), %rsi
	movq	-136(%rbp), %rdi
	callq	__ZN10serde_json2de21Deserializer$LT$R$GT$10peek_error17hc91437f5405786d2E
Ltmp140:
	movq	%rax, -144(%rbp)
	jmp	LBB25_15
LBB25_10:
	movq	$21, -64(%rbp)
Ltmp143:
	leaq	-64(%rbp), %rsi
	movq	-136(%rbp), %rdi
	callq	__ZN10serde_json2de21Deserializer$LT$R$GT$10peek_error17hc91437f5405786d2E
Ltmp144:
	movq	%rax, -152(%rbp)
	jmp	LBB25_16
LBB25_11:
	movq	$3, -40(%rbp)
Ltmp145:
	leaq	-40(%rbp), %rsi
	movq	-136(%rbp), %rdi
	callq	__ZN10serde_json2de21Deserializer$LT$R$GT$10peek_error17hc91437f5405786d2E
Ltmp146:
	movq	%rax, -160(%rbp)
	jmp	LBB25_17
LBB25_12:
	movb	-119(%rbp), %al
	movb	%al, %cl
	subb	$44, %cl
	movb	%al, -161(%rbp)
	je	LBB25_9
	jmp	LBB25_25
LBB25_25:
	movb	-161(%rbp), %al
	subb	$125, %al
	je	LBB25_8
	jmp	LBB25_10
	ud2
LBB25_14:
	movq	$0, -128(%rbp)
	jmp	LBB25_18
LBB25_15:
	movq	-144(%rbp), %rax
	movq	%rax, -128(%rbp)
	jmp	LBB25_18
LBB25_16:
	movq	-152(%rbp), %rax
	movq	%rax, -128(%rbp)
	jmp	LBB25_18
LBB25_17:
	movq	-160(%rbp), %rax
	movq	%rax, -128(%rbp)
LBB25_18:
	leaq	-112(%rbp), %rdi
	callq	__ZN4core3ptr18real_drop_in_place17hbd244058d832624cE
	jmp	LBB25_6
LBB25_20:
	jmp	LBB25_6
LBB25_21:
	leaq	-112(%rbp), %rdi
	callq	__ZN4core3ptr18real_drop_in_place17hbd244058d832624cE
	jmp	LBB25_20
LBB25_22:
Ltmp147:
	movq	%rax, -16(%rbp)
	movl	%edx, -8(%rbp)
	jmp	LBB25_7
Lfunc_end15:
	.cfi_endproc
	.section	__TEXT,__gcc_except_tab
	.p2align	2
GCC_except_table25:
Lexception15:
	.byte	255
	.byte	255
	.byte	1
	.uleb128 Lcst_end15-Lcst_begin15
Lcst_begin15:
	.uleb128 Lfunc_begin15-Lfunc_begin15
	.uleb128 Ltmp141-Lfunc_begin15
	.byte	0
	.byte	0
	.uleb128 Ltmp141-Lfunc_begin15
	.uleb128 Ltmp146-Ltmp141
	.uleb128 Ltmp147-Lfunc_begin15
	.byte	0
	.uleb128 Ltmp146-Lfunc_begin15
	.uleb128 Lfunc_end15-Ltmp146
	.byte	0
	.byte	0
Lcst_end15:
	.p2align	2

	.section	__TEXT,__text,regular,pure_instructions
	.p2align	4, 0x90
__ZN10serde_json2de21Deserializer$LT$R$GT$7end_seq17h3ccaa04e00784a12E:
Lfunc_begin16:
	.cfi_startproc
	.cfi_personality 155, _rust_eh_personality
	.cfi_lsda 16, Lexception16
	pushq	%rbp
	.cfi_def_cfa_offset 16
	.cfi_offset %rbp, -16
	movq	%rsp, %rbp
	.cfi_def_cfa_register %rbp
	subq	$224, %rsp
	leaq	-152(%rbp), %rax
	movq	%rdi, -176(%rbp)
	movq	%rax, %rdi
	movq	-176(%rbp), %rsi
	callq	__ZN10serde_json2de21Deserializer$LT$R$GT$16parse_whitespace17h210e0df4acddc4daE
	jmp	LBB26_2
LBB26_1:
	movq	-16(%rbp), %rdi
	callq	__Unwind_Resume
	ud2
LBB26_2:
	movzbl	-152(%rbp), %eax
	movl	%eax, %ecx
	testb	$1, %cl
	je	LBB26_4
	jmp	LBB26_34
LBB26_34:
	jmp	LBB26_5
	ud2
LBB26_4:
	movb	-151(%rbp), %al
	movb	-150(%rbp), %cl
	movb	%al, -160(%rbp)
	movb	%cl, -159(%rbp)
	movzbl	-160(%rbp), %edx
	movl	%edx, %esi
	testb	$1, %sil
	je	LBB26_11
	jmp	LBB26_35
LBB26_35:
	jmp	LBB26_12
LBB26_5:
	movq	-144(%rbp), %rax
	movq	%rax, -168(%rbp)
	movb	-152(%rbp), %cl
	andb	$1, %cl
	movzbl	%cl, %edx
	movl	%edx, %eax
	cmpq	$1, %rax
	je	LBB26_30
	jmp	LBB26_31
LBB26_6:
	movq	-168(%rbp), %rax
	addq	$224, %rsp
	popq	%rbp
	retq
LBB26_7:
	leaq	-152(%rbp), %rdi
	callq	__ZN4core3ptr18real_drop_in_place17hbd244058d832624cE
	jmp	LBB26_1
LBB26_8:
Ltmp159:
	movq	-176(%rbp), %rdi
	callq	__ZN10serde_json2de21Deserializer$LT$R$GT$8eat_char17h27880c16013f818fE
Ltmp160:
	jmp	LBB26_14
LBB26_9:
Ltmp148:
	movq	-176(%rbp), %rdi
	callq	__ZN10serde_json2de21Deserializer$LT$R$GT$8eat_char17h27880c16013f818fE
Ltmp149:
	jmp	LBB26_15
LBB26_10:
	movq	$21, -64(%rbp)
Ltmp161:
	leaq	-64(%rbp), %rsi
	movq	-176(%rbp), %rdi
	callq	__ZN10serde_json2de21Deserializer$LT$R$GT$10peek_error17hc91437f5405786d2E
Ltmp162:
	movq	%rax, -184(%rbp)
	jmp	LBB26_26
LBB26_11:
	movq	$2, -40(%rbp)
Ltmp163:
	leaq	-40(%rbp), %rsi
	movq	-176(%rbp), %rdi
	callq	__ZN10serde_json2de21Deserializer$LT$R$GT$10peek_error17hc91437f5405786d2E
Ltmp164:
	movq	%rax, -192(%rbp)
	jmp	LBB26_27
LBB26_12:
	movb	-159(%rbp), %al
	movb	%al, %cl
	subb	$44, %cl
	movb	%al, -193(%rbp)
	je	LBB26_9
	jmp	LBB26_36
LBB26_36:
	movb	-193(%rbp), %al
	subb	$93, %al
	je	LBB26_8
	jmp	LBB26_10
	ud2
LBB26_14:
	movq	$0, -168(%rbp)
	jmp	LBB26_28
LBB26_15:
Ltmp150:
	leaq	-128(%rbp), %rdi
	movq	-176(%rbp), %rsi
	callq	__ZN10serde_json2de21Deserializer$LT$R$GT$16parse_whitespace17h210e0df4acddc4daE
Ltmp151:
	jmp	LBB26_16
LBB26_16:
	movb	-128(%rbp), %al
	andb	$1, %al
	movzbl	%al, %ecx
	movl	%ecx, %edx
	cmpq	$0, %rdx
	je	LBB26_19
	jmp	LBB26_18
LBB26_17:
	movq	$20, -112(%rbp)
Ltmp154:
	leaq	-112(%rbp), %rsi
	movq	-176(%rbp), %rdi
	callq	__ZN10serde_json2de21Deserializer$LT$R$GT$10peek_error17hc91437f5405786d2E
Ltmp155:
	movq	%rax, -208(%rbp)
	jmp	LBB26_21
LBB26_18:
	movq	$21, -88(%rbp)
Ltmp152:
	leaq	-88(%rbp), %rsi
	movq	-176(%rbp), %rdi
	callq	__ZN10serde_json2de21Deserializer$LT$R$GT$10peek_error17hc91437f5405786d2E
Ltmp153:
	movq	%rax, -216(%rbp)
	jmp	LBB26_23
LBB26_19:
	movb	-127(%rbp), %al
	andb	$1, %al
	movzbl	%al, %ecx
	movl	%ecx, %edx
	cmpq	$1, %rdx
	jne	LBB26_18
	cmpb	$93, -126(%rbp)
	je	LBB26_17
	jmp	LBB26_18
LBB26_21:
	movq	-208(%rbp), %rax
	movq	%rax, -168(%rbp)
	jmp	LBB26_24
LBB26_22:
	leaq	-128(%rbp), %rdi
	callq	__ZN4core3ptr18real_drop_in_place17hbd244058d832624cE
	jmp	LBB26_7
LBB26_23:
	movq	-216(%rbp), %rax
	movq	%rax, -168(%rbp)
LBB26_24:
Ltmp157:
	leaq	-128(%rbp), %rdi
	callq	__ZN4core3ptr18real_drop_in_place17hbd244058d832624cE
Ltmp158:
	jmp	LBB26_25
LBB26_25:
	jmp	LBB26_28
LBB26_26:
	movq	-184(%rbp), %rax
	movq	%rax, -168(%rbp)
	jmp	LBB26_28
LBB26_27:
	movq	-192(%rbp), %rax
	movq	%rax, -168(%rbp)
LBB26_28:
	leaq	-152(%rbp), %rdi
	callq	__ZN4core3ptr18real_drop_in_place17hbd244058d832624cE
	jmp	LBB26_6
LBB26_30:
	jmp	LBB26_6
LBB26_31:
	leaq	-152(%rbp), %rdi
	callq	__ZN4core3ptr18real_drop_in_place17hbd244058d832624cE
	jmp	LBB26_30
LBB26_32:
Ltmp165:
	movq	%rax, -16(%rbp)
	movl	%edx, -8(%rbp)
	jmp	LBB26_7
LBB26_33:
Ltmp156:
	movq	%rax, -16(%rbp)
	movl	%edx, -8(%rbp)
	jmp	LBB26_22
Lfunc_end16:
	.cfi_endproc
	.section	__TEXT,__gcc_except_tab
	.p2align	2
GCC_except_table26:
Lexception16:
	.byte	255
	.byte	255
	.byte	1
	.uleb128 Lcst_end16-Lcst_begin16
Lcst_begin16:
	.uleb128 Lfunc_begin16-Lfunc_begin16
	.uleb128 Ltmp159-Lfunc_begin16
	.byte	0
	.byte	0
	.uleb128 Ltmp159-Lfunc_begin16
	.uleb128 Ltmp151-Ltmp159
	.uleb128 Ltmp165-Lfunc_begin16
	.byte	0
	.uleb128 Ltmp154-Lfunc_begin16
	.uleb128 Ltmp153-Ltmp154
	.uleb128 Ltmp156-Lfunc_begin16
	.byte	0
	.uleb128 Ltmp153-Lfunc_begin16
	.uleb128 Ltmp157-Ltmp153
	.byte	0
	.byte	0
	.uleb128 Ltmp157-Lfunc_begin16
	.uleb128 Ltmp158-Ltmp157
	.uleb128 Ltmp165-Lfunc_begin16
	.byte	0
	.uleb128 Ltmp158-Lfunc_begin16
	.uleb128 Lfunc_end16-Ltmp158
	.byte	0
	.byte	0
Lcst_end16:
	.p2align	2

	.section	__TEXT,__text,regular,pure_instructions
	.p2align	4, 0x90
__ZN10serde_json2de21Deserializer$LT$R$GT$8eat_char17h27880c16013f818fE:
	.cfi_startproc
	pushq	%rbp
	.cfi_def_cfa_offset 16
	.cfi_offset %rbp, -16
	movq	%rsp, %rbp
	.cfi_def_cfa_register %rbp
	subq	$16, %rsp
	movq	%rdi, -8(%rbp)
	movq	-8(%rbp), %rax
	movq	%rax, %rdi
	callq	__ZN68_$LT$serde_json..read..StrRead$u20$as$u20$serde_json..read..Read$GT$7discard17h0742ffeafbcca6d5E
	addq	$16, %rsp
	popq	%rbp
	retq
	.cfi_endproc

	.p2align	4, 0x90
__ZN10serde_json2de21Deserializer$LT$R$GT$9next_char17h0e00787cc80c5e1eE:
	.cfi_startproc
	pushq	%rbp
	.cfi_def_cfa_offset 16
	.cfi_offset %rbp, -16
	movq	%rsp, %rbp
	.cfi_def_cfa_register %rbp
	subq	$16, %rsp
	movq	%rdi, %rax
	movq	%rsi, -8(%rbp)
	movq	-8(%rbp), %rcx
	movq	%rcx, %rsi
	movq	%rax, -16(%rbp)
	callq	__ZN68_$LT$serde_json..read..StrRead$u20$as$u20$serde_json..read..Read$GT$4next17hd0a52c96ba920820E
	movq	-16(%rbp), %rax
	addq	$16, %rsp
	popq	%rbp
	retq
	.cfi_endproc

	.p2align	4, 0x90
__ZN10serde_json2de8from_str17h9e13a99f8f087c84E:
	.cfi_startproc
	pushq	%rbp
	.cfi_def_cfa_offset 16
	.cfi_offset %rbp, -16
	movq	%rsp, %rbp
	.cfi_def_cfa_register %rbp
	subq	$48, %rsp
	movq	%rdi, %rax
	leaq	-24(%rbp), %rcx
	movq	%rdi, -32(%rbp)
	movq	%rcx, %rdi
	movq	%rax, -40(%rbp)
	callq	__ZN10serde_json4read7StrRead3new17h55808fc1fd2f5736E
	movq	-32(%rbp), %rdi
	leaq	-24(%rbp), %rsi
	callq	__ZN10serde_json2de10from_trait17h3a15270127c36777E
	movq	-40(%rbp), %rax
	addq	$48, %rsp
	popq	%rbp
	retq
	.cfi_endproc

	.p2align	4, 0x90
__ZN10serde_json3map59Map$LT$alloc..string..String$C$serde_json..value..Value$GT$3new17h8958f88244fd6d3cE:
	.cfi_startproc
	pushq	%rbp
	.cfi_def_cfa_offset 16
	.cfi_offset %rbp, -16
	movq	%rsp, %rbp
	.cfi_def_cfa_register %rbp
	subq	$48, %rsp
	movq	%rdi, %rax
	leaq	-24(%rbp), %rcx
	movq	%rdi, -32(%rbp)
	movq	%rcx, %rdi
	movq	%rax, -40(%rbp)
	callq	__ZN5alloc11collections5btree3map21BTreeMap$LT$K$C$V$GT$3new17h3291cd7fa7f87b66E
	movq	-24(%rbp), %rax
	movq	-32(%rbp), %rcx
	movq	%rax, (%rcx)
	movq	-16(%rbp), %rax
	movq	%rax, 8(%rcx)
	movq	-8(%rbp), %rax
	movq	%rax, 16(%rcx)
	movq	-40(%rbp), %rax
	addq	$48, %rsp
	popq	%rbp
	retq
	.cfi_endproc

	.p2align	4, 0x90
__ZN10serde_json3map59Map$LT$alloc..string..String$C$serde_json..value..Value$GT$6insert17h7e829f3e8c5f4b24E:
	.cfi_startproc
	pushq	%rbp
	.cfi_def_cfa_offset 16
	.cfi_offset %rbp, -16
	movq	%rsp, %rbp
	.cfi_def_cfa_register %rbp
	subq	$80, %rsp
	movq	%rdi, %rax
	movq	%rsi, -64(%rbp)
	movq	-64(%rbp), %rsi
	movq	(%rdx), %r8
	movq	%r8, -56(%rbp)
	movq	8(%rdx), %r8
	movq	%r8, -48(%rbp)
	movq	16(%rdx), %rdx
	movq	%rdx, -40(%rbp)
	movq	(%rcx), %rdx
	movq	%rdx, -32(%rbp)
	movq	8(%rcx), %rdx
	movq	%rdx, -24(%rbp)
	movq	16(%rcx), %rdx
	movq	%rdx, -16(%rbp)
	movq	24(%rcx), %rcx
	movq	%rcx, -8(%rbp)
	leaq	-56(%rbp), %rdx
	leaq	-32(%rbp), %rcx
	movq	%rax, -72(%rbp)
	callq	__ZN5alloc11collections5btree3map21BTreeMap$LT$K$C$V$GT$6insert17hcfb7cb40a92c273aE
	movq	-72(%rbp), %rax
	addq	$80, %rsp
	popq	%rbp
	retq
	.cfi_endproc

	.p2align	4, 0x90
__ZN10serde_json5error5Error12fix_position17hccdd20e0785ef7c1E:
Lfunc_begin17:
	.cfi_startproc
	.cfi_personality 155, _rust_eh_personality
	.cfi_lsda 16, Lexception17
	pushq	%rbp
	.cfi_def_cfa_offset 16
	.cfi_offset %rbp, -16
	movq	%rsp, %rbp
	.cfi_def_cfa_register %rbp
	subq	$112, %rsp
	movq	%rdi, -88(%rbp)
	movb	$0, -18(%rbp)
	movb	$0, -17(%rbp)
	movb	$1, -18(%rbp)
	movb	$1, -17(%rbp)
	movq	-88(%rbp), %rax
	cmpq	$0, 24(%rax)
	movq	%rsi, -96(%rbp)
	je	LBB32_2
	movb	$0, -18(%rbp)
	movq	-88(%rbp), %rax
	movq	%rax, -80(%rbp)
	jmp	LBB32_4
LBB32_2:
	movb	$0, -17(%rbp)
	movq	-88(%rbp), %rax
	movq	16(%rax), %rcx
	movq	%rcx, -32(%rbp)
	movq	(%rax), %rcx
	movq	8(%rax), %rax
	movq	%rax, -40(%rbp)
	movq	%rcx, -48(%rbp)
	movq	-32(%rbp), %rax
	movq	%rax, -56(%rbp)
	movq	-48(%rbp), %rax
	movq	-40(%rbp), %rcx
	movq	%rcx, -64(%rbp)
	movq	%rax, -72(%rbp)
Ltmp166:
	leaq	-72(%rbp), %rsi
	movq	-96(%rbp), %rdi
	callq	__ZN10serde_json2de21Deserializer$LT$R$GT$12fix_position28_$u7b$$u7b$closure$u7d$$u7d$17h2452be0badd59b4fE
Ltmp167:
	movq	%rax, -104(%rbp)
	jmp	LBB32_3
LBB32_3:
	movq	-104(%rbp), %rax
	movq	%rax, -80(%rbp)
LBB32_4:
	testb	$1, -17(%rbp)
	jne	LBB32_8
LBB32_5:
	testb	$1, -18(%rbp)
	jne	LBB32_10
	jmp	LBB32_9
LBB32_6:
	movb	$0, -18(%rbp)
	movq	-88(%rbp), %rdi
	callq	__ZN5alloc5alloc8box_free17h2dc0fdec5dcc27f8E
	jmp	LBB32_11
LBB32_7:
	testb	$1, -18(%rbp)
	jne	LBB32_6
	jmp	LBB32_11
LBB32_8:
	movb	$0, -17(%rbp)
	jmp	LBB32_5
LBB32_9:
	movq	-80(%rbp), %rax
	addq	$112, %rsp
	popq	%rbp
	retq
LBB32_10:
	movb	$0, -18(%rbp)
	movq	-88(%rbp), %rdi
	callq	__ZN5alloc5alloc8box_free17h2dc0fdec5dcc27f8E
	jmp	LBB32_9
LBB32_11:
	movq	-16(%rbp), %rdi
	callq	__Unwind_Resume
	ud2
LBB32_12:
Ltmp168:
	movq	%rax, -16(%rbp)
	movl	%edx, -8(%rbp)
	jmp	LBB32_7
Lfunc_end17:
	.cfi_endproc
	.section	__TEXT,__gcc_except_tab
	.p2align	2
GCC_except_table32:
Lexception17:
	.byte	255
	.byte	255
	.byte	1
	.uleb128 Lcst_end17-Lcst_begin17
Lcst_begin17:
	.uleb128 Ltmp166-Lfunc_begin17
	.uleb128 Ltmp167-Ltmp166
	.uleb128 Ltmp168-Lfunc_begin17
	.byte	0
	.uleb128 Ltmp167-Lfunc_begin17
	.uleb128 Lfunc_end17-Ltmp167
	.byte	0
	.byte	0
Lcst_end17:
	.p2align	2

	.section	__TEXT,__text,regular,pure_instructions
	.p2align	4, 0x90
__ZN10serde_json5value2de77_$LT$impl$u20$serde..de..Deserialize$u20$for$u20$serde_json..value..Value$GT$11deserialize17h6a070a70d67c12dbE:
	.cfi_startproc
	pushq	%rbp
	.cfi_def_cfa_offset 16
	.cfi_offset %rbp, -16
	movq	%rsp, %rbp
	.cfi_def_cfa_register %rbp
	subq	$16, %rsp
	movq	%rdi, %rax
	movq	%rax, -16(%rbp)
	callq	__ZN93_$LT$$RF$mut$u20$serde_json..de..Deserializer$LT$R$GT$$u20$as$u20$serde..de..Deserializer$GT$15deserialize_any17ha1dd4f69d49ce814E
	movq	-16(%rbp), %rax
	addq	$16, %rsp
	popq	%rbp
	retq
	.cfi_endproc

	.p2align	4, 0x90
__ZN10serde_json5value5Value6Number17h2bfe5d5abfb2853fE:
	.cfi_startproc
	pushq	%rbp
	.cfi_def_cfa_offset 16
	.cfi_offset %rbp, -16
	movq	%rsp, %rbp
	.cfi_def_cfa_register %rbp
	movq	%rdi, %rax
	movq	(%rsi), %rcx
	movq	%rcx, 8(%rdi)
	movq	8(%rsi), %rcx
	movq	%rcx, 16(%rdi)
	movb	$2, (%rdi)
	popq	%rbp
	retq
	.cfi_endproc

	.p2align	4, 0x90
__ZN10serde_json5value5index87_$LT$impl$u20$core..ops..index..Index$LT$I$GT$$u20$for$u20$serde_json..value..Value$GT$5index17ha5c06c0c762387d7E:
Lfunc_begin18:
	.cfi_startproc
	.cfi_personality 155, _rust_eh_personality
	.cfi_lsda 16, Lexception18
	pushq	%rbp
	.cfi_def_cfa_offset 16
	.cfi_offset %rbp, -16
	movq	%rsp, %rbp
	.cfi_def_cfa_register %rbp
	subq	$64, %rsp
	movq	%rsi, -32(%rbp)
	movq	%rdx, -24(%rbp)
Ltmp169:
	leaq	-32(%rbp), %rax
	movq	%rdi, -40(%rbp)
	movq	%rax, %rdi
	movq	-40(%rbp), %rsi
	callq	__ZN57_$LT$$RF$T$u20$as$u20$serde_json..value..index..Index$GT$10index_into17h7dcf5a3b859d029fE
Ltmp170:
	movq	%rax, -48(%rbp)
	jmp	LBB35_2
LBB35_1:
	movq	-16(%rbp), %rdi
	callq	__Unwind_Resume
	ud2
LBB35_2:
Ltmp171:
	movq	__ZN10serde_json5value5index87_$LT$impl$u20$core..ops..index..Index$LT$I$GT$$u20$for$u20$serde_json..value..Value$GT$5index4NULL17h6f0e269ee7495f91E@GOTPCREL(%rip), %rsi
	movq	-48(%rbp), %rdi
	callq	__ZN4core6option15Option$LT$T$GT$9unwrap_or17hd7503aacc58b0f80E
Ltmp172:
	movq	%rax, -56(%rbp)
	jmp	LBB35_4
LBB35_3:
	jmp	LBB35_1
LBB35_4:
	jmp	LBB35_5
LBB35_5:
	movq	-56(%rbp), %rax
	addq	$64, %rsp
	popq	%rbp
	retq
LBB35_6:
Ltmp173:
	movq	%rax, -16(%rbp)
	movl	%edx, -8(%rbp)
	jmp	LBB35_3
Lfunc_end18:
	.cfi_endproc
	.section	__TEXT,__gcc_except_tab
	.p2align	2
GCC_except_table35:
Lexception18:
	.byte	255
	.byte	255
	.byte	1
	.uleb128 Lcst_end18-Lcst_begin18
Lcst_begin18:
	.uleb128 Ltmp169-Lfunc_begin18
	.uleb128 Ltmp170-Ltmp169
	.uleb128 Ltmp173-Lfunc_begin18
	.byte	0
	.uleb128 Ltmp170-Lfunc_begin18
	.uleb128 Ltmp171-Ltmp170
	.byte	0
	.byte	0
	.uleb128 Ltmp171-Lfunc_begin18
	.uleb128 Ltmp172-Ltmp171
	.uleb128 Ltmp173-Lfunc_begin18
	.byte	0
Lcst_end18:
	.p2align	2

	.section	__TEXT,__text,regular,pure_instructions
	.p2align	4, 0x90
__ZN10serde_json6number6Number8from_f6417h380606aa58927a8eE:
	.cfi_startproc
	pushq	%rbp
	.cfi_def_cfa_offset 16
	.cfi_offset %rbp, -16
	movq	%rsp, %rbp
	.cfi_def_cfa_register %rbp
	subq	$80, %rsp
	movq	%rdi, %rax
	movsd	%xmm0, -56(%rbp)
	movq	%rdi, -64(%rbp)
	movq	%rax, -72(%rbp)
	callq	__ZN4core3f6421_$LT$impl$u20$f64$GT$9is_finite17h1397b05ce16fb738E
	movb	%al, -73(%rbp)
	movb	-73(%rbp), %al
	testb	$1, %al
	jne	LBB36_3
	jmp	LBB36_2
LBB36_2:
	movq	-64(%rbp), %rax
	movq	$3, (%rax)
	jmp	LBB36_4
LBB36_3:
	movsd	-56(%rbp), %xmm0
	movsd	%xmm0, -40(%rbp)
	movq	$2, -48(%rbp)
	movq	-48(%rbp), %rax
	movq	%rax, -16(%rbp)
	movq	-40(%rbp), %rax
	movq	%rax, -8(%rbp)
	movq	-16(%rbp), %rax
	movq	%rax, -32(%rbp)
	movq	-8(%rbp), %rax
	movq	%rax, -24(%rbp)
	movq	-32(%rbp), %rax
	movq	-64(%rbp), %rcx
	movq	%rax, (%rcx)
	movq	-24(%rbp), %rax
	movq	%rax, 8(%rcx)
LBB36_4:
	movq	-72(%rbp), %rax
	addq	$80, %rsp
	popq	%rbp
	retq
	.cfi_endproc

	.p2align	4, 0x90
__ZN112_$LT$alloc..collections..btree..map..IntoIter$LT$K$C$V$GT$$u20$as$u20$core..iter..traits..iterator..Iterator$GT$4next17h400e703e5dc58d8bE:
Lfunc_begin19:
	.cfi_startproc
	.cfi_personality 155, _rust_eh_personality
	.cfi_lsda 16, Lexception19
	pushq	%rbp
	.cfi_def_cfa_offset 16
	.cfi_offset %rbp, -16
	movq	%rsp, %rbp
	.cfi_def_cfa_register %rbp
	subq	$1328, %rsp
	movq	%rdi, %rax
	movq	%rsi, -1280(%rbp)
	movq	-1280(%rbp), %rcx
	cmpq	$0, 64(%rcx)
	movq	%rdi, -1288(%rbp)
	movq	%rax, -1296(%rbp)
	je	LBB37_3
	jmp	LBB37_2
LBB37_1:
	movq	-80(%rbp), %rdi
	callq	__Unwind_Resume
	ud2
LBB37_2:
	movq	-1280(%rbp), %rax
	movq	-1280(%rbp), %rcx
	movq	64(%rcx), %rcx
	subq	$1, %rcx
	movq	%rcx, 64(%rax)
	movq	-1280(%rbp), %rax
	leaq	-1272(%rbp), %rdi
	movq	%rax, %rsi
	callq	__ZN4core3ptr4read17he78c334b89e3473eE
	jmp	LBB37_5
LBB37_3:
	movq	-1288(%rbp), %rax
	movb	$6, 24(%rax)
LBB37_4:
	movq	-1296(%rbp), %rax
	addq	$1328, %rsp
	popq	%rbp
	retq
LBB37_5:
	movq	-1272(%rbp), %rax
	movq	%rax, -1168(%rbp)
	movq	-1264(%rbp), %rax
	movq	%rax, -1160(%rbp)
	movq	-1256(%rbp), %rax
	movq	%rax, -1152(%rbp)
	movq	-1248(%rbp), %rax
	movq	%rax, -1144(%rbp)
	leaq	-1208(%rbp), %rdi
	leaq	-1168(%rbp), %rsi
	callq	__ZN5alloc11collections5btree4node139Handle$LT$alloc..collections..btree..node..NodeRef$LT$BorrowType$C$K$C$V$C$NodeType$GT$$C$alloc..collections..btree..node..marker..Edge$GT$8right_kv17hb4ffb585ea9e7e24E
	movq	-1208(%rbp), %rax
	testq	%rax, %rax
	je	LBB37_8
	jmp	LBB37_46
LBB37_46:
	jmp	LBB37_19
	ud2
LBB37_8:
	movq	-1200(%rbp), %rax
	movq	%rax, -1136(%rbp)
	movq	-1192(%rbp), %rax
	movq	%rax, -1128(%rbp)
	movq	-1184(%rbp), %rax
	movq	%rax, -1120(%rbp)
	movq	-1176(%rbp), %rax
	movq	%rax, -1112(%rbp)
	leaq	-1080(%rbp), %rdi
	leaq	-1136(%rbp), %rsi
	callq	__ZN5alloc11collections5btree4node104Handle$LT$alloc..collections..btree..node..NodeRef$LT$BorrowType$C$K$C$V$C$NodeType$GT$$C$HandleType$GT$8reborrow17h51c8b586dd38f606E
	leaq	-1080(%rbp), %rdi
	callq	__ZN5alloc11collections5btree4node173Handle$LT$alloc..collections..btree..node..NodeRef$LT$alloc..collections..btree..node..marker..Immut$C$K$C$V$C$NodeType$GT$$C$alloc..collections..btree..node..marker..KV$GT$7into_kv17ha7706366f2b45d63E
	movq	%rax, -1304(%rbp)
	movq	-1304(%rbp), %rax
	leaq	-1104(%rbp), %rdi
	movq	%rax, %rsi
	callq	__ZN4core3ptr4read17h8d34a8e0c038c5faE
Ltmp188:
	leaq	-1016(%rbp), %rdi
	leaq	-1136(%rbp), %rsi
	callq	__ZN5alloc11collections5btree4node104Handle$LT$alloc..collections..btree..node..NodeRef$LT$BorrowType$C$K$C$V$C$NodeType$GT$$C$HandleType$GT$8reborrow17h51c8b586dd38f606E
Ltmp189:
	jmp	LBB37_12
LBB37_12:
Ltmp190:
	leaq	-1016(%rbp), %rdi
	callq	__ZN5alloc11collections5btree4node173Handle$LT$alloc..collections..btree..node..NodeRef$LT$alloc..collections..btree..node..marker..Immut$C$K$C$V$C$NodeType$GT$$C$alloc..collections..btree..node..marker..KV$GT$7into_kv17ha7706366f2b45d63E
Ltmp191:
	movq	%rdx, -1312(%rbp)
	jmp	LBB37_14
LBB37_13:
	leaq	-1104(%rbp), %rdi
	callq	__ZN4core3ptr18real_drop_in_place17h397d3a0e48bbb87cE
	jmp	LBB37_1
LBB37_14:
Ltmp192:
	leaq	-1048(%rbp), %rdi
	movq	-1312(%rbp), %rsi
	callq	__ZN4core3ptr4read17h0429cf43aa8c9b66E
Ltmp193:
	jmp	LBB37_15
LBB37_15:
	movq	-1112(%rbp), %rax
	movq	%rax, -928(%rbp)
	movq	-1120(%rbp), %rax
	movq	%rax, -936(%rbp)
	movq	-1136(%rbp), %rax
	movq	-1128(%rbp), %rcx
	movq	%rcx, -944(%rbp)
	movq	%rax, -952(%rbp)
Ltmp195:
	leaq	-984(%rbp), %rdi
	leaq	-952(%rbp), %rsi
	callq	__ZN5alloc11collections5btree4node137Handle$LT$alloc..collections..btree..node..NodeRef$LT$BorrowType$C$K$C$V$C$NodeType$GT$$C$alloc..collections..btree..node..marker..KV$GT$10right_edge17h6236f15e140e8575E
Ltmp196:
	jmp	LBB37_16
LBB37_16:
	movq	-1280(%rbp), %rax
	movq	-984(%rbp), %rcx
	movq	%rcx, (%rax)
	movq	-976(%rbp), %rcx
	movq	%rcx, 8(%rax)
	movq	-968(%rbp), %rcx
	movq	%rcx, 16(%rax)
	movq	-960(%rbp), %rcx
	movq	%rcx, 24(%rax)
	movq	-1104(%rbp), %rax
	movq	%rax, -864(%rbp)
	movq	-1096(%rbp), %rax
	movq	%rax, -856(%rbp)
	movq	-1088(%rbp), %rax
	movq	%rax, -848(%rbp)
	movq	-1048(%rbp), %rax
	movq	%rax, -840(%rbp)
	movq	-1040(%rbp), %rax
	movq	%rax, -832(%rbp)
	movq	-1032(%rbp), %rax
	movq	%rax, -824(%rbp)
	movq	-1024(%rbp), %rax
	movq	%rax, -816(%rbp)
	movq	-864(%rbp), %rax
	movq	%rax, -920(%rbp)
	movq	-856(%rbp), %rax
	movq	%rax, -912(%rbp)
	movq	-848(%rbp), %rax
	movq	%rax, -904(%rbp)
	movq	-840(%rbp), %rax
	movq	%rax, -896(%rbp)
	movq	-832(%rbp), %rax
	movq	%rax, -888(%rbp)
	movq	-824(%rbp), %rax
	movq	%rax, -880(%rbp)
	movq	-816(%rbp), %rax
	movq	%rax, -872(%rbp)
	movq	-1288(%rbp), %rax
	leaq	-920(%rbp), %rcx
	movq	%rax, %rdi
	movq	%rcx, %rsi
	movl	$56, %edx
	callq	_memcpy
	jmp	LBB37_18
LBB37_17:
	leaq	-1048(%rbp), %rdi
	callq	__ZN4core3ptr18real_drop_in_place17hf41454ab830ed941E
	jmp	LBB37_13
LBB37_18:
	jmp	LBB37_4
LBB37_19:
	movq	-1200(%rbp), %rax
	movq	%rax, -808(%rbp)
	movq	-1192(%rbp), %rax
	movq	%rax, -800(%rbp)
	movq	-1184(%rbp), %rax
	movq	%rax, -792(%rbp)
	movq	-1176(%rbp), %rax
	movq	%rax, -784(%rbp)
	movq	-808(%rbp), %rax
	movq	%rax, -720(%rbp)
	movq	-800(%rbp), %rax
	movq	%rax, -712(%rbp)
	movq	-792(%rbp), %rax
	movq	%rax, -704(%rbp)
	movq	-784(%rbp), %rax
	movq	%rax, -696(%rbp)
	leaq	-744(%rbp), %rdi
	leaq	-720(%rbp), %rsi
	callq	__ZN5alloc11collections5btree4node25Handle$LT$Node$C$Type$GT$9into_node17h27905051ef258e97E
	leaq	-776(%rbp), %rdi
	leaq	-744(%rbp), %rsi
	callq	__ZN5alloc11collections5btree4node117NodeRef$LT$alloc..collections..btree..node..marker..Owned$C$K$C$V$C$alloc..collections..btree..node..marker..Leaf$GT$21deallocate_and_ascend17h103a691c078c7681E
	movq	-776(%rbp), %rax
	movq	%rax, -64(%rbp)
	movq	-768(%rbp), %rax
	movq	%rax, -56(%rbp)
	movq	-760(%rbp), %rax
	movq	%rax, -48(%rbp)
	movq	-752(%rbp), %rax
	movq	%rax, -40(%rbp)
	leaq	-1240(%rbp), %rdi
	leaq	-64(%rbp), %rsi
	callq	__ZN4core6option15Option$LT$T$GT$14unwrap_or_else17ha9ac15649e91aeb4E
	jmp	LBB37_23
LBB37_23:
	movq	-1240(%rbp), %rax
	movq	%rax, -648(%rbp)
	movq	-1232(%rbp), %rax
	movq	%rax, -640(%rbp)
	movq	-1224(%rbp), %rax
	movq	%rax, -632(%rbp)
	movq	-1216(%rbp), %rax
	movq	%rax, -624(%rbp)
	leaq	-688(%rbp), %rdi
	leaq	-648(%rbp), %rsi
	callq	__ZN5alloc11collections5btree4node139Handle$LT$alloc..collections..btree..node..NodeRef$LT$BorrowType$C$K$C$V$C$NodeType$GT$$C$alloc..collections..btree..node..marker..Edge$GT$8right_kv17hbca33383394bb7ebE
	movq	-688(%rbp), %rax
	testq	%rax, %rax
	je	LBB37_26
	jmp	LBB37_47
LBB37_47:
	jmp	LBB37_38
	ud2
LBB37_26:
	movq	-680(%rbp), %rax
	movq	%rax, -616(%rbp)
	movq	-672(%rbp), %rax
	movq	%rax, -608(%rbp)
	movq	-664(%rbp), %rax
	movq	%rax, -600(%rbp)
	movq	-656(%rbp), %rax
	movq	%rax, -592(%rbp)
	leaq	-560(%rbp), %rdi
	leaq	-616(%rbp), %rsi
	callq	__ZN5alloc11collections5btree4node104Handle$LT$alloc..collections..btree..node..NodeRef$LT$BorrowType$C$K$C$V$C$NodeType$GT$$C$HandleType$GT$8reborrow17h2ed16b12ecb7c4e7E
	leaq	-560(%rbp), %rdi
	callq	__ZN5alloc11collections5btree4node173Handle$LT$alloc..collections..btree..node..NodeRef$LT$alloc..collections..btree..node..marker..Immut$C$K$C$V$C$NodeType$GT$$C$alloc..collections..btree..node..marker..KV$GT$7into_kv17h2c36ae452f108b3dE
	movq	%rax, -1320(%rbp)
	movq	-1320(%rbp), %rax
	leaq	-584(%rbp), %rdi
	movq	%rax, %rsi
	callq	__ZN4core3ptr4read17h8d34a8e0c038c5faE
Ltmp174:
	leaq	-496(%rbp), %rdi
	leaq	-616(%rbp), %rsi
	callq	__ZN5alloc11collections5btree4node104Handle$LT$alloc..collections..btree..node..NodeRef$LT$BorrowType$C$K$C$V$C$NodeType$GT$$C$HandleType$GT$8reborrow17h2ed16b12ecb7c4e7E
Ltmp175:
	jmp	LBB37_30
LBB37_30:
Ltmp176:
	leaq	-496(%rbp), %rdi
	callq	__ZN5alloc11collections5btree4node173Handle$LT$alloc..collections..btree..node..NodeRef$LT$alloc..collections..btree..node..marker..Immut$C$K$C$V$C$NodeType$GT$$C$alloc..collections..btree..node..marker..KV$GT$7into_kv17h2c36ae452f108b3dE
Ltmp177:
	movq	%rdx, -1328(%rbp)
	jmp	LBB37_32
LBB37_31:
	leaq	-584(%rbp), %rdi
	callq	__ZN4core3ptr18real_drop_in_place17h397d3a0e48bbb87cE
	jmp	LBB37_1
LBB37_32:
Ltmp178:
	leaq	-528(%rbp), %rdi
	movq	-1328(%rbp), %rsi
	callq	__ZN4core3ptr4read17h0429cf43aa8c9b66E
Ltmp179:
	jmp	LBB37_33
LBB37_33:
	movq	-592(%rbp), %rax
	movq	%rax, -352(%rbp)
	movq	-600(%rbp), %rax
	movq	%rax, -360(%rbp)
	movq	-616(%rbp), %rax
	movq	-608(%rbp), %rcx
	movq	%rcx, -368(%rbp)
	movq	%rax, -376(%rbp)
Ltmp181:
	leaq	-408(%rbp), %rdi
	leaq	-376(%rbp), %rsi
	callq	__ZN5alloc11collections5btree4node137Handle$LT$alloc..collections..btree..node..NodeRef$LT$BorrowType$C$K$C$V$C$NodeType$GT$$C$alloc..collections..btree..node..marker..KV$GT$10right_edge17hf0d62333859a10efE
Ltmp182:
	jmp	LBB37_34
LBB37_34:
Ltmp183:
	leaq	-432(%rbp), %rdi
	leaq	-408(%rbp), %rsi
	callq	__ZN5alloc11collections5btree4node180Handle$LT$alloc..collections..btree..node..NodeRef$LT$BorrowType$C$K$C$V$C$alloc..collections..btree..node..marker..Internal$GT$$C$alloc..collections..btree..node..marker..Edge$GT$7descend17h01cca967b8c82336E
Ltmp184:
	jmp	LBB37_36
LBB37_35:
	leaq	-528(%rbp), %rdi
	callq	__ZN4core3ptr18real_drop_in_place17hf41454ab830ed941E
	jmp	LBB37_31
LBB37_36:
Ltmp185:
	leaq	-464(%rbp), %rdi
	leaq	-432(%rbp), %rsi
	callq	__ZN5alloc11collections5btree3map15first_leaf_edge17hf7a35ed829095ca7E
Ltmp186:
	jmp	LBB37_37
LBB37_37:
	movq	-1280(%rbp), %rax
	movq	-464(%rbp), %rcx
	movq	%rcx, (%rax)
	movq	-456(%rbp), %rcx
	movq	%rcx, 8(%rax)
	movq	-448(%rbp), %rcx
	movq	%rcx, 16(%rax)
	movq	-440(%rbp), %rcx
	movq	%rcx, 24(%rax)
	movq	-584(%rbp), %rax
	movq	%rax, -288(%rbp)
	movq	-576(%rbp), %rax
	movq	%rax, -280(%rbp)
	movq	-568(%rbp), %rax
	movq	%rax, -272(%rbp)
	movq	-528(%rbp), %rax
	movq	%rax, -264(%rbp)
	movq	-520(%rbp), %rax
	movq	%rax, -256(%rbp)
	movq	-512(%rbp), %rax
	movq	%rax, -248(%rbp)
	movq	-504(%rbp), %rax
	movq	%rax, -240(%rbp)
	movq	-288(%rbp), %rax
	movq	%rax, -344(%rbp)
	movq	-280(%rbp), %rax
	movq	%rax, -336(%rbp)
	movq	-272(%rbp), %rax
	movq	%rax, -328(%rbp)
	movq	-264(%rbp), %rax
	movq	%rax, -320(%rbp)
	movq	-256(%rbp), %rax
	movq	%rax, -312(%rbp)
	movq	-248(%rbp), %rax
	movq	%rax, -304(%rbp)
	movq	-240(%rbp), %rax
	movq	%rax, -296(%rbp)
	movq	-1288(%rbp), %rax
	leaq	-344(%rbp), %rcx
	movq	%rax, %rdi
	movq	%rcx, %rsi
	movl	$56, %edx
	callq	_memcpy
	jmp	LBB37_18
LBB37_38:
	movq	-680(%rbp), %rax
	movq	%rax, -232(%rbp)
	movq	-672(%rbp), %rax
	movq	%rax, -224(%rbp)
	movq	-664(%rbp), %rax
	movq	%rax, -216(%rbp)
	movq	-656(%rbp), %rax
	movq	%rax, -208(%rbp)
	movq	-232(%rbp), %rax
	movq	%rax, -112(%rbp)
	movq	-224(%rbp), %rax
	movq	%rax, -104(%rbp)
	movq	-216(%rbp), %rax
	movq	%rax, -96(%rbp)
	movq	-208(%rbp), %rax
	movq	%rax, -88(%rbp)
	leaq	-136(%rbp), %rdi
	leaq	-112(%rbp), %rsi
	callq	__ZN5alloc11collections5btree4node25Handle$LT$Node$C$Type$GT$9into_node17h9f64cb8d9a510b3dE
	leaq	-168(%rbp), %rdi
	leaq	-136(%rbp), %rsi
	callq	__ZN5alloc11collections5btree4node121NodeRef$LT$alloc..collections..btree..node..marker..Owned$C$K$C$V$C$alloc..collections..btree..node..marker..Internal$GT$21deallocate_and_ascend17hfdaad5e2355dadfcE
	movq	-168(%rbp), %rax
	movq	%rax, -32(%rbp)
	movq	-160(%rbp), %rax
	movq	%rax, -24(%rbp)
	movq	-152(%rbp), %rax
	movq	%rax, -16(%rbp)
	movq	-144(%rbp), %rax
	movq	%rax, -8(%rbp)
	leaq	-200(%rbp), %rdi
	leaq	-32(%rbp), %rsi
	callq	__ZN4core6option15Option$LT$T$GT$14unwrap_or_else17ha9ac15649e91aeb4E
	movq	-200(%rbp), %rax
	movq	%rax, -1240(%rbp)
	movq	-192(%rbp), %rax
	movq	%rax, -1232(%rbp)
	movq	-184(%rbp), %rax
	movq	%rax, -1224(%rbp)
	movq	-176(%rbp), %rax
	movq	%rax, -1216(%rbp)
	jmp	LBB37_23
LBB37_42:
Ltmp180:
	movq	%rax, -80(%rbp)
	movl	%edx, -72(%rbp)
	jmp	LBB37_31
LBB37_43:
Ltmp187:
	movq	%rax, -80(%rbp)
	movl	%edx, -72(%rbp)
	jmp	LBB37_35
LBB37_44:
Ltmp194:
	movq	%rax, -80(%rbp)
	movl	%edx, -72(%rbp)
	jmp	LBB37_13
LBB37_45:
Ltmp197:
	movq	%rax, -80(%rbp)
	movl	%edx, -72(%rbp)
	jmp	LBB37_17
Lfunc_end19:
	.cfi_endproc
	.section	__TEXT,__gcc_except_tab
	.p2align	2
GCC_except_table37:
Lexception19:
	.byte	255
	.byte	255
	.byte	1
	.uleb128 Lcst_end19-Lcst_begin19
Lcst_begin19:
	.uleb128 Lfunc_begin19-Lfunc_begin19
	.uleb128 Ltmp188-Lfunc_begin19
	.byte	0
	.byte	0
	.uleb128 Ltmp188-Lfunc_begin19
	.uleb128 Ltmp191-Ltmp188
	.uleb128 Ltmp194-Lfunc_begin19
	.byte	0
	.uleb128 Ltmp191-Lfunc_begin19
	.uleb128 Ltmp192-Ltmp191
	.byte	0
	.byte	0
	.uleb128 Ltmp192-Lfunc_begin19
	.uleb128 Ltmp193-Ltmp192
	.uleb128 Ltmp194-Lfunc_begin19
	.byte	0
	.uleb128 Ltmp195-Lfunc_begin19
	.uleb128 Ltmp196-Ltmp195
	.uleb128 Ltmp197-Lfunc_begin19
	.byte	0
	.uleb128 Ltmp196-Lfunc_begin19
	.uleb128 Ltmp174-Ltmp196
	.byte	0
	.byte	0
	.uleb128 Ltmp174-Lfunc_begin19
	.uleb128 Ltmp177-Ltmp174
	.uleb128 Ltmp180-Lfunc_begin19
	.byte	0
	.uleb128 Ltmp177-Lfunc_begin19
	.uleb128 Ltmp178-Ltmp177
	.byte	0
	.byte	0
	.uleb128 Ltmp178-Lfunc_begin19
	.uleb128 Ltmp179-Ltmp178
	.uleb128 Ltmp180-Lfunc_begin19
	.byte	0
	.uleb128 Ltmp181-Lfunc_begin19
	.uleb128 Ltmp184-Ltmp181
	.uleb128 Ltmp187-Lfunc_begin19
	.byte	0
	.uleb128 Ltmp184-Lfunc_begin19
	.uleb128 Ltmp185-Ltmp184
	.byte	0
	.byte	0
	.uleb128 Ltmp185-Lfunc_begin19
	.uleb128 Ltmp186-Ltmp185
	.uleb128 Ltmp187-Lfunc_begin19
	.byte	0
	.uleb128 Ltmp186-Lfunc_begin19
	.uleb128 Lfunc_end19-Ltmp186
	.byte	0
	.byte	0
Lcst_end19:
	.p2align	2

	.section	__TEXT,__text,regular,pure_instructions
	.p2align	4, 0x90
__ZN115_$LT$alloc..collections..btree..map..BTreeMap$LT$K$C$V$GT$$u20$as$u20$core..iter..traits..collect..IntoIterator$GT$9into_iter17ha2ad2ae7d338588cE:
Lfunc_begin20:
	.cfi_startproc
	.cfi_personality 155, _rust_eh_personality
	.cfi_lsda 16, Lexception20
	pushq	%rbp
	.cfi_def_cfa_offset 16
	.cfi_offset %rbp, -16
	movq	%rsp, %rbp
	.cfi_def_cfa_register %rbp
	subq	$272, %rsp
	movq	%rdi, %rax
	movb	$0, -17(%rbp)
	movb	$1, -17(%rbp)
Ltmp198:
	movq	%rdi, -216(%rbp)
	movq	%rsi, %rdi
	movq	%rsi, -224(%rbp)
	movq	%rax, -232(%rbp)
	callq	__ZN4core3ptr4read17h41d3e3c3373d74c5E
Ltmp199:
	movq	%rdx, -240(%rbp)
	movq	%rax, -248(%rbp)
	jmp	LBB38_2
LBB38_1:
	movq	-16(%rbp), %rdi
	callq	__Unwind_Resume
	ud2
LBB38_2:
Ltmp200:
	leaq	-208(%rbp), %rdi
	movq	-248(%rbp), %rsi
	movq	-240(%rbp), %rdx
	callq	__ZN5alloc11collections5btree4node17Root$LT$K$C$V$GT$8into_ref17hf046e6d089050f06E
Ltmp201:
	jmp	LBB38_3
LBB38_3:
Ltmp202:
	movq	-224(%rbp), %rdi
	callq	__ZN4core3ptr4read17h41d3e3c3373d74c5E
Ltmp203:
	movq	%rdx, -256(%rbp)
	movq	%rax, -264(%rbp)
	jmp	LBB38_4
LBB38_4:
Ltmp204:
	leaq	-184(%rbp), %rdi
	movq	-264(%rbp), %rsi
	movq	-256(%rbp), %rdx
	callq	__ZN5alloc11collections5btree4node17Root$LT$K$C$V$GT$8into_ref17hf046e6d089050f06E
Ltmp205:
	jmp	LBB38_5
LBB38_5:
	movq	-224(%rbp), %rax
	movq	16(%rax), %rcx
	movb	$0, -17(%rbp)
	movq	16(%rax), %rdx
	movq	%rdx, -144(%rbp)
	movq	(%rax), %rdx
	movq	8(%rax), %rsi
	movq	%rsi, -152(%rbp)
	movq	%rdx, -160(%rbp)
Ltmp206:
	leaq	-160(%rbp), %rdi
	movq	%rcx, -272(%rbp)
	callq	__ZN4core3mem6forget17h7b9416a6430bef4eE
Ltmp207:
	jmp	LBB38_6
LBB38_6:
	movq	-192(%rbp), %rax
	movq	%rax, -88(%rbp)
	movq	-208(%rbp), %rax
	movq	-200(%rbp), %rcx
	movq	%rcx, -96(%rbp)
	movq	%rax, -104(%rbp)
Ltmp208:
	leaq	-136(%rbp), %rdi
	leaq	-104(%rbp), %rsi
	callq	__ZN5alloc11collections5btree3map15first_leaf_edge17hf7a35ed829095ca7E
Ltmp209:
	jmp	LBB38_7
LBB38_7:
	movq	-168(%rbp), %rax
	movq	%rax, -32(%rbp)
	movq	-184(%rbp), %rax
	movq	-176(%rbp), %rcx
	movq	%rcx, -40(%rbp)
	movq	%rax, -48(%rbp)
Ltmp210:
	leaq	-80(%rbp), %rdi
	leaq	-48(%rbp), %rsi
	callq	__ZN5alloc11collections5btree3map14last_leaf_edge17h2aac757d4aad9563E
Ltmp211:
	jmp	LBB38_8
LBB38_8:
	movq	-136(%rbp), %rax
	movq	-216(%rbp), %rcx
	movq	%rax, (%rcx)
	movq	-128(%rbp), %rax
	movq	%rax, 8(%rcx)
	movq	-120(%rbp), %rax
	movq	%rax, 16(%rcx)
	movq	-112(%rbp), %rax
	movq	%rax, 24(%rcx)
	movq	-80(%rbp), %rax
	movq	%rax, 32(%rcx)
	movq	-72(%rbp), %rax
	movq	%rax, 40(%rcx)
	movq	-64(%rbp), %rax
	movq	%rax, 48(%rcx)
	movq	-56(%rbp), %rax
	movq	%rax, 56(%rcx)
	movq	-272(%rbp), %rax
	movq	%rax, 64(%rcx)
	movq	-232(%rbp), %rax
	addq	$272, %rsp
	popq	%rbp
	retq
LBB38_9:
	movb	$0, -17(%rbp)
	movq	-224(%rbp), %rdi
	callq	__ZN4core3ptr18real_drop_in_place17h5538adda2a3dd408E
	jmp	LBB38_1
LBB38_10:
	testb	$1, -17(%rbp)
	jne	LBB38_9
	jmp	LBB38_1
LBB38_11:
Ltmp212:
	movq	%rax, -16(%rbp)
	movl	%edx, -8(%rbp)
	jmp	LBB38_10
Lfunc_end20:
	.cfi_endproc
	.section	__TEXT,__gcc_except_tab
	.p2align	2
GCC_except_table38:
Lexception20:
	.byte	255
	.byte	255
	.byte	1
	.uleb128 Lcst_end20-Lcst_begin20
Lcst_begin20:
	.uleb128 Ltmp198-Lfunc_begin20
	.uleb128 Ltmp199-Ltmp198
	.uleb128 Ltmp212-Lfunc_begin20
	.byte	0
	.uleb128 Ltmp199-Lfunc_begin20
	.uleb128 Ltmp200-Ltmp199
	.byte	0
	.byte	0
	.uleb128 Ltmp200-Lfunc_begin20
	.uleb128 Ltmp211-Ltmp200
	.uleb128 Ltmp212-Lfunc_begin20
	.byte	0
	.uleb128 Ltmp211-Lfunc_begin20
	.uleb128 Lfunc_end20-Ltmp211
	.byte	0
	.byte	0
Lcst_end20:
	.p2align	2

	.section	__TEXT,__text,regular,pure_instructions
	.p2align	4, 0x90
__ZN119_$LT$core..ptr..non_null..NonNull$LT$T$GT$$u20$as$u20$core..convert..From$LT$core..ptr..unique..Unique$LT$T$GT$$GT$$GT$4from17h03357336292fe771E:
	.cfi_startproc
	pushq	%rbp
	.cfi_def_cfa_offset 16
	.cfi_offset %rbp, -16
	movq	%rsp, %rbp
	.cfi_def_cfa_register %rbp
	subq	$16, %rsp
	callq	__ZN4core3ptr6unique15Unique$LT$T$GT$6as_ptr17h3d9c5e2b1907df05E
	movq	%rax, -8(%rbp)
	movq	-8(%rbp), %rdi
	callq	__ZN4core3ptr8non_null16NonNull$LT$T$GT$13new_unchecked17h7074b409b6c7cbceE
	movq	%rax, -16(%rbp)
	movq	-16(%rbp), %rax
	addq	$16, %rsp
	popq	%rbp
	retq
	.cfi_endproc

	.p2align	4, 0x90
__ZN119_$LT$core..ptr..non_null..NonNull$LT$T$GT$$u20$as$u20$core..convert..From$LT$core..ptr..unique..Unique$LT$T$GT$$GT$$GT$4from17h1ffab30719b4bf3dE:
	.cfi_startproc
	pushq	%rbp
	.cfi_def_cfa_offset 16
	.cfi_offset %rbp, -16
	movq	%rsp, %rbp
	.cfi_def_cfa_register %rbp
	subq	$16, %rsp
	callq	__ZN4core3ptr6unique15Unique$LT$T$GT$6as_ptr17ha970c2ca3f55878cE
	movq	%rax, -8(%rbp)
	movq	-8(%rbp), %rdi
	callq	__ZN4core3ptr8non_null16NonNull$LT$T$GT$13new_unchecked17h1ad10f6baeaaf316E
	movq	%rax, -16(%rbp)
	movq	-16(%rbp), %rax
	addq	$16, %rsp
	popq	%rbp
	retq
	.cfi_endproc

	.p2align	4, 0x90
__ZN119_$LT$core..ptr..non_null..NonNull$LT$T$GT$$u20$as$u20$core..convert..From$LT$core..ptr..unique..Unique$LT$T$GT$$GT$$GT$4from17h7a43e202f2a069c3E:
	.cfi_startproc
	pushq	%rbp
	.cfi_def_cfa_offset 16
	.cfi_offset %rbp, -16
	movq	%rsp, %rbp
	.cfi_def_cfa_register %rbp
	subq	$16, %rsp
	callq	__ZN4core3ptr6unique15Unique$LT$T$GT$6as_ptr17h05f232026ed3a42cE
	movq	%rax, -8(%rbp)
	movq	-8(%rbp), %rdi
	callq	__ZN4core3ptr8non_null16NonNull$LT$T$GT$13new_unchecked17h0af8cab70beb15b2E
	movq	%rax, -16(%rbp)
	movq	-16(%rbp), %rax
	addq	$16, %rsp
	popq	%rbp
	retq
	.cfi_endproc

	.p2align	4, 0x90
__ZN119_$LT$core..ptr..non_null..NonNull$LT$T$GT$$u20$as$u20$core..convert..From$LT$core..ptr..unique..Unique$LT$T$GT$$GT$$GT$4from17h9c734cddcbc898bcE:
	.cfi_startproc
	pushq	%rbp
	.cfi_def_cfa_offset 16
	.cfi_offset %rbp, -16
	movq	%rsp, %rbp
	.cfi_def_cfa_register %rbp
	subq	$16, %rsp
	callq	__ZN4core3ptr6unique15Unique$LT$T$GT$6as_ptr17hd4bc0c0e7c063ec1E
	movq	%rax, -8(%rbp)
	movq	-8(%rbp), %rdi
	callq	__ZN4core3ptr8non_null16NonNull$LT$T$GT$13new_unchecked17hac6f653e8a5f70e3E
	movq	%rax, -16(%rbp)
	movq	-16(%rbp), %rax
	addq	$16, %rsp
	popq	%rbp
	retq
	.cfi_endproc

	.p2align	4, 0x90
__ZN119_$LT$core..ptr..unique..Unique$LT$T$GT$$u20$as$u20$core..convert..From$LT$core..ptr..non_null..NonNull$LT$T$GT$$GT$$GT$4from17ha49752030e91a438E:
	.cfi_startproc
	pushq	%rbp
	.cfi_def_cfa_offset 16
	.cfi_offset %rbp, -16
	movq	%rsp, %rbp
	.cfi_def_cfa_register %rbp
	subq	$16, %rsp
	callq	__ZN4core3ptr8non_null16NonNull$LT$T$GT$6as_ptr17h56333427f3e1963bE
	movq	%rax, -8(%rbp)
	movq	-8(%rbp), %rdi
	callq	__ZN4core3ptr6unique15Unique$LT$T$GT$13new_unchecked17h5b6b636cdc5f8cc5E
	movq	%rax, -16(%rbp)
	movq	-16(%rbp), %rax
	addq	$16, %rsp
	popq	%rbp
	retq
	.cfi_endproc

	.p2align	4, 0x90
__ZN119_$LT$core..ptr..unique..Unique$LT$T$GT$$u20$as$u20$core..convert..From$LT$core..ptr..non_null..NonNull$LT$T$GT$$GT$$GT$4from17hbd8484c9d00fa41bE:
	.cfi_startproc
	pushq	%rbp
	.cfi_def_cfa_offset 16
	.cfi_offset %rbp, -16
	movq	%rsp, %rbp
	.cfi_def_cfa_register %rbp
	subq	$16, %rsp
	callq	__ZN4core3ptr8non_null16NonNull$LT$T$GT$6as_ptr17h9f7a5f10394ae806E
	movq	%rax, -8(%rbp)
	movq	-8(%rbp), %rdi
	callq	__ZN4core3ptr6unique15Unique$LT$T$GT$13new_unchecked17hbbe03009970db42dE
	movq	%rax, -16(%rbp)
	movq	-16(%rbp), %rax
	addq	$16, %rsp
	popq	%rbp
	retq
	.cfi_endproc

	.p2align	4, 0x90
__ZN119_$LT$core..ptr..unique..Unique$LT$T$GT$$u20$as$u20$core..convert..From$LT$core..ptr..non_null..NonNull$LT$T$GT$$GT$$GT$4from17he83753416fa2495bE:
	.cfi_startproc
	pushq	%rbp
	.cfi_def_cfa_offset 16
	.cfi_offset %rbp, -16
	movq	%rsp, %rbp
	.cfi_def_cfa_register %rbp
	subq	$16, %rsp
	callq	__ZN4core3ptr8non_null16NonNull$LT$T$GT$6as_ptr17h82dd1e7d1718a41dE
	movq	%rax, -8(%rbp)
	movq	-8(%rbp), %rdi
	callq	__ZN4core3ptr6unique15Unique$LT$T$GT$13new_unchecked17hebb26786d11a1a0dE
	movq	%rax, -16(%rbp)
	movq	-16(%rbp), %rax
	addq	$16, %rsp
	popq	%rbp
	retq
	.cfi_endproc

	.p2align	4, 0x90
__ZN165_$LT$serde_json..value..de..$LT$impl$u20$serde..de..Deserialize$u20$for$u20$serde_json..value..Value$GT$..deserialize..ValueVisitor$u20$as$u20$serde..de..Visitor$GT$10visit_bool17h01fcd1555bd518d1E:
	.cfi_startproc
	pushq	%rbp
	.cfi_def_cfa_offset 16
	.cfi_offset %rbp, -16
	movq	%rsp, %rbp
	.cfi_def_cfa_register %rbp
	subq	$32, %rsp
	movq	%rdi, %rax
	andb	$1, %sil
	movb	%sil, -31(%rbp)
	movb	$1, -32(%rbp)
	movq	-32(%rbp), %rcx
	movq	%rcx, 8(%rdi)
	movq	-24(%rbp), %rcx
	movq	%rcx, 16(%rdi)
	movq	-16(%rbp), %rcx
	movq	%rcx, 24(%rdi)
	movq	-8(%rbp), %rcx
	movq	%rcx, 32(%rdi)
	movq	$0, (%rdi)
	addq	$32, %rsp
	popq	%rbp
	retq
	.cfi_endproc

	.p2align	4, 0x90
__ZN165_$LT$serde_json..value..de..$LT$impl$u20$serde..de..Deserialize$u20$for$u20$serde_json..value..Value$GT$..deserialize..ValueVisitor$u20$as$u20$serde..de..Visitor$GT$10visit_unit17hb891b036359f07cfE:
	.cfi_startproc
	pushq	%rbp
	.cfi_def_cfa_offset 16
	.cfi_offset %rbp, -16
	movq	%rsp, %rbp
	.cfi_def_cfa_register %rbp
	subq	$32, %rsp
	movq	%rdi, %rax
	movb	$0, -32(%rbp)
	movq	-32(%rbp), %rcx
	movq	%rcx, 8(%rdi)
	movq	-24(%rbp), %rcx
	movq	%rcx, 16(%rdi)
	movq	-16(%rbp), %rcx
	movq	%rcx, 24(%rdi)
	movq	-8(%rbp), %rcx
	movq	%rcx, 32(%rdi)
	movq	$0, (%rdi)
	addq	$32, %rsp
	popq	%rbp
	retq
	.cfi_endproc

	.p2align	4, 0x90
__ZN165_$LT$serde_json..value..de..$LT$impl$u20$serde..de..Deserialize$u20$for$u20$serde_json..value..Value$GT$..deserialize..ValueVisitor$u20$as$u20$serde..de..Visitor$GT$12visit_string17h6005262e9b1fe1efE:
	.cfi_startproc
	pushq	%rbp
	.cfi_def_cfa_offset 16
	.cfi_offset %rbp, -16
	movq	%rsp, %rbp
	.cfi_def_cfa_register %rbp
	subq	$56, %rsp
	movq	%rdi, %rax
	movq	(%rsi), %rcx
	movq	%rcx, -24(%rbp)
	movq	8(%rsi), %rcx
	movq	%rcx, -16(%rbp)
	movq	16(%rsi), %rcx
	movq	%rcx, -8(%rbp)
	movq	-24(%rbp), %rcx
	movq	%rcx, -48(%rbp)
	movq	-16(%rbp), %rcx
	movq	%rcx, -40(%rbp)
	movq	-8(%rbp), %rcx
	movq	%rcx, -32(%rbp)
	movb	$3, -56(%rbp)
	movq	-56(%rbp), %rcx
	movq	%rcx, 8(%rdi)
	movq	-48(%rbp), %rcx
	movq	%rcx, 16(%rdi)
	movq	-40(%rbp), %rcx
	movq	%rcx, 24(%rdi)
	movq	-32(%rbp), %rcx
	movq	%rcx, 32(%rdi)
	movq	$0, (%rdi)
	addq	$56, %rsp
	popq	%rbp
	retq
	.cfi_endproc

	.p2align	4, 0x90
__ZN165_$LT$serde_json..value..de..$LT$impl$u20$serde..de..Deserialize$u20$for$u20$serde_json..value..Value$GT$..deserialize..ValueVisitor$u20$as$u20$serde..de..Visitor$GT$9visit_f6417h5653e63d5c357d8aE:
	.cfi_startproc
	pushq	%rbp
	.cfi_def_cfa_offset 16
	.cfi_offset %rbp, -16
	movq	%rsp, %rbp
	.cfi_def_cfa_register %rbp
	subq	$96, %rsp
	movq	%rdi, %rax
	leaq	-48(%rbp), %rcx
	movq	%rdi, -88(%rbp)
	movq	%rcx, %rdi
	movq	%rax, -96(%rbp)
	callq	__ZN10serde_json6number6Number8from_f6417h380606aa58927a8eE
	movb	$0, -32(%rbp)
	leaq	-80(%rbp), %rdi
	leaq	-48(%rbp), %rsi
	leaq	-32(%rbp), %rdx
	callq	__ZN4core6option15Option$LT$T$GT$6map_or17h92c906a14441369bE
	movq	-80(%rbp), %rax
	movq	-88(%rbp), %rcx
	movq	%rax, 8(%rcx)
	movq	-72(%rbp), %rax
	movq	%rax, 16(%rcx)
	movq	-64(%rbp), %rax
	movq	%rax, 24(%rcx)
	movq	-56(%rbp), %rax
	movq	%rax, 32(%rcx)
	movq	$0, (%rcx)
	movq	-96(%rbp), %rax
	addq	$96, %rsp
	popq	%rbp
	retq
	.cfi_endproc

	.p2align	4, 0x90
__ZN165_$LT$serde_json..value..de..$LT$impl$u20$serde..de..Deserialize$u20$for$u20$serde_json..value..Value$GT$..deserialize..ValueVisitor$u20$as$u20$serde..de..Visitor$GT$9visit_i6417h9ce7ec6c7da90479E:
	.cfi_startproc
	pushq	%rbp
	.cfi_def_cfa_offset 16
	.cfi_offset %rbp, -16
	movq	%rsp, %rbp
	.cfi_def_cfa_register %rbp
	subq	$64, %rsp
	movq	%rdi, %rax
	leaq	-16(%rbp), %rcx
	movq	%rdi, -56(%rbp)
	movq	%rcx, %rdi
	movq	%rax, -64(%rbp)
	callq	__ZN50_$LT$T$u20$as$u20$core..convert..Into$LT$U$GT$$GT$4into17hfc84940b10fa1e26E
	movq	-16(%rbp), %rax
	movq	%rax, -40(%rbp)
	movq	-8(%rbp), %rax
	movq	%rax, -32(%rbp)
	movb	$2, -48(%rbp)
	movq	-48(%rbp), %rax
	movq	-56(%rbp), %rcx
	movq	%rax, 8(%rcx)
	movq	-40(%rbp), %rax
	movq	%rax, 16(%rcx)
	movq	-32(%rbp), %rax
	movq	%rax, 24(%rcx)
	movq	-24(%rbp), %rax
	movq	%rax, 32(%rcx)
	movq	$0, (%rcx)
	movq	-64(%rbp), %rax
	addq	$64, %rsp
	popq	%rbp
	retq
	.cfi_endproc

	.p2align	4, 0x90
__ZN165_$LT$serde_json..value..de..$LT$impl$u20$serde..de..Deserialize$u20$for$u20$serde_json..value..Value$GT$..deserialize..ValueVisitor$u20$as$u20$serde..de..Visitor$GT$9visit_map17hd6b142e5a6dcb4a3E:
Lfunc_begin21:
	.cfi_startproc
	.cfi_personality 155, _rust_eh_personality
	.cfi_lsda 16, Lexception21
	pushq	%rbp
	.cfi_def_cfa_offset 16
	.cfi_offset %rbp, -16
	movq	%rsp, %rbp
	.cfi_def_cfa_register %rbp
	subq	$848, %rsp
	movq	%rdi, %rax
	movq	%rsi, -800(%rbp)
	andb	$1, %dl
	movb	%dl, -792(%rbp)
	movb	$0, -17(%rbp)
	movb	$0, -22(%rbp)
	movb	$0, -18(%rbp)
	movb	$0, -19(%rbp)
	movb	$0, -20(%rbp)
	movb	$0, -21(%rbp)
Ltmp213:
	leaq	-728(%rbp), %rcx
	leaq	-800(%rbp), %rsi
	movq	%rdi, -808(%rbp)
	movq	%rcx, %rdi
	movq	%rax, -816(%rbp)
	callq	__ZN75_$LT$serde_json..de..MapAccess$LT$R$GT$$u20$as$u20$serde..de..MapAccess$GT$13next_key_seed17h3bf7b7747af172e1E
Ltmp214:
	jmp	LBB51_2
LBB51_1:
	movq	-16(%rbp), %rdi
	callq	__Unwind_Resume
	ud2
LBB51_2:
Ltmp215:
	leaq	-760(%rbp), %rdi
	leaq	-728(%rbp), %rsi
	callq	__ZN73_$LT$core..result..Result$LT$T$C$E$GT$$u20$as$u20$core..ops..try..Try$GT$11into_result17hc50229822cca77deE
Ltmp216:
	jmp	LBB51_4
LBB51_3:
	jmp	LBB51_1
LBB51_4:
	movb	$1, -22(%rbp)
	movb	$1, -21(%rbp)
	movq	-760(%rbp), %rax
	testq	%rax, %rax
	je	LBB51_12
	jmp	LBB51_93
LBB51_93:
	jmp	LBB51_7
LBB51_5:
	cmpq	$0, -760(%rbp)
	je	LBB51_40
	jmp	LBB51_42
	ud2
LBB51_7:
	movb	$0, -21(%rbp)
	movq	-752(%rbp), %rdi
Ltmp217:
	callq	__ZN50_$LT$T$u20$as$u20$core..convert..From$LT$T$GT$$GT$4from17hb04c24f980f8caabE
Ltmp218:
	movq	%rax, -824(%rbp)
	jmp	LBB51_9
LBB51_8:
	movq	-816(%rbp), %rax
	addq	$848, %rsp
	popq	%rbp
	retq
LBB51_9:
Ltmp219:
	movq	-808(%rbp), %rdi
	movq	-824(%rbp), %rsi
	callq	__ZN73_$LT$core..result..Result$LT$T$C$E$GT$$u20$as$u20$core..ops..try..Try$GT$10from_error17h016c2ca5f432e54bE
Ltmp220:
	jmp	LBB51_10
LBB51_10:
	cmpq	$0, -760(%rbp)
	je	LBB51_45
	jmp	LBB51_44
LBB51_11:
	jmp	LBB51_8
LBB51_12:
	movb	$0, -22(%rbp)
	movq	-736(%rbp), %rax
	movq	%rax, -672(%rbp)
	movq	-752(%rbp), %rax
	movq	-744(%rbp), %rcx
	movq	%rcx, -680(%rbp)
	movq	%rax, -688(%rbp)
	movb	$1, -20(%rbp)
	movq	-672(%rbp), %rax
	movq	%rax, -768(%rbp)
	movq	-688(%rbp), %rax
	movq	-680(%rbp), %rcx
	movq	%rcx, -776(%rbp)
	movq	%rax, -784(%rbp)
	movq	-784(%rbp), %rax
	testq	%rax, %rax
	setne	%dl
	movzbl	%dl, %esi
	movl	%esi, %eax
	je	LBB51_13
	jmp	LBB51_94
LBB51_94:
	jmp	LBB51_15
LBB51_13:
Ltmp265:
	leaq	-48(%rbp), %rdi
	callq	__ZN10serde_json3map59Map$LT$alloc..string..String$C$serde_json..value..Value$GT$3new17h8958f88244fd6d3cE
Ltmp266:
	jmp	LBB51_38
	ud2
LBB51_15:
	movb	$0, -20(%rbp)
	movb	$1, -19(%rbp)
	movq	-768(%rbp), %rax
	movq	%rax, -648(%rbp)
	movq	-784(%rbp), %rax
	movq	-776(%rbp), %rcx
	movq	%rcx, -656(%rbp)
	movq	%rax, -664(%rbp)
Ltmp223:
	leaq	-640(%rbp), %rdi
	callq	__ZN10serde_json3map59Map$LT$alloc..string..String$C$serde_json..value..Value$GT$3new17h8958f88244fd6d3cE
Ltmp224:
	jmp	LBB51_16
LBB51_16:
	movb	$0, -19(%rbp)
	movq	-648(%rbp), %rax
	movq	%rax, -568(%rbp)
	movq	-664(%rbp), %rax
	movq	-656(%rbp), %rcx
	movq	%rcx, -576(%rbp)
	movq	%rax, -584(%rbp)
Ltmp225:
	leaq	-528(%rbp), %rdi
	leaq	-800(%rbp), %rsi
	callq	__ZN5serde2de9MapAccess10next_value17h6cd2067e24e2a08bE
Ltmp226:
	jmp	LBB51_17
LBB51_17:
	movb	$1, -18(%rbp)
	movb	$1, -17(%rbp)
	movq	-528(%rbp), %rax
	testq	%rax, %rax
	je	LBB51_21
	jmp	LBB51_95
LBB51_95:
	jmp	LBB51_23
LBB51_18:
	leaq	-640(%rbp), %rdi
	callq	__ZN4core3ptr18real_drop_in_place17hb3f050d7616e3382E
	jmp	LBB51_51
LBB51_19:
	leaq	-584(%rbp), %rdi
	callq	__ZN4core3ptr18real_drop_in_place17h397d3a0e48bbb87cE
	jmp	LBB51_18
	ud2
LBB51_21:
	movb	$0, -17(%rbp)
	movq	-496(%rbp), %rax
	movq	%rax, -464(%rbp)
	movq	-504(%rbp), %rax
	movq	%rax, -472(%rbp)
	movq	-520(%rbp), %rax
	movq	-512(%rbp), %rcx
	movq	%rcx, -480(%rbp)
	movq	%rax, -488(%rbp)
	movq	-464(%rbp), %rax
	movq	%rax, -536(%rbp)
	movq	-472(%rbp), %rax
	movq	%rax, -544(%rbp)
	movq	-488(%rbp), %rax
	movq	-480(%rbp), %rcx
	movq	%rcx, -552(%rbp)
	movq	%rax, -560(%rbp)
Ltmp232:
	leaq	-616(%rbp), %rdi
	leaq	-640(%rbp), %rsi
	leaq	-584(%rbp), %rdx
	leaq	-560(%rbp), %rcx
	callq	__ZN10serde_json3map59Map$LT$alloc..string..String$C$serde_json..value..Value$GT$6insert17h7e829f3e8c5f4b24E
Ltmp233:
	jmp	LBB51_27
LBB51_22:
	cmpq	$0, -528(%rbp)
	je	LBB51_52
	jmp	LBB51_54
LBB51_23:
	movb	$0, -18(%rbp)
	movq	-520(%rbp), %rax
	movq	-808(%rbp), %rcx
	movq	%rax, 8(%rcx)
	movq	$1, (%rcx)
Ltmp228:
	leaq	-584(%rbp), %rdi
	callq	__ZN4core3ptr18real_drop_in_place17h397d3a0e48bbb87cE
Ltmp229:
	jmp	LBB51_24
LBB51_24:
	cmpq	$0, -528(%rbp)
	je	LBB51_57
	jmp	LBB51_56
LBB51_25:
Ltmp243:
	leaq	-640(%rbp), %rdi
	callq	__ZN4core3ptr18real_drop_in_place17hb3f050d7616e3382E
Ltmp244:
	jmp	LBB51_26
LBB51_26:
	xorl	%eax, %eax
	movl	%eax, %ecx
	movb	$0, -19(%rbp)
	cmpq	$0, -784(%rbp)
	movl	$1, %edx
	cmovbeq	%rcx, %rdx
	cmpq	$1, %rdx
	je	LBB51_59
	jmp	LBB51_60
LBB51_27:
Ltmp234:
	leaq	-616(%rbp), %rdi
	callq	__ZN4core3ptr18real_drop_in_place17h598a848fad10f46eE
Ltmp235:
	jmp	LBB51_65
LBB51_28:
Ltmp239:
	leaq	-400(%rbp), %rdi
	leaq	-800(%rbp), %rsi
	callq	__ZN5serde2de9MapAccess10next_entry17h1dee50ad54a8953eE
Ltmp240:
	jmp	LBB51_29
LBB51_29:
	movq	-400(%rbp), %rax
	testq	%rax, %rax
	je	LBB51_31
	jmp	LBB51_96
LBB51_96:
	jmp	LBB51_33
	ud2
LBB51_31:
	xorl	%eax, %eax
	movl	%eax, %ecx
	leaq	-400(%rbp), %rdx
	addq	$8, %rdx
	leaq	-336(%rbp), %rsi
	movq	%rsi, %rdi
	movq	%rsi, -832(%rbp)
	movq	%rdx, %rsi
	movl	$56, %edx
	movq	%rdx, -840(%rbp)
	movq	%rcx, -848(%rbp)
	callq	_memcpy
	leaq	-456(%rbp), %rcx
	movq	-832(%rbp), %rdx
	movq	%rcx, %rdi
	movq	%rdx, %rsi
	movq	-840(%rbp), %rdx
	callq	_memcpy
	movb	-432(%rbp), %r8b
	subb	$6, %r8b
	cmpb	$0, %r8b
	movl	$1, %ecx
	movq	-848(%rbp), %rdx
	cmovbeq	%rdx, %rcx
	cmpq	$1, %rcx
	je	LBB51_35
	jmp	LBB51_34
LBB51_32:
	cmpq	$0, -400(%rbp)
	je	LBB51_18
	jmp	LBB51_66
LBB51_33:
	movq	-392(%rbp), %rax
	movq	-808(%rbp), %rcx
	movq	%rax, 8(%rcx)
	movq	$1, (%rcx)
	cmpq	$0, -400(%rbp)
	je	LBB51_68
	jmp	LBB51_67
LBB51_34:
Ltmp250:
	leaq	-456(%rbp), %rdi
	callq	__ZN4core3ptr18real_drop_in_place17hef849281d57fefd4E
Ltmp251:
	jmp	LBB51_75
LBB51_35:
	movq	-440(%rbp), %rax
	movq	%rax, -264(%rbp)
	movq	-456(%rbp), %rax
	movq	-448(%rbp), %rcx
	movq	%rcx, -272(%rbp)
	movq	%rax, -280(%rbp)
	movq	-408(%rbp), %rax
	movq	%rax, -232(%rbp)
	movq	-416(%rbp), %rax
	movq	%rax, -240(%rbp)
	movq	-432(%rbp), %rax
	movq	-424(%rbp), %rcx
	movq	%rcx, -248(%rbp)
	movq	%rax, -256(%rbp)
	movq	-264(%rbp), %rax
	movq	%rax, -176(%rbp)
	movq	-280(%rbp), %rax
	movq	-272(%rbp), %rcx
	movq	%rcx, -184(%rbp)
	movq	%rax, -192(%rbp)
	movq	-232(%rbp), %rax
	movq	%rax, -144(%rbp)
	movq	-240(%rbp), %rax
	movq	%rax, -152(%rbp)
	movq	-256(%rbp), %rax
	movq	-248(%rbp), %rcx
	movq	%rcx, -160(%rbp)
	movq	%rax, -168(%rbp)
Ltmp254:
	leaq	-224(%rbp), %rdi
	leaq	-640(%rbp), %rsi
	leaq	-192(%rbp), %rdx
	leaq	-168(%rbp), %rcx
	callq	__ZN10serde_json3map59Map$LT$alloc..string..String$C$serde_json..value..Value$GT$6insert17h7e829f3e8c5f4b24E
Ltmp255:
	jmp	LBB51_36
LBB51_36:
Ltmp256:
	leaq	-224(%rbp), %rdi
	callq	__ZN4core3ptr18real_drop_in_place17h598a848fad10f46eE
Ltmp257:
	jmp	LBB51_37
LBB51_37:
	xorl	%eax, %eax
	movl	%eax, %ecx
	movb	-432(%rbp), %dl
	subb	$6, %dl
	cmpb	$0, %dl
	movl	$1, %esi
	cmovbeq	%rcx, %rsi
	cmpq	$1, %rsi
	je	LBB51_71
	jmp	LBB51_72
LBB51_38:
	movq	-48(%rbp), %rax
	movq	%rax, -72(%rbp)
	movq	-40(%rbp), %rax
	movq	%rax, -64(%rbp)
	movq	-32(%rbp), %rax
	movq	%rax, -56(%rbp)
	movb	$5, -80(%rbp)
	movq	-80(%rbp), %rax
	movq	-808(%rbp), %rcx
	movq	%rax, 8(%rcx)
	movq	-72(%rbp), %rax
	movq	%rax, 16(%rcx)
	movq	-64(%rbp), %rax
	movq	%rax, 24(%rcx)
	movq	-56(%rbp), %rax
	movq	%rax, 32(%rcx)
	movq	$0, (%rcx)
LBB51_39:
	xorl	%eax, %eax
	movl	%eax, %ecx
	cmpq	$0, -784(%rbp)
	movl	$1, %edx
	cmovbeq	%rcx, %rdx
	cmpq	$1, %rdx
	je	LBB51_79
	jmp	LBB51_81
LBB51_40:
	testb	$1, -22(%rbp)
	je	LBB51_3
	movb	$0, -22(%rbp)
	leaq	-760(%rbp), %rax
	addq	$8, %rax
	movq	%rax, %rdi
	callq	__ZN4core3ptr18real_drop_in_place17hba940374fc5e954dE
	jmp	LBB51_3
LBB51_42:
	testb	$1, -21(%rbp)
	je	LBB51_3
	movb	$0, -21(%rbp)
	leaq	-760(%rbp), %rax
	addq	$8, %rax
	movq	%rax, %rdi
	callq	__ZN4core3ptr18real_drop_in_place17h94d8d2616b716ae2E
	jmp	LBB51_3
LBB51_44:
	movb	$0, -22(%rbp)
	movb	$0, -21(%rbp)
	movb	$0, -20(%rbp)
	jmp	LBB51_11
LBB51_45:
	movb	$0, -22(%rbp)
	leaq	-752(%rbp), %rdi
Ltmp221:
	callq	__ZN4core3ptr18real_drop_in_place17hba940374fc5e954dE
Ltmp222:
	jmp	LBB51_44
LBB51_46:
	testb	$1, -20(%rbp)
	je	LBB51_5
	movb	$0, -20(%rbp)
	leaq	-784(%rbp), %rax
	movq	%rax, %rdi
	callq	__ZN4core3ptr18real_drop_in_place17h397d3a0e48bbb87cE
	jmp	LBB51_5
LBB51_48:
	leaq	-784(%rbp), %rdi
	callq	__ZN4core3ptr18real_drop_in_place17hba940374fc5e954dE
	jmp	LBB51_5
LBB51_49:
	xorl	%eax, %eax
	movl	%eax, %ecx
	cmpq	$0, -784(%rbp)
	movl	$1, %edx
	cmovbeq	%rcx, %rdx
	cmpq	$1, %rdx
	je	LBB51_46
	jmp	LBB51_48
LBB51_50:
	movb	$0, -19(%rbp)
	leaq	-664(%rbp), %rdi
	callq	__ZN4core3ptr18real_drop_in_place17h397d3a0e48bbb87cE
	jmp	LBB51_49
LBB51_51:
	testb	$1, -19(%rbp)
	jne	LBB51_50
	jmp	LBB51_49
LBB51_52:
	testb	$1, -17(%rbp)
	je	LBB51_18
	movb	$0, -17(%rbp)
	leaq	-528(%rbp), %rax
	addq	$8, %rax
	movq	%rax, %rdi
	callq	__ZN4core3ptr18real_drop_in_place17hf41454ab830ed941E
	jmp	LBB51_18
LBB51_54:
	testb	$1, -18(%rbp)
	je	LBB51_18
	movb	$0, -18(%rbp)
	leaq	-528(%rbp), %rax
	addq	$8, %rax
	movq	%rax, %rdi
	callq	__ZN4core3ptr18real_drop_in_place17h94d8d2616b716ae2E
	jmp	LBB51_18
LBB51_56:
	movb	$0, -18(%rbp)
	movb	$0, -17(%rbp)
	jmp	LBB51_25
LBB51_57:
	movb	$0, -17(%rbp)
	leaq	-520(%rbp), %rdi
Ltmp230:
	callq	__ZN4core3ptr18real_drop_in_place17hf41454ab830ed941E
Ltmp231:
	jmp	LBB51_56
LBB51_58:
	cmpq	$0, -760(%rbp)
	je	LBB51_61
	jmp	LBB51_62
LBB51_59:
	jmp	LBB51_58
LBB51_60:
Ltmp246:
	leaq	-784(%rbp), %rdi
	callq	__ZN4core3ptr18real_drop_in_place17hba940374fc5e954dE
Ltmp247:
	jmp	LBB51_58
LBB51_61:
	movb	$0, -22(%rbp)
	movb	$0, -21(%rbp)
	movb	$0, -20(%rbp)
	jmp	LBB51_11
LBB51_62:
	movb	$0, -21(%rbp)
	leaq	-752(%rbp), %rdi
Ltmp248:
	callq	__ZN4core3ptr18real_drop_in_place17h94d8d2616b716ae2E
Ltmp249:
	jmp	LBB51_61
LBB51_63:
	movb	$0, -18(%rbp)
	movb	$0, -17(%rbp)
	jmp	LBB51_28
LBB51_64:
	movb	$0, -18(%rbp)
	leaq	-520(%rbp), %rdi
Ltmp237:
	callq	__ZN4core3ptr18real_drop_in_place17h94d8d2616b716ae2E
Ltmp238:
	jmp	LBB51_63
LBB51_65:
	cmpq	$0, -528(%rbp)
	je	LBB51_63
	jmp	LBB51_64
LBB51_66:
	leaq	-400(%rbp), %rax
	addq	$8, %rax
	movq	%rax, %rdi
	callq	__ZN4core3ptr18real_drop_in_place17h94d8d2616b716ae2E
	jmp	LBB51_18
LBB51_67:
	jmp	LBB51_25
LBB51_68:
	leaq	-392(%rbp), %rdi
Ltmp241:
	callq	__ZN4core3ptr18real_drop_in_place17hef849281d57fefd4E
Ltmp242:
	jmp	LBB51_67
LBB51_69:
	leaq	-456(%rbp), %rdi
	callq	__ZN4core3ptr18real_drop_in_place17hef849281d57fefd4E
	jmp	LBB51_32
LBB51_70:
	xorl	%eax, %eax
	movl	%eax, %ecx
	movb	-432(%rbp), %dl
	subb	$6, %dl
	cmpb	$0, %dl
	movl	$1, %esi
	cmovbeq	%rcx, %rsi
	cmpq	$1, %rsi
	je	LBB51_32
	jmp	LBB51_69
LBB51_71:
	cmpq	$0, -400(%rbp)
	je	LBB51_76
	jmp	LBB51_77
LBB51_72:
Ltmp259:
	leaq	-456(%rbp), %rdi
	callq	__ZN4core3ptr18real_drop_in_place17hef849281d57fefd4E
Ltmp260:
	jmp	LBB51_71
LBB51_73:
	movq	-640(%rbp), %rax
	movq	%rax, -104(%rbp)
	movq	-632(%rbp), %rax
	movq	%rax, -96(%rbp)
	movq	-624(%rbp), %rax
	movq	%rax, -88(%rbp)
	movq	-104(%rbp), %rax
	movq	%rax, -128(%rbp)
	movq	-96(%rbp), %rax
	movq	%rax, -120(%rbp)
	movq	-88(%rbp), %rax
	movq	%rax, -112(%rbp)
	movb	$5, -136(%rbp)
	movq	-136(%rbp), %rax
	movq	-808(%rbp), %rcx
	movq	%rax, 8(%rcx)
	movq	-128(%rbp), %rax
	movq	%rax, 16(%rcx)
	movq	-120(%rbp), %rax
	movq	%rax, 24(%rcx)
	movq	-112(%rbp), %rax
	movq	%rax, 32(%rcx)
	movq	$0, (%rcx)
	movb	$0, -19(%rbp)
	jmp	LBB51_39
LBB51_74:
	leaq	-392(%rbp), %rdi
Ltmp252:
	callq	__ZN4core3ptr18real_drop_in_place17h94d8d2616b716ae2E
Ltmp253:
	jmp	LBB51_73
LBB51_75:
	cmpq	$0, -400(%rbp)
	je	LBB51_73
	jmp	LBB51_74
LBB51_76:
	jmp	LBB51_28
LBB51_77:
	leaq	-392(%rbp), %rdi
Ltmp262:
	callq	__ZN4core3ptr18real_drop_in_place17h94d8d2616b716ae2E
Ltmp263:
	jmp	LBB51_76
LBB51_78:
	cmpq	$0, -760(%rbp)
	je	LBB51_82
	jmp	LBB51_83
LBB51_79:
	testb	$1, -20(%rbp)
	je	LBB51_78
	movb	$0, -20(%rbp)
Ltmp270:
	leaq	-784(%rbp), %rdi
	callq	__ZN4core3ptr18real_drop_in_place17h397d3a0e48bbb87cE
Ltmp271:
	jmp	LBB51_78
LBB51_81:
Ltmp268:
	leaq	-784(%rbp), %rdi
	callq	__ZN4core3ptr18real_drop_in_place17hba940374fc5e954dE
Ltmp269:
	jmp	LBB51_78
LBB51_82:
	movb	$0, -22(%rbp)
	movb	$0, -21(%rbp)
	movb	$0, -20(%rbp)
	jmp	LBB51_8
LBB51_83:
	movb	$0, -21(%rbp)
	leaq	-752(%rbp), %rdi
Ltmp273:
	callq	__ZN4core3ptr18real_drop_in_place17h94d8d2616b716ae2E
Ltmp274:
	jmp	LBB51_82
LBB51_84:
Ltmp275:
	movq	%rax, -16(%rbp)
	movl	%edx, -8(%rbp)
	jmp	LBB51_3
LBB51_85:
Ltmp272:
	movq	%rax, -16(%rbp)
	movl	%edx, -8(%rbp)
	jmp	LBB51_5
LBB51_86:
Ltmp245:
	movq	%rax, -16(%rbp)
	movl	%edx, -8(%rbp)
	jmp	LBB51_51
LBB51_87:
Ltmp227:
	movq	%rax, -16(%rbp)
	movl	%edx, -8(%rbp)
	jmp	LBB51_19
LBB51_88:
Ltmp236:
	movq	%rax, -16(%rbp)
	movl	%edx, -8(%rbp)
	jmp	LBB51_22
LBB51_89:
Ltmp264:
	movq	%rax, -16(%rbp)
	movl	%edx, -8(%rbp)
	jmp	LBB51_18
LBB51_90:
Ltmp261:
	movq	%rax, -16(%rbp)
	movl	%edx, -8(%rbp)
	jmp	LBB51_32
LBB51_91:
Ltmp258:
	movq	%rax, -16(%rbp)
	movl	%edx, -8(%rbp)
	jmp	LBB51_70
LBB51_92:
Ltmp267:
	movq	%rax, -16(%rbp)
	movl	%edx, -8(%rbp)
	jmp	LBB51_49
Lfunc_end21:
	.cfi_endproc
	.section	__TEXT,__gcc_except_tab
	.p2align	2
GCC_except_table51:
Lexception21:
	.byte	255
	.byte	255
	.byte	1
	.uleb128 Lcst_end21-Lcst_begin21
Lcst_begin21:
	.uleb128 Ltmp213-Lfunc_begin21
	.uleb128 Ltmp214-Ltmp213
	.uleb128 Ltmp275-Lfunc_begin21
	.byte	0
	.uleb128 Ltmp214-Lfunc_begin21
	.uleb128 Ltmp215-Ltmp214
	.byte	0
	.byte	0
	.uleb128 Ltmp215-Lfunc_begin21
	.uleb128 Ltmp216-Ltmp215
	.uleb128 Ltmp275-Lfunc_begin21
	.byte	0
	.uleb128 Ltmp217-Lfunc_begin21
	.uleb128 Ltmp220-Ltmp217
	.uleb128 Ltmp272-Lfunc_begin21
	.byte	0
	.uleb128 Ltmp265-Lfunc_begin21
	.uleb128 Ltmp266-Ltmp265
	.uleb128 Ltmp267-Lfunc_begin21
	.byte	0
	.uleb128 Ltmp223-Lfunc_begin21
	.uleb128 Ltmp224-Ltmp223
	.uleb128 Ltmp245-Lfunc_begin21
	.byte	0
	.uleb128 Ltmp225-Lfunc_begin21
	.uleb128 Ltmp226-Ltmp225
	.uleb128 Ltmp227-Lfunc_begin21
	.byte	0
	.uleb128 Ltmp226-Lfunc_begin21
	.uleb128 Ltmp232-Ltmp226
	.byte	0
	.byte	0
	.uleb128 Ltmp232-Lfunc_begin21
	.uleb128 Ltmp229-Ltmp232
	.uleb128 Ltmp236-Lfunc_begin21
	.byte	0
	.uleb128 Ltmp243-Lfunc_begin21
	.uleb128 Ltmp244-Ltmp243
	.uleb128 Ltmp245-Lfunc_begin21
	.byte	0
	.uleb128 Ltmp234-Lfunc_begin21
	.uleb128 Ltmp235-Ltmp234
	.uleb128 Ltmp236-Lfunc_begin21
	.byte	0
	.uleb128 Ltmp239-Lfunc_begin21
	.uleb128 Ltmp240-Ltmp239
	.uleb128 Ltmp264-Lfunc_begin21
	.byte	0
	.uleb128 Ltmp240-Lfunc_begin21
	.uleb128 Ltmp250-Ltmp240
	.byte	0
	.byte	0
	.uleb128 Ltmp250-Lfunc_begin21
	.uleb128 Ltmp251-Ltmp250
	.uleb128 Ltmp261-Lfunc_begin21
	.byte	0
	.uleb128 Ltmp254-Lfunc_begin21
	.uleb128 Ltmp257-Ltmp254
	.uleb128 Ltmp258-Lfunc_begin21
	.byte	0
	.uleb128 Ltmp257-Lfunc_begin21
	.uleb128 Ltmp221-Ltmp257
	.byte	0
	.byte	0
	.uleb128 Ltmp221-Lfunc_begin21
	.uleb128 Ltmp222-Ltmp221
	.uleb128 Ltmp275-Lfunc_begin21
	.byte	0
	.uleb128 Ltmp222-Lfunc_begin21
	.uleb128 Ltmp230-Ltmp222
	.byte	0
	.byte	0
	.uleb128 Ltmp230-Lfunc_begin21
	.uleb128 Ltmp231-Ltmp230
	.uleb128 Ltmp264-Lfunc_begin21
	.byte	0
	.uleb128 Ltmp246-Lfunc_begin21
	.uleb128 Ltmp247-Ltmp246
	.uleb128 Ltmp272-Lfunc_begin21
	.byte	0
	.uleb128 Ltmp248-Lfunc_begin21
	.uleb128 Ltmp249-Ltmp248
	.uleb128 Ltmp275-Lfunc_begin21
	.byte	0
	.uleb128 Ltmp237-Lfunc_begin21
	.uleb128 Ltmp238-Ltmp237
	.uleb128 Ltmp264-Lfunc_begin21
	.byte	0
	.uleb128 Ltmp238-Lfunc_begin21
	.uleb128 Ltmp241-Ltmp238
	.byte	0
	.byte	0
	.uleb128 Ltmp241-Lfunc_begin21
	.uleb128 Ltmp242-Ltmp241
	.uleb128 Ltmp264-Lfunc_begin21
	.byte	0
	.uleb128 Ltmp242-Lfunc_begin21
	.uleb128 Ltmp259-Ltmp242
	.byte	0
	.byte	0
	.uleb128 Ltmp259-Lfunc_begin21
	.uleb128 Ltmp260-Ltmp259
	.uleb128 Ltmp261-Lfunc_begin21
	.byte	0
	.uleb128 Ltmp252-Lfunc_begin21
	.uleb128 Ltmp263-Ltmp252
	.uleb128 Ltmp264-Lfunc_begin21
	.byte	0
	.uleb128 Ltmp270-Lfunc_begin21
	.uleb128 Ltmp269-Ltmp270
	.uleb128 Ltmp272-Lfunc_begin21
	.byte	0
	.uleb128 Ltmp273-Lfunc_begin21
	.uleb128 Ltmp274-Ltmp273
	.uleb128 Ltmp275-Lfunc_begin21
	.byte	0
Lcst_end21:
	.p2align	2

	.section	__TEXT,__text,regular,pure_instructions
	.p2align	4, 0x90
__ZN165_$LT$serde_json..value..de..$LT$impl$u20$serde..de..Deserialize$u20$for$u20$serde_json..value..Value$GT$..deserialize..ValueVisitor$u20$as$u20$serde..de..Visitor$GT$9visit_seq17hb303b50fa17fe365E:
Lfunc_begin22:
	.cfi_startproc
	.cfi_personality 155, _rust_eh_personality
	.cfi_lsda 16, Lexception22
	pushq	%rbp
	.cfi_def_cfa_offset 16
	.cfi_offset %rbp, -16
	movq	%rsp, %rbp
	.cfi_def_cfa_register %rbp
	subq	$304, %rsp
	movq	%rdi, %rax
	movq	%rsi, -280(%rbp)
	andb	$1, %dl
	movb	%dl, -272(%rbp)
Ltmp276:
	leaq	-264(%rbp), %rcx
	movq	%rdi, -288(%rbp)
	movq	%rcx, %rdi
	movq	%rax, -296(%rbp)
	callq	__ZN5alloc3vec12Vec$LT$T$GT$3new17hd3eccbe48c58c096E
Ltmp277:
	jmp	LBB52_2
LBB52_1:
	movq	-16(%rbp), %rdi
	callq	__Unwind_Resume
	ud2
LBB52_2:
	jmp	LBB52_4
LBB52_3:
	jmp	LBB52_1
LBB52_4:
Ltmp278:
	leaq	-208(%rbp), %rdi
	leaq	-280(%rbp), %rsi
	callq	__ZN5serde2de9SeqAccess12next_element17h6dd111915b61cf36E
Ltmp279:
	jmp	LBB52_6
LBB52_5:
	leaq	-264(%rbp), %rdi
	callq	__ZN4core3ptr18real_drop_in_place17h2b4f7159a46d5c41E
	jmp	LBB52_3
LBB52_6:
	movq	-208(%rbp), %rax
	testq	%rax, %rax
	je	LBB52_8
	jmp	LBB52_32
LBB52_32:
	jmp	LBB52_10
	ud2
LBB52_8:
	xorl	%eax, %eax
	movl	%eax, %ecx
	movq	-200(%rbp), %rdx
	movq	%rdx, -168(%rbp)
	movq	-192(%rbp), %rdx
	movq	%rdx, -160(%rbp)
	movq	-184(%rbp), %rdx
	movq	%rdx, -152(%rbp)
	movq	-176(%rbp), %rdx
	movq	%rdx, -144(%rbp)
	movq	-168(%rbp), %rdx
	movq	%rdx, -240(%rbp)
	movq	-160(%rbp), %rdx
	movq	%rdx, -232(%rbp)
	movq	-152(%rbp), %rdx
	movq	%rdx, -224(%rbp)
	movq	-144(%rbp), %rdx
	movq	%rdx, -216(%rbp)
	movb	-240(%rbp), %sil
	subb	$6, %sil
	cmpb	$0, %sil
	movl	$1, %edx
	cmovbeq	%rcx, %rdx
	cmpq	$1, %rdx
	je	LBB52_14
	jmp	LBB52_13
LBB52_9:
	cmpq	$0, -208(%rbp)
	je	LBB52_5
	jmp	LBB52_16
LBB52_10:
	movq	-200(%rbp), %rax
	movq	-288(%rbp), %rcx
	movq	%rax, 8(%rcx)
	movq	$1, (%rcx)
	cmpq	$0, -208(%rbp)
	je	LBB52_18
	jmp	LBB52_17
LBB52_11:
	movq	-296(%rbp), %rax
	addq	$304, %rsp
	popq	%rbp
	retq
LBB52_12:
	jmp	LBB52_11
LBB52_13:
Ltmp285:
	leaq	-240(%rbp), %rdi
	callq	__ZN4core3ptr18real_drop_in_place17h598a848fad10f46eE
Ltmp286:
	jmp	LBB52_25
LBB52_14:
	movq	-216(%rbp), %rax
	movq	%rax, -112(%rbp)
	movq	-224(%rbp), %rax
	movq	%rax, -120(%rbp)
	movq	-240(%rbp), %rax
	movq	-232(%rbp), %rcx
	movq	%rcx, -128(%rbp)
	movq	%rax, -136(%rbp)
	movq	-112(%rbp), %rax
	movq	%rax, -80(%rbp)
	movq	-120(%rbp), %rax
	movq	%rax, -88(%rbp)
	movq	-136(%rbp), %rax
	movq	-128(%rbp), %rcx
	movq	%rcx, -96(%rbp)
	movq	%rax, -104(%rbp)
Ltmp289:
	leaq	-264(%rbp), %rdi
	leaq	-104(%rbp), %rsi
	callq	__ZN5alloc3vec12Vec$LT$T$GT$4push17h66c29a1ebe7b1591E
Ltmp290:
	jmp	LBB52_15
LBB52_15:
	xorl	%eax, %eax
	movl	%eax, %ecx
	movb	-240(%rbp), %dl
	subb	$6, %dl
	cmpb	$0, %dl
	movl	$1, %esi
	cmovbeq	%rcx, %rsi
	cmpq	$1, %rsi
	je	LBB52_21
	jmp	LBB52_22
LBB52_16:
	leaq	-208(%rbp), %rax
	addq	$8, %rax
	movq	%rax, %rdi
	callq	__ZN4core3ptr18real_drop_in_place17h94d8d2616b716ae2E
	jmp	LBB52_5
LBB52_17:
Ltmp282:
	leaq	-264(%rbp), %rdi
	callq	__ZN4core3ptr18real_drop_in_place17h2b4f7159a46d5c41E
Ltmp283:
	jmp	LBB52_12
LBB52_18:
	leaq	-200(%rbp), %rdi
Ltmp280:
	callq	__ZN4core3ptr18real_drop_in_place17h598a848fad10f46eE
Ltmp281:
	jmp	LBB52_17
LBB52_19:
	leaq	-240(%rbp), %rdi
	callq	__ZN4core3ptr18real_drop_in_place17h598a848fad10f46eE
	jmp	LBB52_9
LBB52_20:
	xorl	%eax, %eax
	movl	%eax, %ecx
	movb	-240(%rbp), %dl
	subb	$6, %dl
	cmpb	$0, %dl
	movl	$1, %esi
	cmovbeq	%rcx, %rsi
	cmpq	$1, %rsi
	je	LBB52_9
	jmp	LBB52_19
LBB52_21:
	cmpq	$0, -208(%rbp)
	je	LBB52_26
	jmp	LBB52_27
LBB52_22:
Ltmp292:
	leaq	-240(%rbp), %rdi
	callq	__ZN4core3ptr18real_drop_in_place17h598a848fad10f46eE
Ltmp293:
	jmp	LBB52_21
LBB52_23:
	movq	-264(%rbp), %rax
	movq	%rax, -40(%rbp)
	movq	-256(%rbp), %rax
	movq	%rax, -32(%rbp)
	movq	-248(%rbp), %rax
	movq	%rax, -24(%rbp)
	movq	-40(%rbp), %rax
	movq	%rax, -64(%rbp)
	movq	-32(%rbp), %rax
	movq	%rax, -56(%rbp)
	movq	-24(%rbp), %rax
	movq	%rax, -48(%rbp)
	movb	$4, -72(%rbp)
	movq	-72(%rbp), %rax
	movq	-288(%rbp), %rcx
	movq	%rax, 8(%rcx)
	movq	-64(%rbp), %rax
	movq	%rax, 16(%rcx)
	movq	-56(%rbp), %rax
	movq	%rax, 24(%rcx)
	movq	-48(%rbp), %rax
	movq	%rax, 32(%rcx)
	movq	$0, (%rcx)
	jmp	LBB52_11
LBB52_24:
	leaq	-200(%rbp), %rdi
Ltmp287:
	callq	__ZN4core3ptr18real_drop_in_place17h94d8d2616b716ae2E
Ltmp288:
	jmp	LBB52_23
LBB52_25:
	cmpq	$0, -208(%rbp)
	je	LBB52_23
	jmp	LBB52_24
LBB52_26:
	jmp	LBB52_4
LBB52_27:
	leaq	-200(%rbp), %rdi
Ltmp295:
	callq	__ZN4core3ptr18real_drop_in_place17h94d8d2616b716ae2E
Ltmp296:
	jmp	LBB52_26
LBB52_28:
Ltmp284:
	movq	%rax, -16(%rbp)
	movl	%edx, -8(%rbp)
	jmp	LBB52_3
LBB52_29:
Ltmp297:
	movq	%rax, -16(%rbp)
	movl	%edx, -8(%rbp)
	jmp	LBB52_5
LBB52_30:
Ltmp294:
	movq	%rax, -16(%rbp)
	movl	%edx, -8(%rbp)
	jmp	LBB52_9
LBB52_31:
Ltmp291:
	movq	%rax, -16(%rbp)
	movl	%edx, -8(%rbp)
	jmp	LBB52_20
Lfunc_end22:
	.cfi_endproc
	.section	__TEXT,__gcc_except_tab
	.p2align	2
GCC_except_table52:
Lexception22:
	.byte	255
	.byte	255
	.byte	1
	.uleb128 Lcst_end22-Lcst_begin22
Lcst_begin22:
	.uleb128 Ltmp276-Lfunc_begin22
	.uleb128 Ltmp277-Ltmp276
	.uleb128 Ltmp284-Lfunc_begin22
	.byte	0
	.uleb128 Ltmp277-Lfunc_begin22
	.uleb128 Ltmp278-Ltmp277
	.byte	0
	.byte	0
	.uleb128 Ltmp278-Lfunc_begin22
	.uleb128 Ltmp279-Ltmp278
	.uleb128 Ltmp297-Lfunc_begin22
	.byte	0
	.uleb128 Ltmp279-Lfunc_begin22
	.uleb128 Ltmp285-Ltmp279
	.byte	0
	.byte	0
	.uleb128 Ltmp285-Lfunc_begin22
	.uleb128 Ltmp286-Ltmp285
	.uleb128 Ltmp294-Lfunc_begin22
	.byte	0
	.uleb128 Ltmp289-Lfunc_begin22
	.uleb128 Ltmp290-Ltmp289
	.uleb128 Ltmp291-Lfunc_begin22
	.byte	0
	.uleb128 Ltmp290-Lfunc_begin22
	.uleb128 Ltmp282-Ltmp290
	.byte	0
	.byte	0
	.uleb128 Ltmp282-Lfunc_begin22
	.uleb128 Ltmp283-Ltmp282
	.uleb128 Ltmp284-Lfunc_begin22
	.byte	0
	.uleb128 Ltmp280-Lfunc_begin22
	.uleb128 Ltmp281-Ltmp280
	.uleb128 Ltmp297-Lfunc_begin22
	.byte	0
	.uleb128 Ltmp281-Lfunc_begin22
	.uleb128 Ltmp292-Ltmp281
	.byte	0
	.byte	0
	.uleb128 Ltmp292-Lfunc_begin22
	.uleb128 Ltmp293-Ltmp292
	.uleb128 Ltmp294-Lfunc_begin22
	.byte	0
	.uleb128 Ltmp287-Lfunc_begin22
	.uleb128 Ltmp296-Ltmp287
	.uleb128 Ltmp297-Lfunc_begin22
	.byte	0
Lcst_end22:
	.p2align	2

	.section	__TEXT,__text,regular,pure_instructions
	.p2align	4, 0x90
__ZN165_$LT$serde_json..value..de..$LT$impl$u20$serde..de..Deserialize$u20$for$u20$serde_json..value..Value$GT$..deserialize..ValueVisitor$u20$as$u20$serde..de..Visitor$GT$9visit_str17h093b57885c99cd41E:
	.cfi_startproc
	pushq	%rbp
	.cfi_def_cfa_offset 16
	.cfi_offset %rbp, -16
	movq	%rsp, %rbp
	.cfi_def_cfa_register %rbp
	subq	$48, %rsp
	movq	%rdi, %rax
	leaq	-24(%rbp), %rcx
	movq	%rdi, -32(%rbp)
	movq	%rcx, %rdi
	movq	%rax, -40(%rbp)
	callq	__ZN76_$LT$alloc..string..String$u20$as$u20$core..convert..From$LT$$RF$str$GT$$GT$4from17h772b472e2b9dfe64E
	movq	-32(%rbp), %rdi
	leaq	-24(%rbp), %rsi
	callq	__ZN165_$LT$serde_json..value..de..$LT$impl$u20$serde..de..Deserialize$u20$for$u20$serde_json..value..Value$GT$..deserialize..ValueVisitor$u20$as$u20$serde..de..Visitor$GT$12visit_string17h6005262e9b1fe1efE
	movq	-40(%rbp), %rax
	addq	$48, %rsp
	popq	%rbp
	retq
	.cfi_endproc

	.p2align	4, 0x90
__ZN165_$LT$serde_json..value..de..$LT$impl$u20$serde..de..Deserialize$u20$for$u20$serde_json..value..Value$GT$..deserialize..ValueVisitor$u20$as$u20$serde..de..Visitor$GT$9visit_u6417hbe2bc3a34e0cab04E:
	.cfi_startproc
	pushq	%rbp
	.cfi_def_cfa_offset 16
	.cfi_offset %rbp, -16
	movq	%rsp, %rbp
	.cfi_def_cfa_register %rbp
	subq	$64, %rsp
	movq	%rdi, %rax
	leaq	-16(%rbp), %rcx
	movq	%rdi, -56(%rbp)
	movq	%rcx, %rdi
	movq	%rax, -64(%rbp)
	callq	__ZN50_$LT$T$u20$as$u20$core..convert..Into$LT$U$GT$$GT$4into17h235be50887a5eb84E
	movq	-16(%rbp), %rax
	movq	%rax, -40(%rbp)
	movq	-8(%rbp), %rax
	movq	%rax, -32(%rbp)
	movb	$2, -48(%rbp)
	movq	-48(%rbp), %rax
	movq	-56(%rbp), %rcx
	movq	%rax, 8(%rcx)
	movq	-40(%rbp), %rax
	movq	%rax, 16(%rcx)
	movq	-32(%rbp), %rax
	movq	%rax, 24(%rcx)
	movq	-24(%rbp), %rax
	movq	%rax, 32(%rcx)
	movq	$0, (%rcx)
	movq	-64(%rbp), %rax
	addq	$64, %rsp
	popq	%rbp
	retq
	.cfi_endproc

	.private_extern	__ZN3std2rt10lang_start17h13fec0213b3556eaE
	.globl	__ZN3std2rt10lang_start17h13fec0213b3556eaE
	.p2align	4, 0x90
__ZN3std2rt10lang_start17h13fec0213b3556eaE:
	.cfi_startproc
	pushq	%rbp
	.cfi_def_cfa_offset 16
	.cfi_offset %rbp, -16
	movq	%rsp, %rbp
	.cfi_def_cfa_register %rbp
	subq	$32, %rsp
	leaq	l___unnamed_4(%rip), %rax
	movq	%rdi, -8(%rbp)
	leaq	-8(%rbp), %rcx
	movq	%rcx, %rdi
	movq	%rsi, -16(%rbp)
	movq	%rax, %rsi
	movq	-16(%rbp), %rax
	movq	%rdx, -24(%rbp)
	movq	%rax, %rdx
	movq	-24(%rbp), %rcx
	callq	__ZN3std2rt19lang_start_internal17hf6b4b5e300467e14E
	movq	%rax, -32(%rbp)
	movq	-32(%rbp), %rax
	addq	$32, %rsp
	popq	%rbp
	retq
	.cfi_endproc

	.p2align	4, 0x90
__ZN3std2rt10lang_start28_$u7b$$u7b$closure$u7d$$u7d$17h841fc13b70591440E:
	.cfi_startproc
	pushq	%rbp
	.cfi_def_cfa_offset 16
	.cfi_offset %rbp, -16
	movq	%rsp, %rbp
	.cfi_def_cfa_register %rbp
	subq	$16, %rsp
	callq	*(%rdi)
	callq	__ZN54_$LT$$LP$$RP$$u20$as$u20$std..process..Termination$GT$6report17hbda010211023c6f4E
	movl	%eax, -4(%rbp)
	movl	-4(%rbp), %eax
	addq	$16, %rsp
	popq	%rbp
	retq
	.cfi_endproc

	.p2align	4, 0x90
__ZN3std3sys4unix7process14process_common8ExitCode6as_i3217hdbfdfe33d3566313E:
	.cfi_startproc
	pushq	%rbp
	.cfi_def_cfa_offset 16
	.cfi_offset %rbp, -16
	movq	%rsp, %rbp
	.cfi_def_cfa_register %rbp
	movzbl	(%rdi), %eax
	popq	%rbp
	retq
	.cfi_endproc

	.p2align	4, 0x90
__ZN42_$LT$$RF$T$u20$as$u20$core..fmt..Debug$GT$3fmt17hb5b5687cdfcb6179E:
	.cfi_startproc
	pushq	%rbp
	.cfi_def_cfa_offset 16
	.cfi_offset %rbp, -16
	movq	%rsp, %rbp
	.cfi_def_cfa_register %rbp
	subq	$16, %rsp
	movq	(%rdi), %rdi
	callq	__ZN4core3fmt3num52_$LT$impl$u20$core..fmt..Debug$u20$for$u20$usize$GT$3fmt17he0c6b63112294443E
	movb	%al, -1(%rbp)
	movb	-1(%rbp), %al
	andb	$1, %al
	movzbl	%al, %eax
	addq	$16, %rsp
	popq	%rbp
	retq
	.cfi_endproc

	.p2align	4, 0x90
__ZN49_$LT$usize$u20$as$u20$core..iter..range..Step$GT$9add_usize17h311e53f77de93869E:
	.cfi_startproc
	pushq	%rbp
	.cfi_def_cfa_offset 16
	.cfi_offset %rbp, -16
	movq	%rsp, %rbp
	.cfi_def_cfa_register %rbp
	subq	$32, %rsp
	movq	%rdi, -16(%rbp)
	movq	%rsi, %rdi
	callq	__ZN53_$LT$T$u20$as$u20$core..convert..TryFrom$LT$U$GT$$GT$8try_from17ha5e215db105e8a79E
	movq	%rax, -8(%rbp)
	movq	-8(%rbp), %rsi
	movq	-16(%rbp), %rax
	movq	(%rax), %rdi
	callq	__ZN4core3num23_$LT$impl$u20$usize$GT$11checked_add17h993a87cd7fb4ce2fE
	movq	%rax, -24(%rbp)
	movq	%rdx, -32(%rbp)
	movq	-24(%rbp), %rax
	movq	-32(%rbp), %rdx
	addq	$32, %rsp
	popq	%rbp
	retq
	.cfi_endproc

	.p2align	4, 0x90
__ZN4core10intrinsics19copy_nonoverlapping17h07ea2f73c29f8f57E:
	.cfi_startproc
	pushq	%rbp
	.cfi_def_cfa_offset 16
	.cfi_offset %rbp, -16
	movq	%rsp, %rbp
	.cfi_def_cfa_register %rbp
	subq	$32, %rsp
	xorl	%eax, %eax
	testb	$1, %al
	movq	%rdi, -8(%rbp)
	movq	%rsi, -16(%rbp)
	movq	%rdx, -24(%rbp)
	jne	LBB60_1
	jmp	LBB60_5
LBB60_1:
	movq	-8(%rbp), %rdi
	callq	__ZN4core10intrinsics23is_aligned_and_not_null17h508132dae9fdf55fE
	movb	%al, -25(%rbp)
	movb	-25(%rbp), %al
	xorb	$-1, %al
	testb	$1, %al
	jne	LBB60_4
	jmp	LBB60_5
LBB60_4:
	leaq	l___unnamed_5(%rip), %rdi
	leaq	l___unnamed_6(%rip), %rdx
	movl	$46, %esi
	callq	__ZN4core9panicking5panic17h4accb85f0b6300d8E
LBB60_5:
	xorl	%eax, %eax
	testb	$1, %al
	jne	LBB60_6
	jmp	LBB60_10
LBB60_6:
	movq	-16(%rbp), %rdi
	callq	__ZN4core10intrinsics23is_aligned_and_not_null17h508132dae9fdf55fE
	movb	%al, -26(%rbp)
	movb	-26(%rbp), %al
	xorb	$-1, %al
	testb	$1, %al
	jne	LBB60_9
	jmp	LBB60_10
LBB60_9:
	leaq	l___unnamed_7(%rip), %rdi
	leaq	l___unnamed_8(%rip), %rdx
	movl	$44, %esi
	callq	__ZN4core9panicking5panic17h4accb85f0b6300d8E
LBB60_10:
	xorl	%eax, %eax
	testb	$1, %al
	jne	LBB60_11
	jmp	LBB60_15
LBB60_11:
	movq	-8(%rbp), %rdi
	movq	-16(%rbp), %rsi
	movq	-24(%rbp), %rdx
	callq	__ZN4core10intrinsics8overlaps17h920cbe7ac548d0ebE
	movb	%al, -27(%rbp)
	movb	-27(%rbp), %al
	xorb	$-1, %al
	xorb	$-1, %al
	testb	$1, %al
	jne	LBB60_14
	jmp	LBB60_15
LBB60_14:
	leaq	l___unnamed_9(%rip), %rdi
	leaq	l___unnamed_10(%rip), %rdx
	movl	$37, %esi
	callq	__ZN4core9panicking5panic17h4accb85f0b6300d8E
LBB60_15:
	movq	-24(%rbp), %rax
	shlq	$0, %rax
	movq	-16(%rbp), %rdi
	movq	-8(%rbp), %rsi
	movq	%rax, %rdx
	callq	_memcpy
	addq	$32, %rsp
	popq	%rbp
	retq
	.cfi_endproc

	.p2align	4, 0x90
__ZN4core10intrinsics19copy_nonoverlapping17h1b2cc26ce522cdc8E:
	.cfi_startproc
	pushq	%rbp
	.cfi_def_cfa_offset 16
	.cfi_offset %rbp, -16
	movq	%rsp, %rbp
	.cfi_def_cfa_register %rbp
	subq	$32, %rsp
	xorl	%eax, %eax
	testb	$1, %al
	movq	%rdi, -8(%rbp)
	movq	%rsi, -16(%rbp)
	movq	%rdx, -24(%rbp)
	jne	LBB61_1
	jmp	LBB61_5
LBB61_1:
	movq	-8(%rbp), %rdi
	callq	__ZN4core10intrinsics23is_aligned_and_not_null17hed8d2ed3bd74fb1fE
	movb	%al, -25(%rbp)
	movb	-25(%rbp), %al
	xorb	$-1, %al
	testb	$1, %al
	jne	LBB61_4
	jmp	LBB61_5
LBB61_4:
	leaq	l___unnamed_5(%rip), %rdi
	leaq	l___unnamed_6(%rip), %rdx
	movl	$46, %esi
	callq	__ZN4core9panicking5panic17h4accb85f0b6300d8E
LBB61_5:
	xorl	%eax, %eax
	testb	$1, %al
	jne	LBB61_6
	jmp	LBB61_10
LBB61_6:
	movq	-16(%rbp), %rdi
	callq	__ZN4core10intrinsics23is_aligned_and_not_null17hed8d2ed3bd74fb1fE
	movb	%al, -26(%rbp)
	movb	-26(%rbp), %al
	xorb	$-1, %al
	testb	$1, %al
	jne	LBB61_9
	jmp	LBB61_10
LBB61_9:
	leaq	l___unnamed_7(%rip), %rdi
	leaq	l___unnamed_8(%rip), %rdx
	movl	$44, %esi
	callq	__ZN4core9panicking5panic17h4accb85f0b6300d8E
LBB61_10:
	xorl	%eax, %eax
	testb	$1, %al
	jne	LBB61_11
	jmp	LBB61_15
LBB61_11:
	movq	-8(%rbp), %rdi
	movq	-16(%rbp), %rsi
	movq	-24(%rbp), %rdx
	callq	__ZN4core10intrinsics8overlaps17h7185003335b91c3bE
	movb	%al, -27(%rbp)
	movb	-27(%rbp), %al
	xorb	$-1, %al
	xorb	$-1, %al
	testb	$1, %al
	jne	LBB61_14
	jmp	LBB61_15
LBB61_14:
	leaq	l___unnamed_9(%rip), %rdi
	leaq	l___unnamed_10(%rip), %rdx
	movl	$37, %esi
	callq	__ZN4core9panicking5panic17h4accb85f0b6300d8E
LBB61_15:
	movq	-24(%rbp), %rax
	shlq	$5, %rax
	movq	-16(%rbp), %rcx
	movq	-8(%rbp), %rdx
	movq	%rcx, %rdi
	movq	%rdx, %rsi
	movq	%rax, %rdx
	callq	_memcpy
	addq	$32, %rsp
	popq	%rbp
	retq
	.cfi_endproc

	.p2align	4, 0x90
__ZN4core10intrinsics19copy_nonoverlapping17h869d3940e07c0879E:
	.cfi_startproc
	pushq	%rbp
	.cfi_def_cfa_offset 16
	.cfi_offset %rbp, -16
	movq	%rsp, %rbp
	.cfi_def_cfa_register %rbp
	subq	$32, %rsp
	xorl	%eax, %eax
	testb	$1, %al
	movq	%rdi, -8(%rbp)
	movq	%rsi, -16(%rbp)
	movq	%rdx, -24(%rbp)
	jne	LBB62_1
	jmp	LBB62_5
LBB62_1:
	movq	-8(%rbp), %rdi
	callq	__ZN4core10intrinsics23is_aligned_and_not_null17h8b0ce3c0fcad0a5dE
	movb	%al, -25(%rbp)
	movb	-25(%rbp), %al
	xorb	$-1, %al
	testb	$1, %al
	jne	LBB62_4
	jmp	LBB62_5
LBB62_4:
	leaq	l___unnamed_5(%rip), %rdi
	leaq	l___unnamed_6(%rip), %rdx
	movl	$46, %esi
	callq	__ZN4core9panicking5panic17h4accb85f0b6300d8E
LBB62_5:
	xorl	%eax, %eax
	testb	$1, %al
	jne	LBB62_6
	jmp	LBB62_10
LBB62_6:
	movq	-16(%rbp), %rdi
	callq	__ZN4core10intrinsics23is_aligned_and_not_null17h8b0ce3c0fcad0a5dE
	movb	%al, -26(%rbp)
	movb	-26(%rbp), %al
	xorb	$-1, %al
	testb	$1, %al
	jne	LBB62_9
	jmp	LBB62_10
LBB62_9:
	leaq	l___unnamed_7(%rip), %rdi
	leaq	l___unnamed_8(%rip), %rdx
	movl	$44, %esi
	callq	__ZN4core9panicking5panic17h4accb85f0b6300d8E
LBB62_10:
	xorl	%eax, %eax
	testb	$1, %al
	jne	LBB62_11
	jmp	LBB62_15
LBB62_11:
	movq	-8(%rbp), %rdi
	movq	-16(%rbp), %rsi
	movq	-24(%rbp), %rdx
	callq	__ZN4core10intrinsics8overlaps17h7a5daa36be11a4e8E
	movb	%al, -27(%rbp)
	movb	-27(%rbp), %al
	xorb	$-1, %al
	xorb	$-1, %al
	testb	$1, %al
	jne	LBB62_14
	jmp	LBB62_15
LBB62_14:
	leaq	l___unnamed_9(%rip), %rdi
	leaq	l___unnamed_10(%rip), %rdx
	movl	$37, %esi
	callq	__ZN4core9panicking5panic17h4accb85f0b6300d8E
LBB62_15:
	movq	-24(%rbp), %rax
	shlq	$4, %rax
	movq	-16(%rbp), %rcx
	movq	-8(%rbp), %rdx
	movq	%rcx, %rdi
	movq	%rdx, %rsi
	movq	%rax, %rdx
	callq	_memcpy
	addq	$32, %rsp
	popq	%rbp
	retq
	.cfi_endproc

	.p2align	4, 0x90
__ZN4core10intrinsics19copy_nonoverlapping17h8b40b3ed5c86d23eE:
	.cfi_startproc
	pushq	%rbp
	.cfi_def_cfa_offset 16
	.cfi_offset %rbp, -16
	movq	%rsp, %rbp
	.cfi_def_cfa_register %rbp
	subq	$32, %rsp
	xorl	%eax, %eax
	testb	$1, %al
	movq	%rdi, -8(%rbp)
	movq	%rsi, -16(%rbp)
	movq	%rdx, -24(%rbp)
	jne	LBB63_1
	jmp	LBB63_5
LBB63_1:
	movq	-8(%rbp), %rdi
	callq	__ZN4core10intrinsics23is_aligned_and_not_null17h39c06f0e9dd74373E
	movb	%al, -25(%rbp)
	movb	-25(%rbp), %al
	xorb	$-1, %al
	testb	$1, %al
	jne	LBB63_4
	jmp	LBB63_5
LBB63_4:
	leaq	l___unnamed_5(%rip), %rdi
	leaq	l___unnamed_6(%rip), %rdx
	movl	$46, %esi
	callq	__ZN4core9panicking5panic17h4accb85f0b6300d8E
LBB63_5:
	xorl	%eax, %eax
	testb	$1, %al
	jne	LBB63_6
	jmp	LBB63_10
LBB63_6:
	movq	-16(%rbp), %rdi
	callq	__ZN4core10intrinsics23is_aligned_and_not_null17h39c06f0e9dd74373E
	movb	%al, -26(%rbp)
	movb	-26(%rbp), %al
	xorb	$-1, %al
	testb	$1, %al
	jne	LBB63_9
	jmp	LBB63_10
LBB63_9:
	leaq	l___unnamed_7(%rip), %rdi
	leaq	l___unnamed_8(%rip), %rdx
	movl	$44, %esi
	callq	__ZN4core9panicking5panic17h4accb85f0b6300d8E
LBB63_10:
	xorl	%eax, %eax
	testb	$1, %al
	jne	LBB63_11
	jmp	LBB63_15
LBB63_11:
	movq	-8(%rbp), %rdi
	movq	-16(%rbp), %rsi
	movq	-24(%rbp), %rdx
	callq	__ZN4core10intrinsics8overlaps17hd4008adfb11c00d9E
	movb	%al, -27(%rbp)
	movb	-27(%rbp), %al
	xorb	$-1, %al
	xorb	$-1, %al
	testb	$1, %al
	jne	LBB63_14
	jmp	LBB63_15
LBB63_14:
	leaq	l___unnamed_9(%rip), %rdi
	leaq	l___unnamed_10(%rip), %rdx
	movl	$37, %esi
	callq	__ZN4core9panicking5panic17h4accb85f0b6300d8E
LBB63_15:
	movq	-24(%rbp), %rax
	shlq	$3, %rax
	movq	-16(%rbp), %rcx
	movq	-8(%rbp), %rdx
	movq	%rcx, %rdi
	movq	%rdx, %rsi
	movq	%rax, %rdx
	callq	_memcpy
	addq	$32, %rsp
	popq	%rbp
	retq
	.cfi_endproc

	.p2align	4, 0x90
__ZN4core10intrinsics19copy_nonoverlapping17h966176bded6ad95dE:
	.cfi_startproc
	pushq	%rbp
	.cfi_def_cfa_offset 16
	.cfi_offset %rbp, -16
	movq	%rsp, %rbp
	.cfi_def_cfa_register %rbp
	subq	$32, %rsp
	xorl	%eax, %eax
	testb	$1, %al
	movq	%rdi, -8(%rbp)
	movq	%rsi, -16(%rbp)
	movq	%rdx, -24(%rbp)
	jne	LBB64_1
	jmp	LBB64_5
LBB64_1:
	movq	-8(%rbp), %rdi
	callq	__ZN4core10intrinsics23is_aligned_and_not_null17h64ea43dd6881de20E
	movb	%al, -25(%rbp)
	movb	-25(%rbp), %al
	xorb	$-1, %al
	testb	$1, %al
	jne	LBB64_4
	jmp	LBB64_5
LBB64_4:
	leaq	l___unnamed_5(%rip), %rdi
	leaq	l___unnamed_6(%rip), %rdx
	movl	$46, %esi
	callq	__ZN4core9panicking5panic17h4accb85f0b6300d8E
LBB64_5:
	xorl	%eax, %eax
	testb	$1, %al
	jne	LBB64_6
	jmp	LBB64_10
LBB64_6:
	movq	-16(%rbp), %rdi
	callq	__ZN4core10intrinsics23is_aligned_and_not_null17h64ea43dd6881de20E
	movb	%al, -26(%rbp)
	movb	-26(%rbp), %al
	xorb	$-1, %al
	testb	$1, %al
	jne	LBB64_9
	jmp	LBB64_10
LBB64_9:
	leaq	l___unnamed_7(%rip), %rdi
	leaq	l___unnamed_8(%rip), %rdx
	movl	$44, %esi
	callq	__ZN4core9panicking5panic17h4accb85f0b6300d8E
LBB64_10:
	xorl	%eax, %eax
	testb	$1, %al
	jne	LBB64_11
	jmp	LBB64_15
LBB64_11:
	movq	-8(%rbp), %rdi
	movq	-16(%rbp), %rsi
	movq	-24(%rbp), %rdx
	callq	__ZN4core10intrinsics8overlaps17h1dc6db36aad6f817E
	movb	%al, -27(%rbp)
	movb	-27(%rbp), %al
	xorb	$-1, %al
	xorb	$-1, %al
	testb	$1, %al
	jne	LBB64_14
	jmp	LBB64_15
LBB64_14:
	leaq	l___unnamed_9(%rip), %rdi
	leaq	l___unnamed_10(%rip), %rdx
	movl	$37, %esi
	callq	__ZN4core9panicking5panic17h4accb85f0b6300d8E
LBB64_15:
	movq	-24(%rbp), %rax
	imulq	$24, %rax, %rdx
	movq	-16(%rbp), %rcx
	movq	-8(%rbp), %rsi
	movq	%rcx, %rdi
	callq	_memcpy
	addq	$32, %rsp
	popq	%rbp
	retq
	.cfi_endproc

	.p2align	4, 0x90
__ZN4core10intrinsics19copy_nonoverlapping17h9a21893c837f888bE:
	.cfi_startproc
	pushq	%rbp
	.cfi_def_cfa_offset 16
	.cfi_offset %rbp, -16
	movq	%rsp, %rbp
	.cfi_def_cfa_register %rbp
	subq	$32, %rsp
	xorl	%eax, %eax
	testb	$1, %al
	movq	%rdi, -8(%rbp)
	movq	%rsi, -16(%rbp)
	movq	%rdx, -24(%rbp)
	jne	LBB65_1
	jmp	LBB65_5
LBB65_1:
	movq	-8(%rbp), %rdi
	callq	__ZN4core10intrinsics23is_aligned_and_not_null17h3505a12176644ee8E
	movb	%al, -25(%rbp)
	movb	-25(%rbp), %al
	xorb	$-1, %al
	testb	$1, %al
	jne	LBB65_4
	jmp	LBB65_5
LBB65_4:
	leaq	l___unnamed_5(%rip), %rdi
	leaq	l___unnamed_6(%rip), %rdx
	movl	$46, %esi
	callq	__ZN4core9panicking5panic17h4accb85f0b6300d8E
LBB65_5:
	xorl	%eax, %eax
	testb	$1, %al
	jne	LBB65_6
	jmp	LBB65_10
LBB65_6:
	movq	-16(%rbp), %rdi
	callq	__ZN4core10intrinsics23is_aligned_and_not_null17h3505a12176644ee8E
	movb	%al, -26(%rbp)
	movb	-26(%rbp), %al
	xorb	$-1, %al
	testb	$1, %al
	jne	LBB65_9
	jmp	LBB65_10
LBB65_9:
	leaq	l___unnamed_7(%rip), %rdi
	leaq	l___unnamed_8(%rip), %rdx
	movl	$44, %esi
	callq	__ZN4core9panicking5panic17h4accb85f0b6300d8E
LBB65_10:
	xorl	%eax, %eax
	testb	$1, %al
	jne	LBB65_11
	jmp	LBB65_15
LBB65_11:
	movq	-8(%rbp), %rdi
	movq	-16(%rbp), %rsi
	movq	-24(%rbp), %rdx
	callq	__ZN4core10intrinsics8overlaps17h2bdeab252546098fE
	movb	%al, -27(%rbp)
	movb	-27(%rbp), %al
	xorb	$-1, %al
	xorb	$-1, %al
	testb	$1, %al
	jne	LBB65_14
	jmp	LBB65_15
LBB65_14:
	leaq	l___unnamed_9(%rip), %rdi
	leaq	l___unnamed_10(%rip), %rdx
	movl	$37, %esi
	callq	__ZN4core9panicking5panic17h4accb85f0b6300d8E
LBB65_15:
	movq	-24(%rbp), %rax
	imulq	$24, %rax, %rdx
	movq	-16(%rbp), %rcx
	movq	-8(%rbp), %rsi
	movq	%rcx, %rdi
	callq	_memcpy
	addq	$32, %rsp
	popq	%rbp
	retq
	.cfi_endproc

	.p2align	4, 0x90
__ZN4core10intrinsics19copy_nonoverlapping17hc6d747709a791745E:
	.cfi_startproc
	pushq	%rbp
	.cfi_def_cfa_offset 16
	.cfi_offset %rbp, -16
	movq	%rsp, %rbp
	.cfi_def_cfa_register %rbp
	subq	$32, %rsp
	xorl	%eax, %eax
	testb	$1, %al
	movq	%rdi, -8(%rbp)
	movq	%rsi, -16(%rbp)
	movq	%rdx, -24(%rbp)
	jne	LBB66_1
	jmp	LBB66_5
LBB66_1:
	movq	-8(%rbp), %rdi
	callq	__ZN4core10intrinsics23is_aligned_and_not_null17ha574f2b6cf2de5eaE
	movb	%al, -25(%rbp)
	movb	-25(%rbp), %al
	xorb	$-1, %al
	testb	$1, %al
	jne	LBB66_4
	jmp	LBB66_5
LBB66_4:
	leaq	l___unnamed_5(%rip), %rdi
	leaq	l___unnamed_6(%rip), %rdx
	movl	$46, %esi
	callq	__ZN4core9panicking5panic17h4accb85f0b6300d8E
LBB66_5:
	xorl	%eax, %eax
	testb	$1, %al
	jne	LBB66_6
	jmp	LBB66_10
LBB66_6:
	movq	-16(%rbp), %rdi
	callq	__ZN4core10intrinsics23is_aligned_and_not_null17ha574f2b6cf2de5eaE
	movb	%al, -26(%rbp)
	movb	-26(%rbp), %al
	xorb	$-1, %al
	testb	$1, %al
	jne	LBB66_9
	jmp	LBB66_10
LBB66_9:
	leaq	l___unnamed_7(%rip), %rdi
	leaq	l___unnamed_8(%rip), %rdx
	movl	$44, %esi
	callq	__ZN4core9panicking5panic17h4accb85f0b6300d8E
LBB66_10:
	xorl	%eax, %eax
	testb	$1, %al
	jne	LBB66_11
	jmp	LBB66_15
LBB66_11:
	movq	-8(%rbp), %rdi
	movq	-16(%rbp), %rsi
	movq	-24(%rbp), %rdx
	callq	__ZN4core10intrinsics8overlaps17hf350cfaecb44f4dfE
	movb	%al, -27(%rbp)
	movb	-27(%rbp), %al
	xorb	$-1, %al
	xorb	$-1, %al
	testb	$1, %al
	jne	LBB66_14
	jmp	LBB66_15
LBB66_14:
	leaq	l___unnamed_9(%rip), %rdi
	leaq	l___unnamed_10(%rip), %rdx
	movl	$37, %esi
	callq	__ZN4core9panicking5panic17h4accb85f0b6300d8E
LBB66_15:
	movq	-24(%rbp), %rax
	imulq	$24, %rax, %rdx
	movq	-16(%rbp), %rcx
	movq	-8(%rbp), %rsi
	movq	%rcx, %rdi
	callq	_memcpy
	addq	$32, %rsp
	popq	%rbp
	retq
	.cfi_endproc

	.p2align	4, 0x90
__ZN4core10intrinsics19copy_nonoverlapping17hddb4b2d55463b6dfE:
	.cfi_startproc
	pushq	%rbp
	.cfi_def_cfa_offset 16
	.cfi_offset %rbp, -16
	movq	%rsp, %rbp
	.cfi_def_cfa_register %rbp
	subq	$32, %rsp
	xorl	%eax, %eax
	testb	$1, %al
	movq	%rdi, -8(%rbp)
	movq	%rsi, -16(%rbp)
	movq	%rdx, -24(%rbp)
	jne	LBB67_1
	jmp	LBB67_5
LBB67_1:
	movq	-8(%rbp), %rdi
	callq	__ZN4core10intrinsics23is_aligned_and_not_null17h5bffdb0aa97c26a4E
	movb	%al, -25(%rbp)
	movb	-25(%rbp), %al
	xorb	$-1, %al
	testb	$1, %al
	jne	LBB67_4
	jmp	LBB67_5
LBB67_4:
	leaq	l___unnamed_5(%rip), %rdi
	leaq	l___unnamed_6(%rip), %rdx
	movl	$46, %esi
	callq	__ZN4core9panicking5panic17h4accb85f0b6300d8E
LBB67_5:
	xorl	%eax, %eax
	testb	$1, %al
	jne	LBB67_6
	jmp	LBB67_10
LBB67_6:
	movq	-16(%rbp), %rdi
	callq	__ZN4core10intrinsics23is_aligned_and_not_null17h5bffdb0aa97c26a4E
	movb	%al, -26(%rbp)
	movb	-26(%rbp), %al
	xorb	$-1, %al
	testb	$1, %al
	jne	LBB67_9
	jmp	LBB67_10
LBB67_9:
	leaq	l___unnamed_7(%rip), %rdi
	leaq	l___unnamed_8(%rip), %rdx
	movl	$44, %esi
	callq	__ZN4core9panicking5panic17h4accb85f0b6300d8E
LBB67_10:
	xorl	%eax, %eax
	testb	$1, %al
	jne	LBB67_11
	jmp	LBB67_15
LBB67_11:
	movq	-8(%rbp), %rdi
	movq	-16(%rbp), %rsi
	movq	-24(%rbp), %rdx
	callq	__ZN4core10intrinsics8overlaps17h5c9598d295167465E
	movb	%al, -27(%rbp)
	movb	-27(%rbp), %al
	xorb	$-1, %al
	xorb	$-1, %al
	testb	$1, %al
	jne	LBB67_14
	jmp	LBB67_15
LBB67_14:
	leaq	l___unnamed_9(%rip), %rdi
	leaq	l___unnamed_10(%rip), %rdx
	movl	$37, %esi
	callq	__ZN4core9panicking5panic17h4accb85f0b6300d8E
LBB67_15:
	movq	-24(%rbp), %rax
	shlq	$5, %rax
	movq	-16(%rbp), %rcx
	movq	-8(%rbp), %rdx
	movq	%rcx, %rdi
	movq	%rdx, %rsi
	movq	%rax, %rdx
	callq	_memcpy
	addq	$32, %rsp
	popq	%rbp
	retq
	.cfi_endproc

	.p2align	4, 0x90
__ZN4core10intrinsics19copy_nonoverlapping17hea16c0c79b8fb67eE:
	.cfi_startproc
	pushq	%rbp
	.cfi_def_cfa_offset 16
	.cfi_offset %rbp, -16
	movq	%rsp, %rbp
	.cfi_def_cfa_register %rbp
	subq	$32, %rsp
	xorl	%eax, %eax
	testb	$1, %al
	movq	%rdi, -8(%rbp)
	movq	%rsi, -16(%rbp)
	movq	%rdx, -24(%rbp)
	jne	LBB68_1
	jmp	LBB68_5
LBB68_1:
	movq	-8(%rbp), %rdi
	callq	__ZN4core10intrinsics23is_aligned_and_not_null17h39af2041551873f7E
	movb	%al, -25(%rbp)
	movb	-25(%rbp), %al
	xorb	$-1, %al
	testb	$1, %al
	jne	LBB68_4
	jmp	LBB68_5
LBB68_4:
	leaq	l___unnamed_5(%rip), %rdi
	leaq	l___unnamed_6(%rip), %rdx
	movl	$46, %esi
	callq	__ZN4core9panicking5panic17h4accb85f0b6300d8E
LBB68_5:
	xorl	%eax, %eax
	testb	$1, %al
	jne	LBB68_6
	jmp	LBB68_10
LBB68_6:
	movq	-16(%rbp), %rdi
	callq	__ZN4core10intrinsics23is_aligned_and_not_null17h39af2041551873f7E
	movb	%al, -26(%rbp)
	movb	-26(%rbp), %al
	xorb	$-1, %al
	testb	$1, %al
	jne	LBB68_9
	jmp	LBB68_10
LBB68_9:
	leaq	l___unnamed_7(%rip), %rdi
	leaq	l___unnamed_8(%rip), %rdx
	movl	$44, %esi
	callq	__ZN4core9panicking5panic17h4accb85f0b6300d8E
LBB68_10:
	xorl	%eax, %eax
	testb	$1, %al
	jne	LBB68_11
	jmp	LBB68_15
LBB68_11:
	movq	-8(%rbp), %rdi
	movq	-16(%rbp), %rsi
	movq	-24(%rbp), %rdx
	callq	__ZN4core10intrinsics8overlaps17h295114d877306e36E
	movb	%al, -27(%rbp)
	movb	-27(%rbp), %al
	xorb	$-1, %al
	xorb	$-1, %al
	testb	$1, %al
	jne	LBB68_14
	jmp	LBB68_15
LBB68_14:
	leaq	l___unnamed_9(%rip), %rdi
	leaq	l___unnamed_10(%rip), %rdx
	movl	$37, %esi
	callq	__ZN4core9panicking5panic17h4accb85f0b6300d8E
LBB68_15:
	movq	-24(%rbp), %rax
	shlq	$3, %rax
	movq	-16(%rbp), %rcx
	movq	-8(%rbp), %rdx
	movq	%rcx, %rdi
	movq	%rdx, %rsi
	movq	%rax, %rdx
	callq	_memcpy
	addq	$32, %rsp
	popq	%rbp
	retq
	.cfi_endproc

	.p2align	4, 0x90
__ZN4core10intrinsics19copy_nonoverlapping17hffd794e67061478aE:
	.cfi_startproc
	pushq	%rbp
	.cfi_def_cfa_offset 16
	.cfi_offset %rbp, -16
	movq	%rsp, %rbp
	.cfi_def_cfa_register %rbp
	subq	$32, %rsp
	xorl	%eax, %eax
	testb	$1, %al
	movq	%rdi, -8(%rbp)
	movq	%rsi, -16(%rbp)
	movq	%rdx, -24(%rbp)
	jne	LBB69_1
	jmp	LBB69_5
LBB69_1:
	movq	-8(%rbp), %rdi
	callq	__ZN4core10intrinsics23is_aligned_and_not_null17hb5ec4fd97aa9a1bbE
	movb	%al, -25(%rbp)
	movb	-25(%rbp), %al
	xorb	$-1, %al
	testb	$1, %al
	jne	LBB69_4
	jmp	LBB69_5
LBB69_4:
	leaq	l___unnamed_5(%rip), %rdi
	leaq	l___unnamed_6(%rip), %rdx
	movl	$46, %esi
	callq	__ZN4core9panicking5panic17h4accb85f0b6300d8E
LBB69_5:
	xorl	%eax, %eax
	testb	$1, %al
	jne	LBB69_6
	jmp	LBB69_10
LBB69_6:
	movq	-16(%rbp), %rdi
	callq	__ZN4core10intrinsics23is_aligned_and_not_null17hb5ec4fd97aa9a1bbE
	movb	%al, -26(%rbp)
	movb	-26(%rbp), %al
	xorb	$-1, %al
	testb	$1, %al
	jne	LBB69_9
	jmp	LBB69_10
LBB69_9:
	leaq	l___unnamed_7(%rip), %rdi
	leaq	l___unnamed_8(%rip), %rdx
	movl	$44, %esi
	callq	__ZN4core9panicking5panic17h4accb85f0b6300d8E
LBB69_10:
	xorl	%eax, %eax
	testb	$1, %al
	jne	LBB69_11
	jmp	LBB69_15
LBB69_11:
	movq	-8(%rbp), %rdi
	movq	-16(%rbp), %rsi
	movq	-24(%rbp), %rdx
	callq	__ZN4core10intrinsics8overlaps17h29f5533a3a06e710E
	movb	%al, -27(%rbp)
	movb	-27(%rbp), %al
	xorb	$-1, %al
	xorb	$-1, %al
	testb	$1, %al
	jne	LBB69_14
	jmp	LBB69_15
LBB69_14:
	leaq	l___unnamed_9(%rip), %rdi
	leaq	l___unnamed_10(%rip), %rdx
	movl	$37, %esi
	callq	__ZN4core9panicking5panic17h4accb85f0b6300d8E
LBB69_15:
	movq	-24(%rbp), %rax
	imulq	$24, %rax, %rdx
	movq	-16(%rbp), %rcx
	movq	-8(%rbp), %rsi
	movq	%rcx, %rdi
	callq	_memcpy
	addq	$32, %rsp
	popq	%rbp
	retq
	.cfi_endproc

	.p2align	4, 0x90
__ZN4core10intrinsics23is_aligned_and_not_null17h3505a12176644ee8E:
	.cfi_startproc
	pushq	%rbp
	.cfi_def_cfa_offset 16
	.cfi_offset %rbp, -16
	movq	%rsp, %rbp
	.cfi_def_cfa_register %rbp
	subq	$48, %rsp
	movq	%rdi, -24(%rbp)
	callq	__ZN4core3ptr33_$LT$impl$u20$$BP$const$u20$T$GT$7is_null17h8a472e5d922df33dE
	movb	%al, -25(%rbp)
	jmp	LBB70_5
LBB70_1:
	movb	$1, -9(%rbp)
	jmp	LBB70_4
LBB70_2:
	movb	$0, -9(%rbp)
	jmp	LBB70_4
LBB70_3:
	movq	$8, -8(%rbp)
	movq	-8(%rbp), %rax
	movq	%rax, -40(%rbp)
	jmp	LBB70_6
LBB70_4:
	movb	-9(%rbp), %al
	andb	$1, %al
	movzbl	%al, %eax
	addq	$48, %rsp
	popq	%rbp
	retq
LBB70_5:
	movb	-25(%rbp), %al
	xorb	$-1, %al
	testb	$1, %al
	jne	LBB70_3
	jmp	LBB70_2
LBB70_6:
	movq	-40(%rbp), %rax
	cmpq	$0, %rax
	sete	%cl
	testb	$1, %cl
	jne	LBB70_8
	movq	-24(%rbp), %rax
	xorl	%ecx, %ecx
	movl	%ecx, %edx
	movq	-40(%rbp), %rsi
	divq	%rsi
	cmpq	$0, %rdx
	je	LBB70_1
	jmp	LBB70_2
LBB70_8:
	leaq	_str.2(%rip), %rdi
	leaq	l___unnamed_11(%rip), %rdx
	movl	$57, %esi
	callq	__ZN4core9panicking5panic17h4accb85f0b6300d8E
	.cfi_endproc

	.p2align	4, 0x90
__ZN4core10intrinsics23is_aligned_and_not_null17h39af2041551873f7E:
	.cfi_startproc
	pushq	%rbp
	.cfi_def_cfa_offset 16
	.cfi_offset %rbp, -16
	movq	%rsp, %rbp
	.cfi_def_cfa_register %rbp
	subq	$48, %rsp
	movq	%rdi, -24(%rbp)
	callq	__ZN4core3ptr33_$LT$impl$u20$$BP$const$u20$T$GT$7is_null17h40f509df58231089E
	movb	%al, -25(%rbp)
	jmp	LBB71_5
LBB71_1:
	movb	$1, -9(%rbp)
	jmp	LBB71_4
LBB71_2:
	movb	$0, -9(%rbp)
	jmp	LBB71_4
LBB71_3:
	movq	$8, -8(%rbp)
	movq	-8(%rbp), %rax
	movq	%rax, -40(%rbp)
	jmp	LBB71_6
LBB71_4:
	movb	-9(%rbp), %al
	andb	$1, %al
	movzbl	%al, %eax
	addq	$48, %rsp
	popq	%rbp
	retq
LBB71_5:
	movb	-25(%rbp), %al
	xorb	$-1, %al
	testb	$1, %al
	jne	LBB71_3
	jmp	LBB71_2
LBB71_6:
	movq	-40(%rbp), %rax
	cmpq	$0, %rax
	sete	%cl
	testb	$1, %cl
	jne	LBB71_8
	movq	-24(%rbp), %rax
	xorl	%ecx, %ecx
	movl	%ecx, %edx
	movq	-40(%rbp), %rsi
	divq	%rsi
	cmpq	$0, %rdx
	je	LBB71_1
	jmp	LBB71_2
LBB71_8:
	leaq	_str.2(%rip), %rdi
	leaq	l___unnamed_11(%rip), %rdx
	movl	$57, %esi
	callq	__ZN4core9panicking5panic17h4accb85f0b6300d8E
	.cfi_endproc

	.p2align	4, 0x90
__ZN4core10intrinsics23is_aligned_and_not_null17h39c06f0e9dd74373E:
	.cfi_startproc
	pushq	%rbp
	.cfi_def_cfa_offset 16
	.cfi_offset %rbp, -16
	movq	%rsp, %rbp
	.cfi_def_cfa_register %rbp
	subq	$48, %rsp
	movq	%rdi, -24(%rbp)
	callq	__ZN4core3ptr33_$LT$impl$u20$$BP$const$u20$T$GT$7is_null17hf2b569eecb85168aE
	movb	%al, -25(%rbp)
	jmp	LBB72_5
LBB72_1:
	movb	$1, -9(%rbp)
	jmp	LBB72_4
LBB72_2:
	movb	$0, -9(%rbp)
	jmp	LBB72_4
LBB72_3:
	movq	$8, -8(%rbp)
	movq	-8(%rbp), %rax
	movq	%rax, -40(%rbp)
	jmp	LBB72_6
LBB72_4:
	movb	-9(%rbp), %al
	andb	$1, %al
	movzbl	%al, %eax
	addq	$48, %rsp
	popq	%rbp
	retq
LBB72_5:
	movb	-25(%rbp), %al
	xorb	$-1, %al
	testb	$1, %al
	jne	LBB72_3
	jmp	LBB72_2
LBB72_6:
	movq	-40(%rbp), %rax
	cmpq	$0, %rax
	sete	%cl
	testb	$1, %cl
	jne	LBB72_8
	movq	-24(%rbp), %rax
	xorl	%ecx, %ecx
	movl	%ecx, %edx
	movq	-40(%rbp), %rsi
	divq	%rsi
	cmpq	$0, %rdx
	je	LBB72_1
	jmp	LBB72_2
LBB72_8:
	leaq	_str.2(%rip), %rdi
	leaq	l___unnamed_11(%rip), %rdx
	movl	$57, %esi
	callq	__ZN4core9panicking5panic17h4accb85f0b6300d8E
	.cfi_endproc

	.p2align	4, 0x90
__ZN4core10intrinsics23is_aligned_and_not_null17h508132dae9fdf55fE:
	.cfi_startproc
	pushq	%rbp
	.cfi_def_cfa_offset 16
	.cfi_offset %rbp, -16
	movq	%rsp, %rbp
	.cfi_def_cfa_register %rbp
	subq	$48, %rsp
	movq	%rdi, -24(%rbp)
	callq	__ZN4core3ptr33_$LT$impl$u20$$BP$const$u20$T$GT$7is_null17h59711f8087130b82E
	movb	%al, -25(%rbp)
	jmp	LBB73_5
LBB73_1:
	movb	$1, -9(%rbp)
	jmp	LBB73_4
LBB73_2:
	movb	$0, -9(%rbp)
	jmp	LBB73_4
LBB73_3:
	movq	$1, -8(%rbp)
	movq	-8(%rbp), %rax
	movq	%rax, -40(%rbp)
	jmp	LBB73_6
LBB73_4:
	movb	-9(%rbp), %al
	andb	$1, %al
	movzbl	%al, %eax
	addq	$48, %rsp
	popq	%rbp
	retq
LBB73_5:
	movb	-25(%rbp), %al
	xorb	$-1, %al
	testb	$1, %al
	jne	LBB73_3
	jmp	LBB73_2
LBB73_6:
	movq	-40(%rbp), %rax
	cmpq	$0, %rax
	sete	%cl
	testb	$1, %cl
	jne	LBB73_8
	movq	-24(%rbp), %rax
	xorl	%ecx, %ecx
	movl	%ecx, %edx
	movq	-40(%rbp), %rsi
	divq	%rsi
	cmpq	$0, %rdx
	je	LBB73_1
	jmp	LBB73_2
LBB73_8:
	leaq	_str.2(%rip), %rdi
	leaq	l___unnamed_11(%rip), %rdx
	movl	$57, %esi
	callq	__ZN4core9panicking5panic17h4accb85f0b6300d8E
	.cfi_endproc

	.p2align	4, 0x90
__ZN4core10intrinsics23is_aligned_and_not_null17h5bffdb0aa97c26a4E:
	.cfi_startproc
	pushq	%rbp
	.cfi_def_cfa_offset 16
	.cfi_offset %rbp, -16
	movq	%rsp, %rbp
	.cfi_def_cfa_register %rbp
	subq	$48, %rsp
	movq	%rdi, -24(%rbp)
	callq	__ZN4core3ptr33_$LT$impl$u20$$BP$const$u20$T$GT$7is_null17h90ed7f44ae421f3dE
	movb	%al, -25(%rbp)
	jmp	LBB74_5
LBB74_1:
	movb	$1, -9(%rbp)
	jmp	LBB74_4
LBB74_2:
	movb	$0, -9(%rbp)
	jmp	LBB74_4
LBB74_3:
	movq	$8, -8(%rbp)
	movq	-8(%rbp), %rax
	movq	%rax, -40(%rbp)
	jmp	LBB74_6
LBB74_4:
	movb	-9(%rbp), %al
	andb	$1, %al
	movzbl	%al, %eax
	addq	$48, %rsp
	popq	%rbp
	retq
LBB74_5:
	movb	-25(%rbp), %al
	xorb	$-1, %al
	testb	$1, %al
	jne	LBB74_3
	jmp	LBB74_2
LBB74_6:
	movq	-40(%rbp), %rax
	cmpq	$0, %rax
	sete	%cl
	testb	$1, %cl
	jne	LBB74_8
	movq	-24(%rbp), %rax
	xorl	%ecx, %ecx
	movl	%ecx, %edx
	movq	-40(%rbp), %rsi
	divq	%rsi
	cmpq	$0, %rdx
	je	LBB74_1
	jmp	LBB74_2
LBB74_8:
	leaq	_str.2(%rip), %rdi
	leaq	l___unnamed_11(%rip), %rdx
	movl	$57, %esi
	callq	__ZN4core9panicking5panic17h4accb85f0b6300d8E
	.cfi_endproc

	.p2align	4, 0x90
__ZN4core10intrinsics23is_aligned_and_not_null17h64ea43dd6881de20E:
	.cfi_startproc
	pushq	%rbp
	.cfi_def_cfa_offset 16
	.cfi_offset %rbp, -16
	movq	%rsp, %rbp
	.cfi_def_cfa_register %rbp
	subq	$48, %rsp
	movq	%rdi, -24(%rbp)
	callq	__ZN4core3ptr33_$LT$impl$u20$$BP$const$u20$T$GT$7is_null17h19da00cc791d35baE
	movb	%al, -25(%rbp)
	jmp	LBB75_5
LBB75_1:
	movb	$1, -9(%rbp)
	jmp	LBB75_4
LBB75_2:
	movb	$0, -9(%rbp)
	jmp	LBB75_4
LBB75_3:
	movq	$8, -8(%rbp)
	movq	-8(%rbp), %rax
	movq	%rax, -40(%rbp)
	jmp	LBB75_6
LBB75_4:
	movb	-9(%rbp), %al
	andb	$1, %al
	movzbl	%al, %eax
	addq	$48, %rsp
	popq	%rbp
	retq
LBB75_5:
	movb	-25(%rbp), %al
	xorb	$-1, %al
	testb	$1, %al
	jne	LBB75_3
	jmp	LBB75_2
LBB75_6:
	movq	-40(%rbp), %rax
	cmpq	$0, %rax
	sete	%cl
	testb	$1, %cl
	jne	LBB75_8
	movq	-24(%rbp), %rax
	xorl	%ecx, %ecx
	movl	%ecx, %edx
	movq	-40(%rbp), %rsi
	divq	%rsi
	cmpq	$0, %rdx
	je	LBB75_1
	jmp	LBB75_2
LBB75_8:
	leaq	_str.2(%rip), %rdi
	leaq	l___unnamed_11(%rip), %rdx
	movl	$57, %esi
	callq	__ZN4core9panicking5panic17h4accb85f0b6300d8E
	.cfi_endproc

	.p2align	4, 0x90
__ZN4core10intrinsics23is_aligned_and_not_null17h8b0ce3c0fcad0a5dE:
	.cfi_startproc
	pushq	%rbp
	.cfi_def_cfa_offset 16
	.cfi_offset %rbp, -16
	movq	%rsp, %rbp
	.cfi_def_cfa_register %rbp
	subq	$48, %rsp
	movq	%rdi, -24(%rbp)
	callq	__ZN4core3ptr33_$LT$impl$u20$$BP$const$u20$T$GT$7is_null17h8a2684e4ba6c0b24E
	movb	%al, -25(%rbp)
	jmp	LBB76_5
LBB76_1:
	movb	$1, -9(%rbp)
	jmp	LBB76_4
LBB76_2:
	movb	$0, -9(%rbp)
	jmp	LBB76_4
LBB76_3:
	movq	$8, -8(%rbp)
	movq	-8(%rbp), %rax
	movq	%rax, -40(%rbp)
	jmp	LBB76_6
LBB76_4:
	movb	-9(%rbp), %al
	andb	$1, %al
	movzbl	%al, %eax
	addq	$48, %rsp
	popq	%rbp
	retq
LBB76_5:
	movb	-25(%rbp), %al
	xorb	$-1, %al
	testb	$1, %al
	jne	LBB76_3
	jmp	LBB76_2
LBB76_6:
	movq	-40(%rbp), %rax
	cmpq	$0, %rax
	sete	%cl
	testb	$1, %cl
	jne	LBB76_8
	movq	-24(%rbp), %rax
	xorl	%ecx, %ecx
	movl	%ecx, %edx
	movq	-40(%rbp), %rsi
	divq	%rsi
	cmpq	$0, %rdx
	je	LBB76_1
	jmp	LBB76_2
LBB76_8:
	leaq	_str.2(%rip), %rdi
	leaq	l___unnamed_11(%rip), %rdx
	movl	$57, %esi
	callq	__ZN4core9panicking5panic17h4accb85f0b6300d8E
	.cfi_endproc

	.p2align	4, 0x90
__ZN4core10intrinsics23is_aligned_and_not_null17ha574f2b6cf2de5eaE:
	.cfi_startproc
	pushq	%rbp
	.cfi_def_cfa_offset 16
	.cfi_offset %rbp, -16
	movq	%rsp, %rbp
	.cfi_def_cfa_register %rbp
	subq	$48, %rsp
	movq	%rdi, -24(%rbp)
	callq	__ZN4core3ptr33_$LT$impl$u20$$BP$const$u20$T$GT$7is_null17hf12685b955243de4E
	movb	%al, -25(%rbp)
	jmp	LBB77_5
LBB77_1:
	movb	$1, -9(%rbp)
	jmp	LBB77_4
LBB77_2:
	movb	$0, -9(%rbp)
	jmp	LBB77_4
LBB77_3:
	movq	$8, -8(%rbp)
	movq	-8(%rbp), %rax
	movq	%rax, -40(%rbp)
	jmp	LBB77_6
LBB77_4:
	movb	-9(%rbp), %al
	andb	$1, %al
	movzbl	%al, %eax
	addq	$48, %rsp
	popq	%rbp
	retq
LBB77_5:
	movb	-25(%rbp), %al
	xorb	$-1, %al
	testb	$1, %al
	jne	LBB77_3
	jmp	LBB77_2
LBB77_6:
	movq	-40(%rbp), %rax
	cmpq	$0, %rax
	sete	%cl
	testb	$1, %cl
	jne	LBB77_8
	movq	-24(%rbp), %rax
	xorl	%ecx, %ecx
	movl	%ecx, %edx
	movq	-40(%rbp), %rsi
	divq	%rsi
	cmpq	$0, %rdx
	je	LBB77_1
	jmp	LBB77_2
LBB77_8:
	leaq	_str.2(%rip), %rdi
	leaq	l___unnamed_11(%rip), %rdx
	movl	$57, %esi
	callq	__ZN4core9panicking5panic17h4accb85f0b6300d8E
	.cfi_endproc

	.p2align	4, 0x90
__ZN4core10intrinsics23is_aligned_and_not_null17hb5ec4fd97aa9a1bbE:
	.cfi_startproc
	pushq	%rbp
	.cfi_def_cfa_offset 16
	.cfi_offset %rbp, -16
	movq	%rsp, %rbp
	.cfi_def_cfa_register %rbp
	subq	$48, %rsp
	movq	%rdi, -24(%rbp)
	callq	__ZN4core3ptr33_$LT$impl$u20$$BP$const$u20$T$GT$7is_null17h038c4d054976d0b9E
	movb	%al, -25(%rbp)
	jmp	LBB78_5
LBB78_1:
	movb	$1, -9(%rbp)
	jmp	LBB78_4
LBB78_2:
	movb	$0, -9(%rbp)
	jmp	LBB78_4
LBB78_3:
	movq	$8, -8(%rbp)
	movq	-8(%rbp), %rax
	movq	%rax, -40(%rbp)
	jmp	LBB78_6
LBB78_4:
	movb	-9(%rbp), %al
	andb	$1, %al
	movzbl	%al, %eax
	addq	$48, %rsp
	popq	%rbp
	retq
LBB78_5:
	movb	-25(%rbp), %al
	xorb	$-1, %al
	testb	$1, %al
	jne	LBB78_3
	jmp	LBB78_2
LBB78_6:
	movq	-40(%rbp), %rax
	cmpq	$0, %rax
	sete	%cl
	testb	$1, %cl
	jne	LBB78_8
	movq	-24(%rbp), %rax
	xorl	%ecx, %ecx
	movl	%ecx, %edx
	movq	-40(%rbp), %rsi
	divq	%rsi
	cmpq	$0, %rdx
	je	LBB78_1
	jmp	LBB78_2
LBB78_8:
	leaq	_str.2(%rip), %rdi
	leaq	l___unnamed_11(%rip), %rdx
	movl	$57, %esi
	callq	__ZN4core9panicking5panic17h4accb85f0b6300d8E
	.cfi_endproc

	.p2align	4, 0x90
__ZN4core10intrinsics23is_aligned_and_not_null17hed8d2ed3bd74fb1fE:
	.cfi_startproc
	pushq	%rbp
	.cfi_def_cfa_offset 16
	.cfi_offset %rbp, -16
	movq	%rsp, %rbp
	.cfi_def_cfa_register %rbp
	subq	$48, %rsp
	movq	%rdi, -24(%rbp)
	callq	__ZN4core3ptr33_$LT$impl$u20$$BP$const$u20$T$GT$7is_null17hd069110e0f84be1aE
	movb	%al, -25(%rbp)
	jmp	LBB79_5
LBB79_1:
	movb	$1, -9(%rbp)
	jmp	LBB79_4
LBB79_2:
	movb	$0, -9(%rbp)
	jmp	LBB79_4
LBB79_3:
	movq	$8, -8(%rbp)
	movq	-8(%rbp), %rax
	movq	%rax, -40(%rbp)
	jmp	LBB79_6
LBB79_4:
	movb	-9(%rbp), %al
	andb	$1, %al
	movzbl	%al, %eax
	addq	$48, %rsp
	popq	%rbp
	retq
LBB79_5:
	movb	-25(%rbp), %al
	xorb	$-1, %al
	testb	$1, %al
	jne	LBB79_3
	jmp	LBB79_2
LBB79_6:
	movq	-40(%rbp), %rax
	cmpq	$0, %rax
	sete	%cl
	testb	$1, %cl
	jne	LBB79_8
	movq	-24(%rbp), %rax
	xorl	%ecx, %ecx
	movl	%ecx, %edx
	movq	-40(%rbp), %rsi
	divq	%rsi
	cmpq	$0, %rdx
	je	LBB79_1
	jmp	LBB79_2
LBB79_8:
	leaq	_str.2(%rip), %rdi
	leaq	l___unnamed_11(%rip), %rdx
	movl	$57, %esi
	callq	__ZN4core9panicking5panic17h4accb85f0b6300d8E
	.cfi_endproc

	.p2align	4, 0x90
__ZN4core10intrinsics23is_aligned_and_not_null17hf8b7aa1147d444ceE:
	.cfi_startproc
	pushq	%rbp
	.cfi_def_cfa_offset 16
	.cfi_offset %rbp, -16
	movq	%rsp, %rbp
	.cfi_def_cfa_register %rbp
	subq	$48, %rsp
	movq	%rdi, -24(%rbp)
	callq	__ZN4core3ptr33_$LT$impl$u20$$BP$const$u20$T$GT$7is_null17hb69ed7bf947cc278E
	movb	%al, -25(%rbp)
	jmp	LBB80_5
LBB80_1:
	movb	$1, -9(%rbp)
	jmp	LBB80_4
LBB80_2:
	movb	$0, -9(%rbp)
	jmp	LBB80_4
LBB80_3:
	movq	$8, -8(%rbp)
	movq	-8(%rbp), %rax
	movq	%rax, -40(%rbp)
	jmp	LBB80_6
LBB80_4:
	movb	-9(%rbp), %al
	andb	$1, %al
	movzbl	%al, %eax
	addq	$48, %rsp
	popq	%rbp
	retq
LBB80_5:
	movb	-25(%rbp), %al
	xorb	$-1, %al
	testb	$1, %al
	jne	LBB80_3
	jmp	LBB80_2
LBB80_6:
	movq	-40(%rbp), %rax
	cmpq	$0, %rax
	sete	%cl
	testb	$1, %cl
	jne	LBB80_8
	movq	-24(%rbp), %rax
	xorl	%ecx, %ecx
	movl	%ecx, %edx
	movq	-40(%rbp), %rsi
	divq	%rsi
	cmpq	$0, %rdx
	je	LBB80_1
	jmp	LBB80_2
LBB80_8:
	leaq	_str.2(%rip), %rdi
	leaq	l___unnamed_11(%rip), %rdx
	movl	$57, %esi
	callq	__ZN4core9panicking5panic17h4accb85f0b6300d8E
	.cfi_endproc

	.p2align	4, 0x90
__ZN4core10intrinsics4copy17h1888414c24a4a289E:
	.cfi_startproc
	pushq	%rbp
	.cfi_def_cfa_offset 16
	.cfi_offset %rbp, -16
	movq	%rsp, %rbp
	.cfi_def_cfa_register %rbp
	subq	$32, %rsp
	xorl	%eax, %eax
	testb	$1, %al
	movq	%rdi, -8(%rbp)
	movq	%rsi, -16(%rbp)
	movq	%rdx, -24(%rbp)
	jne	LBB81_1
	jmp	LBB81_5
LBB81_1:
	movq	-8(%rbp), %rdi
	callq	__ZN4core10intrinsics23is_aligned_and_not_null17h5bffdb0aa97c26a4E
	movb	%al, -25(%rbp)
	movb	-25(%rbp), %al
	xorb	$-1, %al
	testb	$1, %al
	jne	LBB81_4
	jmp	LBB81_5
LBB81_4:
	leaq	l___unnamed_5(%rip), %rdi
	leaq	l___unnamed_12(%rip), %rdx
	movl	$46, %esi
	callq	__ZN4core9panicking5panic17h4accb85f0b6300d8E
LBB81_5:
	xorl	%eax, %eax
	testb	$1, %al
	jne	LBB81_6
	jmp	LBB81_10
LBB81_6:
	movq	-16(%rbp), %rdi
	callq	__ZN4core10intrinsics23is_aligned_and_not_null17h5bffdb0aa97c26a4E
	movb	%al, -26(%rbp)
	movb	-26(%rbp), %al
	xorb	$-1, %al
	testb	$1, %al
	jne	LBB81_9
	jmp	LBB81_10
LBB81_9:
	leaq	l___unnamed_7(%rip), %rdi
	leaq	l___unnamed_13(%rip), %rdx
	movl	$44, %esi
	callq	__ZN4core9panicking5panic17h4accb85f0b6300d8E
LBB81_10:
	movq	-24(%rbp), %rax
	shlq	$5, %rax
	movq	-16(%rbp), %rcx
	movq	-8(%rbp), %rdx
	movq	%rcx, %rdi
	movq	%rdx, %rsi
	movq	%rax, %rdx
	callq	_memmove
	addq	$32, %rsp
	popq	%rbp
	retq
	.cfi_endproc

	.p2align	4, 0x90
__ZN4core10intrinsics4copy17h51161418077ba506E:
	.cfi_startproc
	pushq	%rbp
	.cfi_def_cfa_offset 16
	.cfi_offset %rbp, -16
	movq	%rsp, %rbp
	.cfi_def_cfa_register %rbp
	subq	$32, %rsp
	xorl	%eax, %eax
	testb	$1, %al
	movq	%rdi, -8(%rbp)
	movq	%rsi, -16(%rbp)
	movq	%rdx, -24(%rbp)
	jne	LBB82_1
	jmp	LBB82_5
LBB82_1:
	movq	-8(%rbp), %rdi
	callq	__ZN4core10intrinsics23is_aligned_and_not_null17hf8b7aa1147d444ceE
	movb	%al, -25(%rbp)
	movb	-25(%rbp), %al
	xorb	$-1, %al
	testb	$1, %al
	jne	LBB82_4
	jmp	LBB82_5
LBB82_4:
	leaq	l___unnamed_5(%rip), %rdi
	leaq	l___unnamed_12(%rip), %rdx
	movl	$46, %esi
	callq	__ZN4core9panicking5panic17h4accb85f0b6300d8E
LBB82_5:
	xorl	%eax, %eax
	testb	$1, %al
	jne	LBB82_6
	jmp	LBB82_10
LBB82_6:
	movq	-16(%rbp), %rdi
	callq	__ZN4core10intrinsics23is_aligned_and_not_null17hf8b7aa1147d444ceE
	movb	%al, -26(%rbp)
	movb	-26(%rbp), %al
	xorb	$-1, %al
	testb	$1, %al
	jne	LBB82_9
	jmp	LBB82_10
LBB82_9:
	leaq	l___unnamed_7(%rip), %rdi
	leaq	l___unnamed_13(%rip), %rdx
	movl	$44, %esi
	callq	__ZN4core9panicking5panic17h4accb85f0b6300d8E
LBB82_10:
	movq	-24(%rbp), %rax
	shlq	$3, %rax
	movq	-16(%rbp), %rcx
	movq	-8(%rbp), %rdx
	movq	%rcx, %rdi
	movq	%rdx, %rsi
	movq	%rax, %rdx
	callq	_memmove
	addq	$32, %rsp
	popq	%rbp
	retq
	.cfi_endproc

	.p2align	4, 0x90
__ZN4core10intrinsics4copy17h71309211d53b7ea6E:
	.cfi_startproc
	pushq	%rbp
	.cfi_def_cfa_offset 16
	.cfi_offset %rbp, -16
	movq	%rsp, %rbp
	.cfi_def_cfa_register %rbp
	subq	$32, %rsp
	xorl	%eax, %eax
	testb	$1, %al
	movq	%rdi, -8(%rbp)
	movq	%rsi, -16(%rbp)
	movq	%rdx, -24(%rbp)
	jne	LBB83_1
	jmp	LBB83_5
LBB83_1:
	movq	-8(%rbp), %rdi
	callq	__ZN4core10intrinsics23is_aligned_and_not_null17ha574f2b6cf2de5eaE
	movb	%al, -25(%rbp)
	movb	-25(%rbp), %al
	xorb	$-1, %al
	testb	$1, %al
	jne	LBB83_4
	jmp	LBB83_5
LBB83_4:
	leaq	l___unnamed_5(%rip), %rdi
	leaq	l___unnamed_12(%rip), %rdx
	movl	$46, %esi
	callq	__ZN4core9panicking5panic17h4accb85f0b6300d8E
LBB83_5:
	xorl	%eax, %eax
	testb	$1, %al
	jne	LBB83_6
	jmp	LBB83_10
LBB83_6:
	movq	-16(%rbp), %rdi
	callq	__ZN4core10intrinsics23is_aligned_and_not_null17ha574f2b6cf2de5eaE
	movb	%al, -26(%rbp)
	movb	-26(%rbp), %al
	xorb	$-1, %al
	testb	$1, %al
	jne	LBB83_9
	jmp	LBB83_10
LBB83_9:
	leaq	l___unnamed_7(%rip), %rdi
	leaq	l___unnamed_13(%rip), %rdx
	movl	$44, %esi
	callq	__ZN4core9panicking5panic17h4accb85f0b6300d8E
LBB83_10:
	movq	-24(%rbp), %rax
	imulq	$24, %rax, %rdx
	movq	-16(%rbp), %rcx
	movq	-8(%rbp), %rsi
	movq	%rcx, %rdi
	callq	_memmove
	addq	$32, %rsp
	popq	%rbp
	retq
	.cfi_endproc

	.p2align	4, 0x90
__ZN4core10intrinsics8overlaps17h1dc6db36aad6f817E:
	.cfi_startproc
	pushq	%rbp
	.cfi_def_cfa_offset 16
	.cfi_offset %rbp, -16
	movq	%rsp, %rbp
	.cfi_def_cfa_register %rbp
	subq	$80, %rsp
	movq	$24, -8(%rbp)
	movq	-8(%rbp), %rax
	movq	%rdi, -24(%rbp)
	movq	%rsi, -32(%rbp)
	movq	%rdx, -40(%rbp)
	movq	%rax, -48(%rbp)
	movq	-48(%rbp), %rdi
	movq	-40(%rbp), %rsi
	callq	__ZN4core3num23_$LT$impl$u20$usize$GT$11checked_mul17h94d413bee1b445dbE
	movq	%rax, -56(%rbp)
	movq	%rdx, -64(%rbp)
	movq	-56(%rbp), %rdi
	movq	-64(%rbp), %rsi
	callq	__ZN4core6option15Option$LT$T$GT$6unwrap17h965d1c2207c750e1E
	movq	%rax, -72(%rbp)
	movq	-24(%rbp), %rax
	movq	-32(%rbp), %rcx
	cmpq	%rcx, %rax
	ja	LBB84_5
	movq	-32(%rbp), %rax
	movq	-24(%rbp), %rcx
	subq	%rcx, %rax
	movq	%rax, -16(%rbp)
	jmp	LBB84_6
LBB84_5:
	movq	-24(%rbp), %rax
	movq	-32(%rbp), %rcx
	subq	%rcx, %rax
	movq	%rax, -16(%rbp)
LBB84_6:
	movq	-72(%rbp), %rax
	cmpq	-16(%rbp), %rax
	seta	%cl
	andb	$1, %cl
	movzbl	%cl, %edx
	movl	%edx, %eax
	addq	$80, %rsp
	popq	%rbp
	retq
	.cfi_endproc

	.p2align	4, 0x90
__ZN4core10intrinsics8overlaps17h295114d877306e36E:
	.cfi_startproc
	pushq	%rbp
	.cfi_def_cfa_offset 16
	.cfi_offset %rbp, -16
	movq	%rsp, %rbp
	.cfi_def_cfa_register %rbp
	subq	$80, %rsp
	movq	$8, -8(%rbp)
	movq	-8(%rbp), %rax
	movq	%rdi, -24(%rbp)
	movq	%rsi, -32(%rbp)
	movq	%rdx, -40(%rbp)
	movq	%rax, -48(%rbp)
	movq	-48(%rbp), %rdi
	movq	-40(%rbp), %rsi
	callq	__ZN4core3num23_$LT$impl$u20$usize$GT$11checked_mul17h94d413bee1b445dbE
	movq	%rax, -56(%rbp)
	movq	%rdx, -64(%rbp)
	movq	-56(%rbp), %rdi
	movq	-64(%rbp), %rsi
	callq	__ZN4core6option15Option$LT$T$GT$6unwrap17h965d1c2207c750e1E
	movq	%rax, -72(%rbp)
	movq	-24(%rbp), %rax
	movq	-32(%rbp), %rcx
	cmpq	%rcx, %rax
	ja	LBB85_5
	movq	-32(%rbp), %rax
	movq	-24(%rbp), %rcx
	subq	%rcx, %rax
	movq	%rax, -16(%rbp)
	jmp	LBB85_6
LBB85_5:
	movq	-24(%rbp), %rax
	movq	-32(%rbp), %rcx
	subq	%rcx, %rax
	movq	%rax, -16(%rbp)
LBB85_6:
	movq	-72(%rbp), %rax
	cmpq	-16(%rbp), %rax
	seta	%cl
	andb	$1, %cl
	movzbl	%cl, %edx
	movl	%edx, %eax
	addq	$80, %rsp
	popq	%rbp
	retq
	.cfi_endproc

	.p2align	4, 0x90
__ZN4core10intrinsics8overlaps17h29f5533a3a06e710E:
	.cfi_startproc
	pushq	%rbp
	.cfi_def_cfa_offset 16
	.cfi_offset %rbp, -16
	movq	%rsp, %rbp
	.cfi_def_cfa_register %rbp
	subq	$80, %rsp
	movq	$24, -8(%rbp)
	movq	-8(%rbp), %rax
	movq	%rdi, -24(%rbp)
	movq	%rsi, -32(%rbp)
	movq	%rdx, -40(%rbp)
	movq	%rax, -48(%rbp)
	movq	-48(%rbp), %rdi
	movq	-40(%rbp), %rsi
	callq	__ZN4core3num23_$LT$impl$u20$usize$GT$11checked_mul17h94d413bee1b445dbE
	movq	%rax, -56(%rbp)
	movq	%rdx, -64(%rbp)
	movq	-56(%rbp), %rdi
	movq	-64(%rbp), %rsi
	callq	__ZN4core6option15Option$LT$T$GT$6unwrap17h965d1c2207c750e1E
	movq	%rax, -72(%rbp)
	movq	-24(%rbp), %rax
	movq	-32(%rbp), %rcx
	cmpq	%rcx, %rax
	ja	LBB86_5
	movq	-32(%rbp), %rax
	movq	-24(%rbp), %rcx
	subq	%rcx, %rax
	movq	%rax, -16(%rbp)
	jmp	LBB86_6
LBB86_5:
	movq	-24(%rbp), %rax
	movq	-32(%rbp), %rcx
	subq	%rcx, %rax
	movq	%rax, -16(%rbp)
LBB86_6:
	movq	-72(%rbp), %rax
	cmpq	-16(%rbp), %rax
	seta	%cl
	andb	$1, %cl
	movzbl	%cl, %edx
	movl	%edx, %eax
	addq	$80, %rsp
	popq	%rbp
	retq
	.cfi_endproc

	.p2align	4, 0x90
__ZN4core10intrinsics8overlaps17h2bdeab252546098fE:
	.cfi_startproc
	pushq	%rbp
	.cfi_def_cfa_offset 16
	.cfi_offset %rbp, -16
	movq	%rsp, %rbp
	.cfi_def_cfa_register %rbp
	subq	$80, %rsp
	movq	$24, -8(%rbp)
	movq	-8(%rbp), %rax
	movq	%rdi, -24(%rbp)
	movq	%rsi, -32(%rbp)
	movq	%rdx, -40(%rbp)
	movq	%rax, -48(%rbp)
	movq	-48(%rbp), %rdi
	movq	-40(%rbp), %rsi
	callq	__ZN4core3num23_$LT$impl$u20$usize$GT$11checked_mul17h94d413bee1b445dbE
	movq	%rax, -56(%rbp)
	movq	%rdx, -64(%rbp)
	movq	-56(%rbp), %rdi
	movq	-64(%rbp), %rsi
	callq	__ZN4core6option15Option$LT$T$GT$6unwrap17h965d1c2207c750e1E
	movq	%rax, -72(%rbp)
	movq	-24(%rbp), %rax
	movq	-32(%rbp), %rcx
	cmpq	%rcx, %rax
	ja	LBB87_5
	movq	-32(%rbp), %rax
	movq	-24(%rbp), %rcx
	subq	%rcx, %rax
	movq	%rax, -16(%rbp)
	jmp	LBB87_6
LBB87_5:
	movq	-24(%rbp), %rax
	movq	-32(%rbp), %rcx
	subq	%rcx, %rax
	movq	%rax, -16(%rbp)
LBB87_6:
	movq	-72(%rbp), %rax
	cmpq	-16(%rbp), %rax
	seta	%cl
	andb	$1, %cl
	movzbl	%cl, %edx
	movl	%edx, %eax
	addq	$80, %rsp
	popq	%rbp
	retq
	.cfi_endproc

	.p2align	4, 0x90
__ZN4core10intrinsics8overlaps17h5c9598d295167465E:
	.cfi_startproc
	pushq	%rbp
	.cfi_def_cfa_offset 16
	.cfi_offset %rbp, -16
	movq	%rsp, %rbp
	.cfi_def_cfa_register %rbp
	subq	$80, %rsp
	movq	$32, -8(%rbp)
	movq	-8(%rbp), %rax
	movq	%rdi, -24(%rbp)
	movq	%rsi, -32(%rbp)
	movq	%rdx, -40(%rbp)
	movq	%rax, -48(%rbp)
	movq	-48(%rbp), %rdi
	movq	-40(%rbp), %rsi
	callq	__ZN4core3num23_$LT$impl$u20$usize$GT$11checked_mul17h94d413bee1b445dbE
	movq	%rax, -56(%rbp)
	movq	%rdx, -64(%rbp)
	movq	-56(%rbp), %rdi
	movq	-64(%rbp), %rsi
	callq	__ZN4core6option15Option$LT$T$GT$6unwrap17h965d1c2207c750e1E
	movq	%rax, -72(%rbp)
	movq	-24(%rbp), %rax
	movq	-32(%rbp), %rcx
	cmpq	%rcx, %rax
	ja	LBB88_5
	movq	-32(%rbp), %rax
	movq	-24(%rbp), %rcx
	subq	%rcx, %rax
	movq	%rax, -16(%rbp)
	jmp	LBB88_6
LBB88_5:
	movq	-24(%rbp), %rax
	movq	-32(%rbp), %rcx
	subq	%rcx, %rax
	movq	%rax, -16(%rbp)
LBB88_6:
	movq	-72(%rbp), %rax
	cmpq	-16(%rbp), %rax
	seta	%cl
	andb	$1, %cl
	movzbl	%cl, %edx
	movl	%edx, %eax
	addq	$80, %rsp
	popq	%rbp
	retq
	.cfi_endproc

	.p2align	4, 0x90
__ZN4core10intrinsics8overlaps17h7185003335b91c3bE:
	.cfi_startproc
	pushq	%rbp
	.cfi_def_cfa_offset 16
	.cfi_offset %rbp, -16
	movq	%rsp, %rbp
	.cfi_def_cfa_register %rbp
	subq	$80, %rsp
	movq	$32, -8(%rbp)
	movq	-8(%rbp), %rax
	movq	%rdi, -24(%rbp)
	movq	%rsi, -32(%rbp)
	movq	%rdx, -40(%rbp)
	movq	%rax, -48(%rbp)
	movq	-48(%rbp), %rdi
	movq	-40(%rbp), %rsi
	callq	__ZN4core3num23_$LT$impl$u20$usize$GT$11checked_mul17h94d413bee1b445dbE
	movq	%rax, -56(%rbp)
	movq	%rdx, -64(%rbp)
	movq	-56(%rbp), %rdi
	movq	-64(%rbp), %rsi
	callq	__ZN4core6option15Option$LT$T$GT$6unwrap17h965d1c2207c750e1E
	movq	%rax, -72(%rbp)
	movq	-24(%rbp), %rax
	movq	-32(%rbp), %rcx
	cmpq	%rcx, %rax
	ja	LBB89_5
	movq	-32(%rbp), %rax
	movq	-24(%rbp), %rcx
	subq	%rcx, %rax
	movq	%rax, -16(%rbp)
	jmp	LBB89_6
LBB89_5:
	movq	-24(%rbp), %rax
	movq	-32(%rbp), %rcx
	subq	%rcx, %rax
	movq	%rax, -16(%rbp)
LBB89_6:
	movq	-72(%rbp), %rax
	cmpq	-16(%rbp), %rax
	seta	%cl
	andb	$1, %cl
	movzbl	%cl, %edx
	movl	%edx, %eax
	addq	$80, %rsp
	popq	%rbp
	retq
	.cfi_endproc

	.p2align	4, 0x90
__ZN4core10intrinsics8overlaps17h7a5daa36be11a4e8E:
	.cfi_startproc
	pushq	%rbp
	.cfi_def_cfa_offset 16
	.cfi_offset %rbp, -16
	movq	%rsp, %rbp
	.cfi_def_cfa_register %rbp
	subq	$80, %rsp
	movq	$16, -8(%rbp)
	movq	-8(%rbp), %rax
	movq	%rdi, -24(%rbp)
	movq	%rsi, -32(%rbp)
	movq	%rdx, -40(%rbp)
	movq	%rax, -48(%rbp)
	movq	-48(%rbp), %rdi
	movq	-40(%rbp), %rsi
	callq	__ZN4core3num23_$LT$impl$u20$usize$GT$11checked_mul17h94d413bee1b445dbE
	movq	%rax, -56(%rbp)
	movq	%rdx, -64(%rbp)
	movq	-56(%rbp), %rdi
	movq	-64(%rbp), %rsi
	callq	__ZN4core6option15Option$LT$T$GT$6unwrap17h965d1c2207c750e1E
	movq	%rax, -72(%rbp)
	movq	-24(%rbp), %rax
	movq	-32(%rbp), %rcx
	cmpq	%rcx, %rax
	ja	LBB90_5
	movq	-32(%rbp), %rax
	movq	-24(%rbp), %rcx
	subq	%rcx, %rax
	movq	%rax, -16(%rbp)
	jmp	LBB90_6
LBB90_5:
	movq	-24(%rbp), %rax
	movq	-32(%rbp), %rcx
	subq	%rcx, %rax
	movq	%rax, -16(%rbp)
LBB90_6:
	movq	-72(%rbp), %rax
	cmpq	-16(%rbp), %rax
	seta	%cl
	andb	$1, %cl
	movzbl	%cl, %edx
	movl	%edx, %eax
	addq	$80, %rsp
	popq	%rbp
	retq
	.cfi_endproc

	.p2align	4, 0x90
__ZN4core10intrinsics8overlaps17h920cbe7ac548d0ebE:
	.cfi_startproc
	pushq	%rbp
	.cfi_def_cfa_offset 16
	.cfi_offset %rbp, -16
	movq	%rsp, %rbp
	.cfi_def_cfa_register %rbp
	subq	$80, %rsp
	movq	$1, -8(%rbp)
	movq	-8(%rbp), %rax
	movq	%rdi, -24(%rbp)
	movq	%rsi, -32(%rbp)
	movq	%rdx, -40(%rbp)
	movq	%rax, -48(%rbp)
	movq	-48(%rbp), %rdi
	movq	-40(%rbp), %rsi
	callq	__ZN4core3num23_$LT$impl$u20$usize$GT$11checked_mul17h94d413bee1b445dbE
	movq	%rax, -56(%rbp)
	movq	%rdx, -64(%rbp)
	movq	-56(%rbp), %rdi
	movq	-64(%rbp), %rsi
	callq	__ZN4core6option15Option$LT$T$GT$6unwrap17h965d1c2207c750e1E
	movq	%rax, -72(%rbp)
	movq	-24(%rbp), %rax
	movq	-32(%rbp), %rcx
	cmpq	%rcx, %rax
	ja	LBB91_5
	movq	-32(%rbp), %rax
	movq	-24(%rbp), %rcx
	subq	%rcx, %rax
	movq	%rax, -16(%rbp)
	jmp	LBB91_6
LBB91_5:
	movq	-24(%rbp), %rax
	movq	-32(%rbp), %rcx
	subq	%rcx, %rax
	movq	%rax, -16(%rbp)
LBB91_6:
	movq	-72(%rbp), %rax
	cmpq	-16(%rbp), %rax
	seta	%cl
	andb	$1, %cl
	movzbl	%cl, %edx
	movl	%edx, %eax
	addq	$80, %rsp
	popq	%rbp
	retq
	.cfi_endproc

	.p2align	4, 0x90
__ZN4core10intrinsics8overlaps17hd4008adfb11c00d9E:
	.cfi_startproc
	pushq	%rbp
	.cfi_def_cfa_offset 16
	.cfi_offset %rbp, -16
	movq	%rsp, %rbp
	.cfi_def_cfa_register %rbp
	subq	$80, %rsp
	movq	$8, -8(%rbp)
	movq	-8(%rbp), %rax
	movq	%rdi, -24(%rbp)
	movq	%rsi, -32(%rbp)
	movq	%rdx, -40(%rbp)
	movq	%rax, -48(%rbp)
	movq	-48(%rbp), %rdi
	movq	-40(%rbp), %rsi
	callq	__ZN4core3num23_$LT$impl$u20$usize$GT$11checked_mul17h94d413bee1b445dbE
	movq	%rax, -56(%rbp)
	movq	%rdx, -64(%rbp)
	movq	-56(%rbp), %rdi
	movq	-64(%rbp), %rsi
	callq	__ZN4core6option15Option$LT$T$GT$6unwrap17h965d1c2207c750e1E
	movq	%rax, -72(%rbp)
	movq	-24(%rbp), %rax
	movq	-32(%rbp), %rcx
	cmpq	%rcx, %rax
	ja	LBB92_5
	movq	-32(%rbp), %rax
	movq	-24(%rbp), %rcx
	subq	%rcx, %rax
	movq	%rax, -16(%rbp)
	jmp	LBB92_6
LBB92_5:
	movq	-24(%rbp), %rax
	movq	-32(%rbp), %rcx
	subq	%rcx, %rax
	movq	%rax, -16(%rbp)
LBB92_6:
	movq	-72(%rbp), %rax
	cmpq	-16(%rbp), %rax
	seta	%cl
	andb	$1, %cl
	movzbl	%cl, %edx
	movl	%edx, %eax
	addq	$80, %rsp
	popq	%rbp
	retq
	.cfi_endproc

	.p2align	4, 0x90
__ZN4core10intrinsics8overlaps17hf350cfaecb44f4dfE:
	.cfi_startproc
	pushq	%rbp
	.cfi_def_cfa_offset 16
	.cfi_offset %rbp, -16
	movq	%rsp, %rbp
	.cfi_def_cfa_register %rbp
	subq	$80, %rsp
	movq	$24, -8(%rbp)
	movq	-8(%rbp), %rax
	movq	%rdi, -24(%rbp)
	movq	%rsi, -32(%rbp)
	movq	%rdx, -40(%rbp)
	movq	%rax, -48(%rbp)
	movq	-48(%rbp), %rdi
	movq	-40(%rbp), %rsi
	callq	__ZN4core3num23_$LT$impl$u20$usize$GT$11checked_mul17h94d413bee1b445dbE
	movq	%rax, -56(%rbp)
	movq	%rdx, -64(%rbp)
	movq	-56(%rbp), %rdi
	movq	-64(%rbp), %rsi
	callq	__ZN4core6option15Option$LT$T$GT$6unwrap17h965d1c2207c750e1E
	movq	%rax, -72(%rbp)
	movq	-24(%rbp), %rax
	movq	-32(%rbp), %rcx
	cmpq	%rcx, %rax
	ja	LBB93_5
	movq	-32(%rbp), %rax
	movq	-24(%rbp), %rcx
	subq	%rcx, %rax
	movq	%rax, -16(%rbp)
	jmp	LBB93_6
LBB93_5:
	movq	-24(%rbp), %rax
	movq	-32(%rbp), %rcx
	subq	%rcx, %rax
	movq	%rax, -16(%rbp)
LBB93_6:
	movq	-72(%rbp), %rax
	cmpq	-16(%rbp), %rax
	seta	%cl
	andb	$1, %cl
	movzbl	%cl, %edx
	movl	%edx, %eax
	addq	$80, %rsp
	popq	%rbp
	retq
	.cfi_endproc

	.p2align	4, 0x90
__ZN4core3cmp3Ord3max17haa3ccee5ad1a55f5E:
	.cfi_startproc
	pushq	%rbp
	.cfi_def_cfa_offset 16
	.cfi_offset %rbp, -16
	movq	%rsp, %rbp
	.cfi_def_cfa_register %rbp
	subq	$16, %rsp
	callq	__ZN4core3cmp6max_by17ha1d44411ee67531aE
	movq	%rax, -8(%rbp)
	movq	-8(%rbp), %rax
	addq	$16, %rsp
	popq	%rbp
	retq
	.cfi_endproc

	.p2align	4, 0x90
__ZN4core3cmp3Ord3min17h8962d9a48c11c42cE:
	.cfi_startproc
	pushq	%rbp
	.cfi_def_cfa_offset 16
	.cfi_offset %rbp, -16
	movq	%rsp, %rbp
	.cfi_def_cfa_register %rbp
	subq	$16, %rsp
	callq	__ZN4core3cmp6min_by17h19fd44ced6725cc5E
	movq	%rax, -8(%rbp)
	movq	-8(%rbp), %rax
	addq	$16, %rsp
	popq	%rbp
	retq
	.cfi_endproc

	.p2align	4, 0x90
__ZN4core3cmp3max17he9d11212e0f33ea6E:
	.cfi_startproc
	pushq	%rbp
	.cfi_def_cfa_offset 16
	.cfi_offset %rbp, -16
	movq	%rsp, %rbp
	.cfi_def_cfa_register %rbp
	subq	$16, %rsp
	callq	__ZN4core3cmp3Ord3max17haa3ccee5ad1a55f5E
	movq	%rax, -8(%rbp)
	movq	-8(%rbp), %rax
	addq	$16, %rsp
	popq	%rbp
	retq
	.cfi_endproc

	.p2align	4, 0x90
__ZN4core3cmp3min17h97a6caddf1d2d13cE:
	.cfi_startproc
	pushq	%rbp
	.cfi_def_cfa_offset 16
	.cfi_offset %rbp, -16
	movq	%rsp, %rbp
	.cfi_def_cfa_register %rbp
	subq	$16, %rsp
	callq	__ZN4core3cmp3Ord3min17h8962d9a48c11c42cE
	movq	%rax, -8(%rbp)
	movq	-8(%rbp), %rax
	addq	$16, %rsp
	popq	%rbp
	retq
	.cfi_endproc

	.p2align	4, 0x90
__ZN4core3cmp5impls50_$LT$impl$u20$core..cmp..Ord$u20$for$u20$usize$GT$3cmp17h442379464eedd660E:
	.cfi_startproc
	pushq	%rbp
	.cfi_def_cfa_offset 16
	.cfi_offset %rbp, -16
	movq	%rsp, %rbp
	.cfi_def_cfa_register %rbp
	subq	$24, %rsp
	movq	(%rdi), %rax
	cmpq	(%rsi), %rax
	movq	%rdi, -16(%rbp)
	movq	%rsi, -24(%rbp)
	jb	LBB98_2
	movq	-16(%rbp), %rax
	movq	(%rax), %rcx
	movq	-24(%rbp), %rdx
	cmpq	(%rdx), %rcx
	je	LBB98_4
	jmp	LBB98_3
LBB98_2:
	movb	$-1, -1(%rbp)
	jmp	LBB98_6
LBB98_3:
	movb	$1, -1(%rbp)
	jmp	LBB98_5
LBB98_4:
	movb	$0, -1(%rbp)
LBB98_5:
	jmp	LBB98_6
LBB98_6:
	movb	-1(%rbp), %al
	addq	$24, %rsp
	popq	%rbp
	retq
	.cfi_endproc

	.p2align	4, 0x90
__ZN4core3cmp5impls57_$LT$impl$u20$core..cmp..PartialOrd$u20$for$u20$usize$GT$2lt17h384838f30ff32f46E:
	.cfi_startproc
	pushq	%rbp
	.cfi_def_cfa_offset 16
	.cfi_offset %rbp, -16
	movq	%rsp, %rbp
	.cfi_def_cfa_register %rbp
	movq	(%rdi), %rax
	cmpq	(%rsi), %rax
	setb	%cl
	andb	$1, %cl
	movzbl	%cl, %eax
	popq	%rbp
	retq
	.cfi_endproc

	.p2align	4, 0x90
__ZN4core3cmp6max_by17ha1d44411ee67531aE:
Lfunc_begin23:
	.cfi_startproc
	.cfi_personality 155, _rust_eh_personality
	.cfi_lsda 16, Lexception23
	pushq	%rbp
	.cfi_def_cfa_offset 16
	.cfi_offset %rbp, -16
	movq	%rsp, %rbp
	.cfi_def_cfa_register %rbp
	subq	$80, %rsp
	movq	%rdi, -72(%rbp)
	movq	%rsi, -64(%rbp)
	movb	$0, -18(%rbp)
	movb	$0, -17(%rbp)
	movb	$1, -18(%rbp)
	movb	$1, -17(%rbp)
	leaq	-72(%rbp), %rax
	movq	%rax, -40(%rbp)
	leaq	-64(%rbp), %rax
	movq	%rax, -32(%rbp)
	movq	-40(%rbp), %rdi
	movq	-32(%rbp), %rsi
Ltmp298:
	callq	__ZN4core3ops8function6FnOnce9call_once17hef471100d87370afE
Ltmp299:
	movb	%al, -73(%rbp)
	jmp	LBB100_2
LBB100_1:
	movq	-16(%rbp), %rdi
	callq	__Unwind_Resume
	ud2
LBB100_2:
	movb	-73(%rbp), %al
	movb	%al, -41(%rbp)
	movsbq	-41(%rbp), %rcx
	incq	%rcx
	subq	$2, %rcx
	jb	LBB100_7
	jmp	LBB100_15
LBB100_15:
	jmp	LBB100_5
LBB100_3:
	testb	$1, -18(%rbp)
	jne	LBB100_11
	jmp	LBB100_1
LBB100_4:
	movb	$0, -17(%rbp)
	jmp	LBB100_3
LBB100_5:
	movb	$0, -18(%rbp)
	movq	-72(%rbp), %rax
	movq	%rax, -56(%rbp)
	jmp	LBB100_8
	ud2
LBB100_7:
	movb	$0, -17(%rbp)
	movq	-64(%rbp), %rax
	movq	%rax, -56(%rbp)
LBB100_8:
	testb	$1, -17(%rbp)
	jne	LBB100_12
LBB100_9:
	testb	$1, -18(%rbp)
	jne	LBB100_13
LBB100_10:
	movq	-56(%rbp), %rax
	addq	$80, %rsp
	popq	%rbp
	retq
LBB100_11:
	movb	$0, -18(%rbp)
	jmp	LBB100_1
LBB100_12:
	movb	$0, -17(%rbp)
	jmp	LBB100_9
LBB100_13:
	movb	$0, -18(%rbp)
	jmp	LBB100_10
LBB100_14:
Ltmp300:
	movq	%rax, -16(%rbp)
	movl	%edx, -8(%rbp)
	jmp	LBB100_4
Lfunc_end23:
	.cfi_endproc
	.section	__TEXT,__gcc_except_tab
	.p2align	2
GCC_except_table100:
Lexception23:
	.byte	255
	.byte	255
	.byte	1
	.uleb128 Lcst_end23-Lcst_begin23
Lcst_begin23:
	.uleb128 Ltmp298-Lfunc_begin23
	.uleb128 Ltmp299-Ltmp298
	.uleb128 Ltmp300-Lfunc_begin23
	.byte	0
	.uleb128 Ltmp299-Lfunc_begin23
	.uleb128 Lfunc_end23-Ltmp299
	.byte	0
	.byte	0
Lcst_end23:
	.p2align	2

	.section	__TEXT,__text,regular,pure_instructions
	.p2align	4, 0x90
__ZN4core3cmp6min_by17h19fd44ced6725cc5E:
Lfunc_begin24:
	.cfi_startproc
	.cfi_personality 155, _rust_eh_personality
	.cfi_lsda 16, Lexception24
	pushq	%rbp
	.cfi_def_cfa_offset 16
	.cfi_offset %rbp, -16
	movq	%rsp, %rbp
	.cfi_def_cfa_register %rbp
	subq	$80, %rsp
	movq	%rdi, -72(%rbp)
	movq	%rsi, -64(%rbp)
	movb	$0, -18(%rbp)
	movb	$0, -17(%rbp)
	movb	$1, -18(%rbp)
	movb	$1, -17(%rbp)
	leaq	-72(%rbp), %rax
	movq	%rax, -40(%rbp)
	leaq	-64(%rbp), %rax
	movq	%rax, -32(%rbp)
	movq	-40(%rbp), %rdi
	movq	-32(%rbp), %rsi
Ltmp301:
	callq	__ZN4core3ops8function6FnOnce9call_once17hef471100d87370afE
Ltmp302:
	movb	%al, -73(%rbp)
	jmp	LBB101_2
LBB101_1:
	movq	-16(%rbp), %rdi
	callq	__Unwind_Resume
	ud2
LBB101_2:
	movb	-73(%rbp), %al
	movb	%al, -41(%rbp)
	movsbq	-41(%rbp), %rcx
	incq	%rcx
	subq	$2, %rcx
	jb	LBB101_7
	jmp	LBB101_15
LBB101_15:
	jmp	LBB101_5
LBB101_3:
	testb	$1, -18(%rbp)
	jne	LBB101_11
	jmp	LBB101_1
LBB101_4:
	movb	$0, -17(%rbp)
	jmp	LBB101_3
LBB101_5:
	movb	$0, -17(%rbp)
	movq	-64(%rbp), %rax
	movq	%rax, -56(%rbp)
	jmp	LBB101_8
	ud2
LBB101_7:
	movb	$0, -18(%rbp)
	movq	-72(%rbp), %rax
	movq	%rax, -56(%rbp)
LBB101_8:
	testb	$1, -17(%rbp)
	jne	LBB101_12
LBB101_9:
	testb	$1, -18(%rbp)
	jne	LBB101_13
LBB101_10:
	movq	-56(%rbp), %rax
	addq	$80, %rsp
	popq	%rbp
	retq
LBB101_11:
	movb	$0, -18(%rbp)
	jmp	LBB101_1
LBB101_12:
	movb	$0, -17(%rbp)
	jmp	LBB101_9
LBB101_13:
	movb	$0, -18(%rbp)
	jmp	LBB101_10
LBB101_14:
Ltmp303:
	movq	%rax, -16(%rbp)
	movl	%edx, -8(%rbp)
	jmp	LBB101_4
Lfunc_end24:
	.cfi_endproc
	.section	__TEXT,__gcc_except_tab
	.p2align	2
GCC_except_table101:
Lexception24:
	.byte	255
	.byte	255
	.byte	1
	.uleb128 Lcst_end24-Lcst_begin24
Lcst_begin24:
	.uleb128 Ltmp301-Lfunc_begin24
	.uleb128 Ltmp302-Ltmp301
	.uleb128 Ltmp303-Lfunc_begin24
	.byte	0
	.uleb128 Ltmp302-Lfunc_begin24
	.uleb128 Lfunc_end24-Ltmp302
	.byte	0
	.byte	0
Lcst_end24:
	.p2align	2

	.section	__TEXT,__text,regular,pure_instructions
	.p2align	4, 0x90
__ZN4core3f6421_$LT$impl$u20$f64$GT$11abs_private17h6f829a90b1b23c40E:
	.cfi_startproc
	pushq	%rbp
	.cfi_def_cfa_offset 16
	.cfi_offset %rbp, -16
	movq	%rsp, %rbp
	.cfi_def_cfa_register %rbp
	subq	$16, %rsp
	callq	__ZN4core3f6421_$LT$impl$u20$f64$GT$7to_bits17hb92a4451971526e9E
	movq	%rax, -8(%rbp)
	movabsq	$9223372036854775807, %rax
	movq	-8(%rbp), %rcx
	andq	%rax, %rcx
	movq	%rcx, %rdi
	callq	__ZN4core3f6421_$LT$impl$u20$f64$GT$9from_bits17h77fdb01d77b24aa6E
	movsd	%xmm0, -16(%rbp)
	movsd	-16(%rbp), %xmm0
	addq	$16, %rsp
	popq	%rbp
	retq
	.cfi_endproc

	.section	__TEXT,__literal8,8byte_literals
	.p2align	3
LCPI103_0:
	.quad	9218868437227405312
	.section	__TEXT,__text,regular,pure_instructions
	.p2align	4, 0x90
__ZN4core3f6421_$LT$impl$u20$f64$GT$11is_infinite17h30643d1eb9d48562E:
	.cfi_startproc
	pushq	%rbp
	.cfi_def_cfa_offset 16
	.cfi_offset %rbp, -16
	movq	%rsp, %rbp
	.cfi_def_cfa_register %rbp
	subq	$16, %rsp
	callq	__ZN4core3f6421_$LT$impl$u20$f64$GT$11abs_private17h6f829a90b1b23c40E
	movsd	%xmm0, -8(%rbp)
	movsd	LCPI103_0(%rip), %xmm0
	movsd	-8(%rbp), %xmm1
	ucomisd	%xmm0, %xmm1
	sete	%al
	setnp	%cl
	andb	%cl, %al
	andb	$1, %al
	movzbl	%al, %eax
	addq	$16, %rsp
	popq	%rbp
	retq
	.cfi_endproc

	.p2align	4, 0x90
__ZN4core3f6421_$LT$impl$u20$f64$GT$7to_bits17hb92a4451971526e9E:
	.cfi_startproc
	pushq	%rbp
	.cfi_def_cfa_offset 16
	.cfi_offset %rbp, -16
	movq	%rsp, %rbp
	.cfi_def_cfa_register %rbp
	subq	$16, %rsp
	movsd	%xmm0, -8(%rbp)
	movq	-8(%rbp), %rax
	movq	%rax, -16(%rbp)
	movq	-16(%rbp), %rax
	addq	$16, %rsp
	popq	%rbp
	retq
	.cfi_endproc

	.p2align	4, 0x90
__ZN4core3f6421_$LT$impl$u20$f64$GT$9from_bits17h77fdb01d77b24aa6E:
	.cfi_startproc
	pushq	%rbp
	.cfi_def_cfa_offset 16
	.cfi_offset %rbp, -16
	movq	%rsp, %rbp
	.cfi_def_cfa_register %rbp
	subq	$16, %rsp
	movq	%rdi, -8(%rbp)
	movsd	-8(%rbp), %xmm0
	movsd	%xmm0, -16(%rbp)
	movsd	-16(%rbp), %xmm0
	addq	$16, %rsp
	popq	%rbp
	retq
	.cfi_endproc

	.section	__TEXT,__literal8,8byte_literals
	.p2align	3
LCPI106_0:
	.quad	9218868437227405312
	.section	__TEXT,__text,regular,pure_instructions
	.p2align	4, 0x90
__ZN4core3f6421_$LT$impl$u20$f64$GT$9is_finite17h1397b05ce16fb738E:
	.cfi_startproc
	pushq	%rbp
	.cfi_def_cfa_offset 16
	.cfi_offset %rbp, -16
	movq	%rsp, %rbp
	.cfi_def_cfa_register %rbp
	subq	$16, %rsp
	callq	__ZN4core3f6421_$LT$impl$u20$f64$GT$11abs_private17h6f829a90b1b23c40E
	movsd	%xmm0, -8(%rbp)
	movsd	LCPI106_0(%rip), %xmm0
	movsd	-8(%rbp), %xmm1
	ucomisd	%xmm1, %xmm0
	seta	%al
	andb	$1, %al
	movzbl	%al, %eax
	addq	$16, %rsp
	popq	%rbp
	retq
	.cfi_endproc

	.p2align	4, 0x90
__ZN4core3fmt10ArgumentV13new17h158d5be3aaefe6f4E:
	.cfi_startproc
	pushq	%rbp
	.cfi_def_cfa_offset 16
	.cfi_offset %rbp, -16
	movq	%rsp, %rbp
	.cfi_def_cfa_register %rbp
	subq	$56, %rsp
	movq	%rsi, -16(%rbp)
	movq	-16(%rbp), %rax
	movq	%rdi, -40(%rbp)
	movq	%rax, -48(%rbp)
	movq	-40(%rbp), %rax
	movq	%rax, -8(%rbp)
	movq	-8(%rbp), %rcx
	movq	%rcx, -56(%rbp)
	movq	-56(%rbp), %rax
	movq	%rax, -32(%rbp)
	movq	-48(%rbp), %rcx
	movq	%rcx, -24(%rbp)
	movq	-32(%rbp), %rax
	movq	-24(%rbp), %rdx
	addq	$56, %rsp
	popq	%rbp
	retq
	.cfi_endproc

	.p2align	4, 0x90
__ZN4core3fmt10ArgumentV13new17h35f79c12d3e3a572E:
	.cfi_startproc
	pushq	%rbp
	.cfi_def_cfa_offset 16
	.cfi_offset %rbp, -16
	movq	%rsp, %rbp
	.cfi_def_cfa_register %rbp
	subq	$56, %rsp
	movq	%rsi, -16(%rbp)
	movq	-16(%rbp), %rax
	movq	%rdi, -40(%rbp)
	movq	%rax, -48(%rbp)
	movq	-40(%rbp), %rax
	movq	%rax, -8(%rbp)
	movq	-8(%rbp), %rcx
	movq	%rcx, -56(%rbp)
	movq	-56(%rbp), %rax
	movq	%rax, -32(%rbp)
	movq	-48(%rbp), %rcx
	movq	%rcx, -24(%rbp)
	movq	-32(%rbp), %rax
	movq	-24(%rbp), %rdx
	addq	$56, %rsp
	popq	%rbp
	retq
	.cfi_endproc

	.p2align	4, 0x90
__ZN4core3fmt10ArgumentV13new17hafb5b738f66ff23aE:
	.cfi_startproc
	pushq	%rbp
	.cfi_def_cfa_offset 16
	.cfi_offset %rbp, -16
	movq	%rsp, %rbp
	.cfi_def_cfa_register %rbp
	subq	$56, %rsp
	movq	%rsi, -16(%rbp)
	movq	-16(%rbp), %rax
	movq	%rdi, -40(%rbp)
	movq	%rax, -48(%rbp)
	movq	-40(%rbp), %rax
	movq	%rax, -8(%rbp)
	movq	-8(%rbp), %rcx
	movq	%rcx, -56(%rbp)
	movq	-56(%rbp), %rax
	movq	%rax, -32(%rbp)
	movq	-48(%rbp), %rcx
	movq	%rcx, -24(%rbp)
	movq	-32(%rbp), %rax
	movq	-24(%rbp), %rdx
	addq	$56, %rsp
	popq	%rbp
	retq
	.cfi_endproc

	.p2align	4, 0x90
__ZN4core3fmt3num52_$LT$impl$u20$core..fmt..Debug$u20$for$u20$usize$GT$3fmt17he0c6b63112294443E:
	.cfi_startproc
	pushq	%rbp
	.cfi_def_cfa_offset 16
	.cfi_offset %rbp, -16
	movq	%rsp, %rbp
	.cfi_def_cfa_register %rbp
	subq	$32, %rsp
	movq	%rdi, -16(%rbp)
	movq	%rsi, %rdi
	movq	%rsi, -24(%rbp)
	callq	__ZN4core3fmt9Formatter15debug_lower_hex17h90bd9b6eeff0d48aE
	movb	%al, -25(%rbp)
	movb	-25(%rbp), %al
	testb	$1, %al
	jne	LBB110_3
	jmp	LBB110_2
LBB110_2:
	movq	-24(%rbp), %rdi
	callq	__ZN4core3fmt9Formatter15debug_upper_hex17h62a07b91be28651eE
	movb	%al, -26(%rbp)
	jmp	LBB110_5
LBB110_3:
	movq	-16(%rbp), %rdi
	movq	-24(%rbp), %rsi
	callq	__ZN4core3fmt3num55_$LT$impl$u20$core..fmt..LowerHex$u20$for$u20$usize$GT$3fmt17h22354132e712f8deE
	andb	$1, %al
	movb	%al, -1(%rbp)
	jmp	LBB110_11
LBB110_5:
	movb	-26(%rbp), %al
	testb	$1, %al
	jne	LBB110_7
	jmp	LBB110_6
LBB110_6:
	movq	-16(%rbp), %rdi
	movq	-24(%rbp), %rsi
	callq	__ZN4core3fmt3num3imp54_$LT$impl$u20$core..fmt..Display$u20$for$u20$usize$GT$3fmt17h7face90fc68d4b82E
	andb	$1, %al
	movb	%al, -1(%rbp)
	jmp	LBB110_9
LBB110_7:
	movq	-16(%rbp), %rdi
	movq	-24(%rbp), %rsi
	callq	__ZN4core3fmt3num55_$LT$impl$u20$core..fmt..UpperHex$u20$for$u20$usize$GT$3fmt17h816df81b6117ada5E
	andb	$1, %al
	movb	%al, -1(%rbp)
	jmp	LBB110_10
LBB110_9:
	jmp	LBB110_10
LBB110_10:
	jmp	LBB110_11
LBB110_11:
	movb	-1(%rbp), %al
	andb	$1, %al
	movzbl	%al, %eax
	addq	$32, %rsp
	popq	%rbp
	retq
	.cfi_endproc

	.p2align	4, 0x90
__ZN4core3fmt9Arguments6new_v117h051a28c28e177c3eE:
	.cfi_startproc
	pushq	%rbp
	.cfi_def_cfa_offset 16
	.cfi_offset %rbp, -16
	movq	%rsp, %rbp
	.cfi_def_cfa_register %rbp
	subq	$16, %rsp
	movq	%rdi, %rax
	movq	$0, -16(%rbp)
	movq	%rsi, (%rdi)
	movq	%rdx, 8(%rdi)
	movq	-16(%rbp), %rdx
	movq	-8(%rbp), %rsi
	movq	%rdx, 16(%rdi)
	movq	%rsi, 24(%rdi)
	movq	%rcx, 32(%rdi)
	movq	%r8, 40(%rdi)
	addq	$16, %rsp
	popq	%rbp
	retq
	.cfi_endproc

	.p2align	4, 0x90
__ZN4core3mem10needs_drop17h31d0057b544fa456E:
	.cfi_startproc
	pushq	%rbp
	.cfi_def_cfa_offset 16
	.cfi_offset %rbp, -16
	movq	%rsp, %rbp
	.cfi_def_cfa_register %rbp
	subq	$2, %rsp
	movb	$0, -1(%rbp)
	movb	-1(%rbp), %al
	movb	%al, -2(%rbp)
	movb	-2(%rbp), %al
	andb	$1, %al
	movzbl	%al, %eax
	addq	$2, %rsp
	popq	%rbp
	retq
	.cfi_endproc

	.p2align	4, 0x90
__ZN4core3mem4drop17h4cdf0a3e3e40b7a7E:
	.cfi_startproc
	pushq	%rbp
	.cfi_def_cfa_offset 16
	.cfi_offset %rbp, -16
	movq	%rsp, %rbp
	.cfi_def_cfa_register %rbp
	callq	__ZN4core3ptr18real_drop_in_place17hc51585cd83908081E
	popq	%rbp
	retq
	.cfi_endproc

	.p2align	4, 0x90
__ZN4core3mem4drop17h679ae7ecf8868ad3E:
	.cfi_startproc
	pushq	%rbp
	.cfi_def_cfa_offset 16
	.cfi_offset %rbp, -16
	movq	%rsp, %rbp
	.cfi_def_cfa_register %rbp
	callq	__ZN4core3ptr18real_drop_in_place17hcf3573a1642759c0E
	popq	%rbp
	retq
	.cfi_endproc

	.p2align	4, 0x90
__ZN4core3mem4swap17h50a8aacfb63a3675E:
	.cfi_startproc
	pushq	%rbp
	.cfi_def_cfa_offset 16
	.cfi_offset %rbp, -16
	movq	%rsp, %rbp
	.cfi_def_cfa_register %rbp
	callq	__ZN4core3ptr23swap_nonoverlapping_one17h9839fdf89e09ad9eE
	popq	%rbp
	retq
	.cfi_endproc

	.p2align	4, 0x90
__ZN4core3mem4swap17hc1a237230401d0a3E:
	.cfi_startproc
	pushq	%rbp
	.cfi_def_cfa_offset 16
	.cfi_offset %rbp, -16
	movq	%rsp, %rbp
	.cfi_def_cfa_register %rbp
	callq	__ZN4core3ptr23swap_nonoverlapping_one17hfcb135908b6e21dfE
	popq	%rbp
	retq
	.cfi_endproc

	.p2align	4, 0x90
__ZN4core3mem6forget17h7b9416a6430bef4eE:
	.cfi_startproc
	pushq	%rbp
	.cfi_def_cfa_offset 16
	.cfi_offset %rbp, -16
	movq	%rsp, %rbp
	.cfi_def_cfa_register %rbp
	subq	$72, %rsp
	movq	(%rdi), %rax
	movq	%rax, -48(%rbp)
	movq	8(%rdi), %rax
	movq	%rax, -40(%rbp)
	movq	16(%rdi), %rax
	movq	%rax, -32(%rbp)
	movq	-48(%rbp), %rax
	movq	%rax, -24(%rbp)
	movq	-40(%rbp), %rax
	movq	%rax, -16(%rbp)
	movq	-32(%rbp), %rax
	movq	%rax, -8(%rbp)
	movq	-24(%rbp), %rax
	movq	%rax, -72(%rbp)
	movq	-16(%rbp), %rax
	movq	%rax, -64(%rbp)
	movq	-8(%rbp), %rax
	movq	%rax, -56(%rbp)
	addq	$72, %rsp
	popq	%rbp
	retq
	.cfi_endproc

	.p2align	4, 0x90
__ZN4core3mem6forget17h9d730f8dd4ca169aE:
	.cfi_startproc
	pushq	%rbp
	.cfi_def_cfa_offset 16
	.cfi_offset %rbp, -16
	movq	%rsp, %rbp
	.cfi_def_cfa_register %rbp
	pushq	%rax
	movq	%rdi, -8(%rbp)
	addq	$8, %rsp
	popq	%rbp
	retq
	.cfi_endproc

	.p2align	4, 0x90
__ZN4core3mem6forget17hade2db9dd77e4124E:
	.cfi_startproc
	pushq	%rbp
	.cfi_def_cfa_offset 16
	.cfi_offset %rbp, -16
	movq	%rsp, %rbp
	.cfi_def_cfa_register %rbp
	pushq	%rax
	movq	%rdi, -8(%rbp)
	addq	$8, %rsp
	popq	%rbp
	retq
	.cfi_endproc

	.p2align	4, 0x90
__ZN4core3mem7replace17h567324519328cb70E:
Lfunc_begin25:
	.cfi_startproc
	.cfi_personality 155, _rust_eh_personality
	.cfi_lsda 16, Lexception25
	pushq	%rbp
	.cfi_def_cfa_offset 16
	.cfi_offset %rbp, -16
	movq	%rsp, %rbp
	.cfi_def_cfa_register %rbp
	subq	$48, %rsp
	movq	%rdi, %rax
Ltmp304:
	movq	%rdi, -24(%rbp)
	movq	%rsi, %rdi
	movq	%rdx, %rsi
	movq	%rdx, -32(%rbp)
	movq	%rax, -40(%rbp)
	callq	__ZN4core3mem4swap17hc1a237230401d0a3E
Ltmp305:
	jmp	LBB120_2
LBB120_1:
	movq	-16(%rbp), %rdi
	callq	__Unwind_Resume
	ud2
LBB120_2:
	movq	-32(%rbp), %rax
	movq	(%rax), %rcx
	movq	-24(%rbp), %rdx
	movq	%rcx, (%rdx)
	movq	8(%rax), %rcx
	movq	%rcx, 8(%rdx)
	movq	16(%rax), %rcx
	movq	%rcx, 16(%rdx)
	movq	24(%rax), %rcx
	movq	%rcx, 24(%rdx)
	movq	-40(%rbp), %rax
	addq	$48, %rsp
	popq	%rbp
	retq
LBB120_3:
	movq	-32(%rbp), %rdi
	callq	__ZN4core3ptr18real_drop_in_place17hf41454ab830ed941E
	jmp	LBB120_1
LBB120_4:
Ltmp306:
	movq	%rax, -16(%rbp)
	movl	%edx, -8(%rbp)
	jmp	LBB120_3
Lfunc_end25:
	.cfi_endproc
	.section	__TEXT,__gcc_except_tab
	.p2align	2
GCC_except_table120:
Lexception25:
	.byte	255
	.byte	255
	.byte	1
	.uleb128 Lcst_end25-Lcst_begin25
Lcst_begin25:
	.uleb128 Ltmp304-Lfunc_begin25
	.uleb128 Ltmp305-Ltmp304
	.uleb128 Ltmp306-Lfunc_begin25
	.byte	0
	.uleb128 Ltmp305-Lfunc_begin25
	.uleb128 Lfunc_end25-Ltmp305
	.byte	0
	.byte	0
Lcst_end25:
	.p2align	2

	.section	__TEXT,__text,regular,pure_instructions
	.p2align	4, 0x90
__ZN4core3num12NonZeroUsize13new_unchecked17h2263a40fd8c4d657E:
	.cfi_startproc
	pushq	%rbp
	.cfi_def_cfa_offset 16
	.cfi_offset %rbp, -16
	movq	%rsp, %rbp
	.cfi_def_cfa_register %rbp
	pushq	%rax
	movq	%rdi, -8(%rbp)
	movq	-8(%rbp), %rax
	addq	$8, %rsp
	popq	%rbp
	retq
	.cfi_endproc

	.p2align	4, 0x90
__ZN4core3num12NonZeroUsize3get17hfb0f2c1a07a6cba4E:
	.cfi_startproc
	pushq	%rbp
	.cfi_def_cfa_offset 16
	.cfi_offset %rbp, -16
	movq	%rsp, %rbp
	.cfi_def_cfa_register %rbp
	movq	%rdi, %rax
	popq	%rbp
	retq
	.cfi_endproc

	.p2align	4, 0x90
__ZN4core3num21_$LT$impl$u20$i32$GT$12wrapping_abs17hd60904074f74e421E:
	.cfi_startproc
	pushq	%rbp
	.cfi_def_cfa_offset 16
	.cfi_offset %rbp, -16
	movq	%rsp, %rbp
	.cfi_def_cfa_register %rbp
	subq	$16, %rsp
	movl	%edi, %eax
	sarl	$31, %eax
	xorl	%eax, %edi
	movl	%eax, %esi
	callq	__ZN4core3num21_$LT$impl$u20$i32$GT$12wrapping_sub17ha0572a7d925de5faE
	movl	%eax, -4(%rbp)
	movl	-4(%rbp), %eax
	addq	$16, %rsp
	popq	%rbp
	retq
	.cfi_endproc

	.p2align	4, 0x90
__ZN4core3num21_$LT$impl$u20$i32$GT$12wrapping_sub17ha0572a7d925de5faE:
	.cfi_startproc
	pushq	%rbp
	.cfi_def_cfa_offset 16
	.cfi_offset %rbp, -16
	movq	%rsp, %rbp
	.cfi_def_cfa_register %rbp
	pushq	%rax
	subl	%esi, %edi
	movl	%edi, -4(%rbp)
	movl	-4(%rbp), %eax
	movl	%eax, -8(%rbp)
	movl	-8(%rbp), %eax
	addq	$8, %rsp
	popq	%rbp
	retq
	.cfi_endproc

	.p2align	4, 0x90
__ZN4core3num21_$LT$impl$u20$i32$GT$14saturating_add17h68629e871c7c6c0eE:
	.cfi_startproc
	pushq	%rbp
	.cfi_def_cfa_offset 16
	.cfi_offset %rbp, -16
	movq	%rsp, %rbp
	.cfi_def_cfa_register %rbp
	pushq	%rax
	movl	%edi, %eax
	addl	%esi, %eax
	testl	%eax, %eax
	setns	%cl
	movzbl	%cl, %eax
	addl	$2147483647, %eax
	addl	%esi, %edi
	cmovol	%eax, %edi
	movl	%edi, -4(%rbp)
	movl	-4(%rbp), %eax
	movl	%eax, -8(%rbp)
	movl	-8(%rbp), %eax
	addq	$8, %rsp
	popq	%rbp
	retq
	.cfi_endproc

	.p2align	4, 0x90
__ZN4core3num21_$LT$impl$u20$i32$GT$14saturating_sub17h462f20001e041eabE:
	.cfi_startproc
	pushq	%rbp
	.cfi_def_cfa_offset 16
	.cfi_offset %rbp, -16
	movq	%rsp, %rbp
	.cfi_def_cfa_register %rbp
	pushq	%rax
	movl	%edi, %eax
	subl	%esi, %eax
	testl	%eax, %eax
	setns	%cl
	movzbl	%cl, %eax
	addl	$2147483647, %eax
	subl	%esi, %edi
	cmovol	%eax, %edi
	movl	%edi, -4(%rbp)
	movl	-4(%rbp), %eax
	movl	%eax, -8(%rbp)
	movl	-8(%rbp), %eax
	addq	$8, %rsp
	popq	%rbp
	retq
	.cfi_endproc

	.p2align	4, 0x90
__ZN4core3num21_$LT$impl$u20$i64$GT$12wrapping_add17h02562b4d59baa712E:
	.cfi_startproc
	pushq	%rbp
	.cfi_def_cfa_offset 16
	.cfi_offset %rbp, -16
	movq	%rsp, %rbp
	.cfi_def_cfa_register %rbp
	subq	$16, %rsp
	addq	%rsi, %rdi
	movq	%rdi, -8(%rbp)
	movq	-8(%rbp), %rax
	movq	%rax, -16(%rbp)
	movq	-16(%rbp), %rax
	addq	$16, %rsp
	popq	%rbp
	retq
	.cfi_endproc

	.p2align	4, 0x90
__ZN4core3num21_$LT$impl$u20$i64$GT$12wrapping_neg17h28bb4a02d4eb7217E:
	.cfi_startproc
	pushq	%rbp
	.cfi_def_cfa_offset 16
	.cfi_offset %rbp, -16
	movq	%rsp, %rbp
	.cfi_def_cfa_register %rbp
	subq	$16, %rsp
	callq	__ZN4core3num21_$LT$impl$u20$i64$GT$15overflowing_neg17h73cec7ede8cdf352E
	movq	%rax, -8(%rbp)
	movq	-8(%rbp), %rax
	addq	$16, %rsp
	popq	%rbp
	retq
	.cfi_endproc

	.p2align	4, 0x90
__ZN4core3num21_$LT$impl$u20$i64$GT$15overflowing_neg17h73cec7ede8cdf352E:
	.cfi_startproc
	pushq	%rbp
	.cfi_def_cfa_offset 16
	.cfi_offset %rbp, -16
	movq	%rsp, %rbp
	.cfi_def_cfa_register %rbp
	subq	$32, %rsp
	movq	%rdi, %rax
	xorq	$-1, %rax
	movq	%rdi, -24(%rbp)
	movq	%rax, %rdi
	movl	$1, %esi
	callq	__ZN4core3num21_$LT$impl$u20$i64$GT$12wrapping_add17h02562b4d59baa712E
	movq	%rax, -32(%rbp)
	jmp	LBB129_2
LBB129_2:
	movabsq	$-9223372036854775808, %rax
	movq	-24(%rbp), %rcx
	subq	%rax, %rcx
	movq	-32(%rbp), %rax
	movq	%rax, -16(%rbp)
	sete	-8(%rbp)
	movq	-16(%rbp), %rax
	movb	-8(%rbp), %dl
	addq	$32, %rsp
	popq	%rbp
	retq
	.cfi_endproc

	.p2align	4, 0x90
__ZN4core3num23_$LT$impl$u20$usize$GT$10count_ones17hc970f90c2341df8bE:
	.cfi_startproc
	pushq	%rbp
	.cfi_def_cfa_offset 16
	.cfi_offset %rbp, -16
	movq	%rsp, %rbp
	.cfi_def_cfa_register %rbp
	subq	$16, %rsp
	movq	%rdi, %rax
	shrq	%rax
	movabsq	$6148914691236517205, %rcx
	andq	%rcx, %rax
	subq	%rax, %rdi
	movabsq	$3689348814741910323, %rax
	movq	%rdi, %rcx
	andq	%rax, %rcx
	shrq	$2, %rdi
	andq	%rax, %rdi
	addq	%rdi, %rcx
	movq	%rcx, %rax
	shrq	$4, %rax
	addq	%rax, %rcx
	movabsq	$1085102592571150095, %rax
	andq	%rax, %rcx
	movabsq	$72340172838076673, %rax
	imulq	%rax, %rcx
	shrq	$56, %rcx
	movq	%rcx, -8(%rbp)
	movq	-8(%rbp), %rax
	movq	%rax, -16(%rbp)
	movq	-16(%rbp), %rax
	movl	%eax, %ecx
	movl	%ecx, %eax
	addq	$16, %rsp
	popq	%rbp
	retq
	.cfi_endproc

	.p2align	4, 0x90
__ZN4core3num23_$LT$impl$u20$usize$GT$11checked_add17h993a87cd7fb4ce2fE:
	.cfi_startproc
	pushq	%rbp
	.cfi_def_cfa_offset 16
	.cfi_offset %rbp, -16
	movq	%rsp, %rbp
	.cfi_def_cfa_register %rbp
	subq	$32, %rsp
	callq	__ZN4core3num23_$LT$impl$u20$usize$GT$15overflowing_add17hdb6035a47ab26b96E
	movq	%rax, -24(%rbp)
	movb	%dl, -25(%rbp)
	movb	-25(%rbp), %al
	testb	$1, %al
	jne	LBB131_3
	jmp	LBB131_2
LBB131_2:
	movq	-24(%rbp), %rax
	movq	%rax, -8(%rbp)
	movq	$1, -16(%rbp)
	jmp	LBB131_4
LBB131_3:
	movq	$0, -16(%rbp)
LBB131_4:
	movq	-16(%rbp), %rax
	movq	-8(%rbp), %rdx
	addq	$32, %rsp
	popq	%rbp
	retq
	.cfi_endproc

	.p2align	4, 0x90
__ZN4core3num23_$LT$impl$u20$usize$GT$11checked_mul17h94d413bee1b445dbE:
	.cfi_startproc
	pushq	%rbp
	.cfi_def_cfa_offset 16
	.cfi_offset %rbp, -16
	movq	%rsp, %rbp
	.cfi_def_cfa_register %rbp
	subq	$32, %rsp
	callq	__ZN4core3num23_$LT$impl$u20$usize$GT$15overflowing_mul17h56814a3ec3038d5eE
	movq	%rax, -24(%rbp)
	movb	%dl, -25(%rbp)
	movb	-25(%rbp), %al
	testb	$1, %al
	jne	LBB132_3
	jmp	LBB132_2
LBB132_2:
	movq	-24(%rbp), %rax
	movq	%rax, -8(%rbp)
	movq	$1, -16(%rbp)
	jmp	LBB132_4
LBB132_3:
	movq	$0, -16(%rbp)
LBB132_4:
	movq	-16(%rbp), %rax
	movq	-8(%rbp), %rdx
	addq	$32, %rsp
	popq	%rbp
	retq
	.cfi_endproc

	.p2align	4, 0x90
__ZN4core3num23_$LT$impl$u20$usize$GT$12wrapping_add17h01a27fc2f5a3bbd9E:
	.cfi_startproc
	pushq	%rbp
	.cfi_def_cfa_offset 16
	.cfi_offset %rbp, -16
	movq	%rsp, %rbp
	.cfi_def_cfa_register %rbp
	subq	$16, %rsp
	addq	%rsi, %rdi
	movq	%rdi, -8(%rbp)
	movq	-8(%rbp), %rax
	movq	%rax, -16(%rbp)
	movq	-16(%rbp), %rax
	addq	$16, %rsp
	popq	%rbp
	retq
	.cfi_endproc

	.p2align	4, 0x90
__ZN4core3num23_$LT$impl$u20$usize$GT$12wrapping_sub17h38504eb62fe2ddbeE:
	.cfi_startproc
	pushq	%rbp
	.cfi_def_cfa_offset 16
	.cfi_offset %rbp, -16
	movq	%rsp, %rbp
	.cfi_def_cfa_register %rbp
	subq	$16, %rsp
	subq	%rsi, %rdi
	movq	%rdi, -8(%rbp)
	movq	-8(%rbp), %rax
	movq	%rax, -16(%rbp)
	movq	-16(%rbp), %rax
	addq	$16, %rsp
	popq	%rbp
	retq
	.cfi_endproc

	.p2align	4, 0x90
__ZN4core3num23_$LT$impl$u20$usize$GT$14saturating_mul17ha5a86de0800d1c3cE:
	.cfi_startproc
	pushq	%rbp
	.cfi_def_cfa_offset 16
	.cfi_offset %rbp, -16
	movq	%rsp, %rbp
	.cfi_def_cfa_register %rbp
	subq	$32, %rsp
	callq	__ZN4core3num23_$LT$impl$u20$usize$GT$11checked_mul17h94d413bee1b445dbE
	movq	%rax, -8(%rbp)
	movq	%rdx, -16(%rbp)
	jmp	LBB135_2
LBB135_2:
	movq	-8(%rbp), %rdi
	movq	-16(%rbp), %rsi
	movq	$-1, %rdx
	callq	__ZN4core6option15Option$LT$T$GT$9unwrap_or17h87e236fad7116e6cE
	movq	%rax, -24(%rbp)
	movq	-24(%rbp), %rax
	addq	$32, %rsp
	popq	%rbp
	retq
	.cfi_endproc

	.p2align	4, 0x90
__ZN4core3num23_$LT$impl$u20$usize$GT$15is_power_of_two17h842bf3a7439d2e8bE:
	.cfi_startproc
	pushq	%rbp
	.cfi_def_cfa_offset 16
	.cfi_offset %rbp, -16
	movq	%rsp, %rbp
	.cfi_def_cfa_register %rbp
	subq	$16, %rsp
	callq	__ZN4core3num23_$LT$impl$u20$usize$GT$10count_ones17hc970f90c2341df8bE
	movl	%eax, -4(%rbp)
	movl	-4(%rbp), %eax
	cmpl	$1, %eax
	sete	%cl
	andb	$1, %cl
	movzbl	%cl, %eax
	addq	$16, %rsp
	popq	%rbp
	retq
	.cfi_endproc

	.p2align	4, 0x90
__ZN4core3num23_$LT$impl$u20$usize$GT$15overflowing_add17hdb6035a47ab26b96E:
	.cfi_startproc
	pushq	%rbp
	.cfi_def_cfa_offset 16
	.cfi_offset %rbp, -16
	movq	%rsp, %rbp
	.cfi_def_cfa_register %rbp
	subq	$48, %rsp
	addq	%rsi, %rdi
	setb	%al
	andb	$1, %al
	movq	%rdi, -16(%rbp)
	movb	%al, -8(%rbp)
	movq	-16(%rbp), %rcx
	movb	-8(%rbp), %al
	movq	%rcx, -40(%rbp)
	movb	%al, -41(%rbp)
	movq	-40(%rbp), %rax
	movq	%rax, -32(%rbp)
	movb	-41(%rbp), %cl
	andb	$1, %cl
	movb	%cl, -24(%rbp)
	movq	-32(%rbp), %rax
	movb	-24(%rbp), %dl
	addq	$48, %rsp
	popq	%rbp
	retq
	.cfi_endproc

	.p2align	4, 0x90
__ZN4core3num23_$LT$impl$u20$usize$GT$15overflowing_mul17h56814a3ec3038d5eE:
	.cfi_startproc
	pushq	%rbp
	.cfi_def_cfa_offset 16
	.cfi_offset %rbp, -16
	movq	%rsp, %rbp
	.cfi_def_cfa_register %rbp
	subq	$48, %rsp
	movq	%rdi, %rax
	mulq	%rsi
	seto	%cl
	andb	$1, %cl
	movq	%rax, -16(%rbp)
	movb	%cl, -8(%rbp)
	movq	-16(%rbp), %rax
	movb	-8(%rbp), %cl
	movq	%rax, -40(%rbp)
	movb	%cl, -41(%rbp)
	movq	-40(%rbp), %rax
	movq	%rax, -32(%rbp)
	movb	-41(%rbp), %cl
	andb	$1, %cl
	movb	%cl, -24(%rbp)
	movq	-32(%rbp), %rax
	movb	-24(%rbp), %dl
	addq	$48, %rsp
	popq	%rbp
	retq
	.cfi_endproc

	.p2align	4, 0x90
__ZN4core3num66_$LT$impl$u20$core..convert..From$LT$u16$GT$$u20$for$u20$usize$GT$4from17hf6b8b0ad292da3b7E:
	.cfi_startproc
	pushq	%rbp
	.cfi_def_cfa_offset 16
	.cfi_offset %rbp, -16
	movq	%rsp, %rbp
	.cfi_def_cfa_register %rbp
	movzwl	%di, %eax
	popq	%rbp
	retq
	.cfi_endproc

	.p2align	4, 0x90
__ZN4core3ops8function5FnMut8call_mut17he6483d2d0ed5844bE:
	.cfi_startproc
	pushq	%rbp
	.cfi_def_cfa_offset 16
	.cfi_offset %rbp, -16
	movq	%rsp, %rbp
	.cfi_def_cfa_register %rbp
	subq	$80, %rsp
	leaq	-56(%rbp), %rax
	movq	%rax, %rcx
	movq	%rdi, -64(%rbp)
	movq	%rcx, %rdi
	movl	$56, %edx
	movq	%rax, -72(%rbp)
	callq	_memcpy
	movq	-72(%rbp), %rax
	movq	%rax, %rdi
	callq	__ZN4core3mem4drop17h679ae7ecf8868ad3E
	addq	$80, %rsp
	popq	%rbp
	retq
	.cfi_endproc

	.p2align	4, 0x90
__ZN4core3ops8function6FnOnce40call_once$u7b$$u7b$vtable.shim$u7d$$u7d$17hc2a9e62f9b7d09cdE:
	.cfi_startproc
	pushq	%rbp
	.cfi_def_cfa_offset 16
	.cfi_offset %rbp, -16
	movq	%rsp, %rbp
	.cfi_def_cfa_register %rbp
	subq	$16, %rsp
	movq	(%rdi), %rdi
	callq	__ZN4core3ops8function6FnOnce9call_once17h47111142f3acdf45E
	movl	%eax, -12(%rbp)
	movl	-12(%rbp), %eax
	addq	$16, %rsp
	popq	%rbp
	retq
	.cfi_endproc

	.p2align	4, 0x90
__ZN4core3ops8function6FnOnce9call_once17h2028852fdecb53cdE:
	.cfi_startproc
	pushq	%rbp
	.cfi_def_cfa_offset 16
	.cfi_offset %rbp, -16
	movq	%rsp, %rbp
	.cfi_def_cfa_register %rbp
	subq	$32, %rsp
	movq	%rdi, %rax
	movq	(%rsi), %rcx
	movq	%rcx, -24(%rbp)
	movq	8(%rsi), %rcx
	movq	%rcx, -16(%rbp)
	movq	16(%rsi), %rcx
	movq	%rcx, -8(%rbp)
	leaq	-24(%rbp), %rcx
	movq	%rcx, %rsi
	movq	%rax, -32(%rbp)
	callq	__ZN4core6option6Option4Some17h2523eded959c5a46E
	movq	-32(%rbp), %rax
	addq	$32, %rsp
	popq	%rbp
	retq
	.cfi_endproc

	.p2align	4, 0x90
__ZN4core3ops8function6FnOnce9call_once17h47111142f3acdf45E:
Lfunc_begin26:
	.cfi_startproc
	.cfi_personality 155, _rust_eh_personality
	.cfi_lsda 16, Lexception26
	pushq	%rbp
	.cfi_def_cfa_offset 16
	.cfi_offset %rbp, -16
	movq	%rsp, %rbp
	.cfi_def_cfa_register %rbp
	subq	$48, %rsp
	movq	%rdi, -32(%rbp)
Ltmp307:
	leaq	-32(%rbp), %rdi
	callq	__ZN3std2rt10lang_start28_$u7b$$u7b$closure$u7d$$u7d$17h841fc13b70591440E
Ltmp308:
	movl	%eax, -36(%rbp)
	jmp	LBB143_1
LBB143_1:
	jmp	LBB143_2
LBB143_2:
	movl	-36(%rbp), %eax
	addq	$48, %rsp
	popq	%rbp
	retq
LBB143_3:
	jmp	LBB143_4
LBB143_4:
	movq	-16(%rbp), %rdi
	callq	__Unwind_Resume
	ud2
LBB143_5:
Ltmp309:
	movq	%rax, -16(%rbp)
	movl	%edx, -8(%rbp)
	jmp	LBB143_3
Lfunc_end26:
	.cfi_endproc
	.section	__TEXT,__gcc_except_tab
	.p2align	2
GCC_except_table143:
Lexception26:
	.byte	255
	.byte	255
	.byte	1
	.uleb128 Lcst_end26-Lcst_begin26
Lcst_begin26:
	.uleb128 Ltmp307-Lfunc_begin26
	.uleb128 Ltmp308-Ltmp307
	.uleb128 Ltmp309-Lfunc_begin26
	.byte	0
	.uleb128 Ltmp308-Lfunc_begin26
	.uleb128 Lfunc_end26-Ltmp308
	.byte	0
	.byte	0
Lcst_end26:
	.p2align	2

	.section	__TEXT,__text,regular,pure_instructions
	.p2align	4, 0x90
__ZN4core3ops8function6FnOnce9call_once17h870f634522eb8bb0E:
	.cfi_startproc
	pushq	%rbp
	.cfi_def_cfa_offset 16
	.cfi_offset %rbp, -16
	movq	%rsp, %rbp
	.cfi_def_cfa_register %rbp
	subq	$32, %rsp
	movq	%rdi, %rax
	movq	(%rsi), %rcx
	movq	%rcx, -16(%rbp)
	movq	8(%rsi), %rcx
	movq	%rcx, -8(%rbp)
	leaq	-16(%rbp), %rcx
	movq	%rcx, %rsi
	movq	%rax, -24(%rbp)
	callq	__ZN10serde_json5value5Value6Number17h2bfe5d5abfb2853fE
	movq	-24(%rbp), %rax
	addq	$32, %rsp
	popq	%rbp
	retq
	.cfi_endproc

	.p2align	4, 0x90
__ZN4core3ops8function6FnOnce9call_once17hcec0eeb707454cfbE:
	.cfi_startproc
	pushq	%rbp
	.cfi_def_cfa_offset 16
	.cfi_offset %rbp, -16
	movq	%rsp, %rbp
	.cfi_def_cfa_register %rbp
	subq	$32, %rsp
	movq	%rdi, %rax
	movq	(%rsi), %rcx
	movq	%rcx, -24(%rbp)
	movq	8(%rsi), %rcx
	movq	%rcx, -16(%rbp)
	movq	16(%rsi), %rcx
	movq	%rcx, -8(%rbp)
	leaq	-24(%rbp), %rcx
	movq	%rcx, %rsi
	movq	%rax, -32(%rbp)
	callq	__ZN4core6option6Option4Some17h19daef10bc9152f1E
	movq	-32(%rbp), %rax
	addq	$32, %rsp
	popq	%rbp
	retq
	.cfi_endproc

	.p2align	4, 0x90
__ZN4core3ops8function6FnOnce9call_once17hef471100d87370afE:
	.cfi_startproc
	pushq	%rbp
	.cfi_def_cfa_offset 16
	.cfi_offset %rbp, -16
	movq	%rsp, %rbp
	.cfi_def_cfa_register %rbp
	subq	$32, %rsp
	movq	%rdi, -16(%rbp)
	movq	%rsi, -8(%rbp)
	movq	-16(%rbp), %rdi
	movq	-8(%rbp), %rsi
	callq	__ZN4core3cmp5impls50_$LT$impl$u20$core..cmp..Ord$u20$for$u20$usize$GT$3cmp17h442379464eedd660E
	movb	%al, -17(%rbp)
	movb	-17(%rbp), %al
	addq	$32, %rsp
	popq	%rbp
	retq
	.cfi_endproc

	.p2align	4, 0x90
__ZN4core3ptr18real_drop_in_place17h0ac5538f70fbdd71E:
	.cfi_startproc
	pushq	%rbp
	.cfi_def_cfa_offset 16
	.cfi_offset %rbp, -16
	movq	%rsp, %rbp
	.cfi_def_cfa_register %rbp
	subq	$32, %rsp
	movq	%rdi, -24(%rbp)
	jmp	LBB147_2
LBB147_1:
	addq	$32, %rsp
	popq	%rbp
	retq
LBB147_2:
	movq	-24(%rbp), %rax
	movq	(%rax), %rdi
	callq	__ZN5alloc5alloc8box_free17haf65effeee696eebE
	jmp	LBB147_1
	.cfi_endproc

	.p2align	4, 0x90
__ZN4core3ptr18real_drop_in_place17h0bc1e67eb0e9aa9eE:
	.cfi_startproc
	pushq	%rbp
	.cfi_def_cfa_offset 16
	.cfi_offset %rbp, -16
	movq	%rsp, %rbp
	.cfi_def_cfa_register %rbp
	subq	$16, %rsp
	movq	%rdi, -8(%rbp)
	movq	-8(%rbp), %rax
	movq	%rax, %rdi
	callq	__ZN4core3ptr18real_drop_in_place17h397d3a0e48bbb87cE
	addq	$16, %rsp
	popq	%rbp
	retq
	.cfi_endproc

	.p2align	4, 0x90
__ZN4core3ptr18real_drop_in_place17h11ddbfeb9fbe884aE:
	.cfi_startproc
	pushq	%rbp
	.cfi_def_cfa_offset 16
	.cfi_offset %rbp, -16
	movq	%rsp, %rbp
	.cfi_def_cfa_register %rbp
	subq	$16, %rsp
	movq	%rdi, -8(%rbp)
	movq	-8(%rbp), %rax
	movq	%rax, %rdi
	callq	__ZN4core3ptr18real_drop_in_place17h397d3a0e48bbb87cE
	addq	$16, %rsp
	popq	%rbp
	retq
	.cfi_endproc

	.p2align	4, 0x90
__ZN4core3ptr18real_drop_in_place17h15bcacccb083e06bE:
	.cfi_startproc
	pushq	%rbp
	.cfi_def_cfa_offset 16
	.cfi_offset %rbp, -16
	movq	%rsp, %rbp
	.cfi_def_cfa_register %rbp
	subq	$32, %rsp
	movq	%rdi, -24(%rbp)
	jmp	LBB150_2
LBB150_1:
	addq	$32, %rsp
	popq	%rbp
	retq
LBB150_2:
	movq	-24(%rbp), %rax
	movq	(%rax), %rdi
	movq	8(%rax), %rsi
	callq	__ZN5alloc5alloc8box_free17h1b8b080570ed8314E
	jmp	LBB150_1
	.cfi_endproc

	.p2align	4, 0x90
__ZN4core3ptr18real_drop_in_place17h164d76c7649c96aaE:
	.cfi_startproc
	pushq	%rbp
	.cfi_def_cfa_offset 16
	.cfi_offset %rbp, -16
	movq	%rsp, %rbp
	.cfi_def_cfa_register %rbp
	subq	$16, %rsp
	movq	%rdi, -8(%rbp)
	movq	-8(%rbp), %rax
	cmpq	$0, (%rax)
	jne	LBB151_2
LBB151_1:
	addq	$16, %rsp
	popq	%rbp
	retq
LBB151_2:
	movq	-8(%rbp), %rax
	addq	$8, %rax
	movq	%rax, %rdi
	callq	__ZN4core3ptr18real_drop_in_place17h94d8d2616b716ae2E
	jmp	LBB151_1
	.cfi_endproc

	.p2align	4, 0x90
__ZN4core3ptr18real_drop_in_place17h1c19845aec3eeb70E:
Lfunc_begin27:
	.cfi_startproc
	.cfi_personality 155, _rust_eh_personality
	.cfi_lsda 16, Lexception27
	pushq	%rbp
	.cfi_def_cfa_offset 16
	.cfi_offset %rbp, -16
	movq	%rsp, %rbp
	.cfi_def_cfa_register %rbp
	subq	$32, %rsp
	movq	%rdi, -24(%rbp)
	movq	-24(%rbp), %rax
	movq	(%rax), %rdi
Ltmp310:
	callq	__ZN4core3ptr18real_drop_in_place17hbe6d2c49d595ed03E
Ltmp311:
	jmp	LBB152_3
LBB152_1:
	addq	$32, %rsp
	popq	%rbp
	retq
LBB152_2:
	movq	-16(%rbp), %rdi
	callq	__Unwind_Resume
	ud2
LBB152_3:
	movq	-24(%rbp), %rax
	movq	(%rax), %rdi
	callq	__ZN5alloc5alloc8box_free17h284aa316ff9e6a63E
	jmp	LBB152_1
LBB152_4:
	movq	-24(%rbp), %rax
	movq	(%rax), %rdi
	callq	__ZN5alloc5alloc8box_free17h284aa316ff9e6a63E
	jmp	LBB152_2
LBB152_5:
Ltmp312:
	movq	%rax, -16(%rbp)
	movl	%edx, -8(%rbp)
	jmp	LBB152_4
Lfunc_end27:
	.cfi_endproc
	.section	__TEXT,__gcc_except_tab
	.p2align	2
GCC_except_table152:
Lexception27:
	.byte	255
	.byte	255
	.byte	1
	.uleb128 Lcst_end27-Lcst_begin27
Lcst_begin27:
	.uleb128 Ltmp310-Lfunc_begin27
	.uleb128 Ltmp311-Ltmp310
	.uleb128 Ltmp312-Lfunc_begin27
	.byte	0
	.uleb128 Ltmp311-Lfunc_begin27
	.uleb128 Lfunc_end27-Ltmp311
	.byte	0
	.byte	0
Lcst_end27:
	.p2align	2

	.section	__TEXT,__text,regular,pure_instructions
	.p2align	4, 0x90
__ZN4core3ptr18real_drop_in_place17h1c670304e478fd14E:
	.cfi_startproc
	pushq	%rbp
	.cfi_def_cfa_offset 16
	.cfi_offset %rbp, -16
	movq	%rsp, %rbp
	.cfi_def_cfa_register %rbp
	callq	__ZN66_$LT$alloc..vec..SetLenOnDrop$u20$as$u20$core..ops..drop..Drop$GT$4drop17hf176bf106cc533abE
	popq	%rbp
	retq
	.cfi_endproc

	.p2align	4, 0x90
__ZN4core3ptr18real_drop_in_place17h2b4f7159a46d5c41E:
Lfunc_begin28:
	.cfi_startproc
	.cfi_personality 155, _rust_eh_personality
	.cfi_lsda 16, Lexception28
	pushq	%rbp
	.cfi_def_cfa_offset 16
	.cfi_offset %rbp, -16
	movq	%rsp, %rbp
	.cfi_def_cfa_register %rbp
	subq	$32, %rsp
	movq	%rdi, -24(%rbp)
	movq	-24(%rbp), %rdi
Ltmp313:
	callq	__ZN66_$LT$alloc..vec..Vec$LT$T$GT$$u20$as$u20$core..ops..drop..Drop$GT$4drop17h52dda619c4a96fefE
Ltmp314:
	jmp	LBB154_4
LBB154_1:
	movq	-16(%rbp), %rdi
	callq	__Unwind_Resume
	ud2
LBB154_2:
	addq	$32, %rsp
	popq	%rbp
	retq
LBB154_3:
	movq	-24(%rbp), %rax
	movq	%rax, %rdi
	callq	__ZN4core3ptr18real_drop_in_place17hc17b956e9bcf49b9E
	jmp	LBB154_1
LBB154_4:
	movq	-24(%rbp), %rax
	movq	%rax, %rdi
	callq	__ZN4core3ptr18real_drop_in_place17hc17b956e9bcf49b9E
	jmp	LBB154_2
LBB154_5:
Ltmp315:
	movq	%rax, -16(%rbp)
	movl	%edx, -8(%rbp)
	jmp	LBB154_3
Lfunc_end28:
	.cfi_endproc
	.section	__TEXT,__gcc_except_tab
	.p2align	2
GCC_except_table154:
Lexception28:
	.byte	255
	.byte	255
	.byte	1
	.uleb128 Lcst_end28-Lcst_begin28
Lcst_begin28:
	.uleb128 Ltmp313-Lfunc_begin28
	.uleb128 Ltmp314-Ltmp313
	.uleb128 Ltmp315-Lfunc_begin28
	.byte	0
	.uleb128 Ltmp314-Lfunc_begin28
	.uleb128 Lfunc_end28-Ltmp314
	.byte	0
	.byte	0
Lcst_end28:
	.p2align	2

	.section	__TEXT,__text,regular,pure_instructions
	.p2align	4, 0x90
__ZN4core3ptr18real_drop_in_place17h2f282bef83329322E:
	.cfi_startproc
	pushq	%rbp
	.cfi_def_cfa_offset 16
	.cfi_offset %rbp, -16
	movq	%rsp, %rbp
	.cfi_def_cfa_register %rbp
	subq	$16, %rsp
	movq	%rdi, -8(%rbp)
	movq	-8(%rbp), %rax
	movb	(%rax), %cl
	subb	$1, %cl
	ja	LBB155_2
	jmp	LBB155_1
LBB155_1:
	addq	$16, %rsp
	popq	%rbp
	retq
LBB155_2:
	movq	-8(%rbp), %rax
	addq	$8, %rax
	movq	%rax, %rdi
	callq	__ZN4core3ptr18real_drop_in_place17h1c19845aec3eeb70E
	jmp	LBB155_1
	.cfi_endproc

	.p2align	4, 0x90
__ZN4core3ptr18real_drop_in_place17h397d3a0e48bbb87cE:
	.cfi_startproc
	pushq	%rbp
	.cfi_def_cfa_offset 16
	.cfi_offset %rbp, -16
	movq	%rsp, %rbp
	.cfi_def_cfa_register %rbp
	subq	$16, %rsp
	movq	%rdi, -8(%rbp)
	movq	-8(%rbp), %rax
	movq	%rax, %rdi
	callq	__ZN4core3ptr18real_drop_in_place17haafb84759d87e45dE
	addq	$16, %rsp
	popq	%rbp
	retq
	.cfi_endproc

	.p2align	4, 0x90
__ZN4core3ptr18real_drop_in_place17h40ee9357664d7dc0E:
Lfunc_begin29:
	.cfi_startproc
	.cfi_personality 155, _rust_eh_personality
	.cfi_lsda 16, Lexception29
	pushq	%rbp
	.cfi_def_cfa_offset 16
	.cfi_offset %rbp, -16
	movq	%rsp, %rbp
	.cfi_def_cfa_register %rbp
	subq	$32, %rsp
	movq	%rdi, -24(%rbp)
	movq	-24(%rbp), %rax
	movq	(%rax), %rdi
Ltmp316:
	callq	__ZN4core3ptr18real_drop_in_place17h80e1eadc6ba0f8f7E
Ltmp317:
	jmp	LBB157_3
LBB157_1:
	addq	$32, %rsp
	popq	%rbp
	retq
LBB157_2:
	movq	-16(%rbp), %rdi
	callq	__Unwind_Resume
	ud2
LBB157_3:
	movq	-24(%rbp), %rax
	movq	(%rax), %rdi
	callq	__ZN5alloc5alloc8box_free17h2dc0fdec5dcc27f8E
	jmp	LBB157_1
LBB157_4:
	movq	-24(%rbp), %rax
	movq	(%rax), %rdi
	callq	__ZN5alloc5alloc8box_free17h2dc0fdec5dcc27f8E
	jmp	LBB157_2
LBB157_5:
Ltmp318:
	movq	%rax, -16(%rbp)
	movl	%edx, -8(%rbp)
	jmp	LBB157_4
Lfunc_end29:
	.cfi_endproc
	.section	__TEXT,__gcc_except_tab
	.p2align	2
GCC_except_table157:
Lexception29:
	.byte	255
	.byte	255
	.byte	1
	.uleb128 Lcst_end29-Lcst_begin29
Lcst_begin29:
	.uleb128 Ltmp316-Lfunc_begin29
	.uleb128 Ltmp317-Ltmp316
	.uleb128 Ltmp318-Lfunc_begin29
	.byte	0
	.uleb128 Ltmp317-Lfunc_begin29
	.uleb128 Lfunc_end29-Ltmp317
	.byte	0
	.byte	0
Lcst_end29:
	.p2align	2

	.section	__TEXT,__text,regular,pure_instructions
	.p2align	4, 0x90
__ZN4core3ptr18real_drop_in_place17h4ac5e5cd794556ddE:
	.cfi_startproc
	pushq	%rbp
	.cfi_def_cfa_offset 16
	.cfi_offset %rbp, -16
	movq	%rsp, %rbp
	.cfi_def_cfa_register %rbp
	popq	%rbp
	retq
	.cfi_endproc

	.p2align	4, 0x90
__ZN4core3ptr18real_drop_in_place17h52a3dcad0a6096bfE:
	.cfi_startproc
	pushq	%rbp
	.cfi_def_cfa_offset 16
	.cfi_offset %rbp, -16
	movq	%rsp, %rbp
	.cfi_def_cfa_register %rbp
	popq	%rbp
	retq
	.cfi_endproc

	.p2align	4, 0x90
__ZN4core3ptr18real_drop_in_place17h5538adda2a3dd408E:
	.cfi_startproc
	pushq	%rbp
	.cfi_def_cfa_offset 16
	.cfi_offset %rbp, -16
	movq	%rsp, %rbp
	.cfi_def_cfa_register %rbp
	callq	__ZN95_$LT$alloc..collections..btree..map..BTreeMap$LT$K$C$V$GT$$u20$as$u20$core..ops..drop..Drop$GT$4drop17hfc297fa4412931e7E
	popq	%rbp
	retq
	.cfi_endproc

	.p2align	4, 0x90
__ZN4core3ptr18real_drop_in_place17h598a848fad10f46eE:
	.cfi_startproc
	pushq	%rbp
	.cfi_def_cfa_offset 16
	.cfi_offset %rbp, -16
	movq	%rsp, %rbp
	.cfi_def_cfa_register %rbp
	subq	$16, %rsp
	xorl	%eax, %eax
	movl	%eax, %ecx
	movq	%rdi, -8(%rbp)
	movq	-8(%rbp), %rdx
	movb	(%rdx), %sil
	subb	$6, %sil
	cmpb	$0, %sil
	movl	$1, %edx
	cmovbeq	%rcx, %rdx
	cmpq	$0, %rdx
	jne	LBB161_2
LBB161_1:
	addq	$16, %rsp
	popq	%rbp
	retq
LBB161_2:
	movq	-8(%rbp), %rax
	movq	%rax, %rdi
	callq	__ZN4core3ptr18real_drop_in_place17hf41454ab830ed941E
	jmp	LBB161_1
	.cfi_endproc

	.p2align	4, 0x90
__ZN4core3ptr18real_drop_in_place17h61d59176afeb8a22E:
	.cfi_startproc
	pushq	%rbp
	.cfi_def_cfa_offset 16
	.cfi_offset %rbp, -16
	movq	%rsp, %rbp
	.cfi_def_cfa_register %rbp
	subq	$16, %rsp
	movq	%rdi, -8(%rbp)
	movq	-8(%rbp), %rax
	movq	(%rax), %rax
	testq	%rax, %rax
	movq	%rax, -16(%rbp)
	je	LBB162_2
	jmp	LBB162_4
LBB162_4:
	movq	-16(%rbp), %rax
	subq	$1, %rax
	je	LBB162_3
	jmp	LBB162_5
LBB162_5:
	movq	-16(%rbp), %rax
	addq	$-2, %rax
	subq	$20, %rax
	ja	LBB162_1
	jmp	LBB162_1
LBB162_1:
	addq	$16, %rsp
	popq	%rbp
	retq
LBB162_2:
	movq	-8(%rbp), %rax
	addq	$8, %rax
	movq	%rax, %rdi
	callq	__ZN4core3ptr18real_drop_in_place17h15bcacccb083e06bE
	jmp	LBB162_1
LBB162_3:
	movq	-8(%rbp), %rax
	addq	$8, %rax
	movq	%rax, %rdi
	callq	__ZN4core3ptr18real_drop_in_place17h769090433d633d89E
	jmp	LBB162_1
	.cfi_endproc

	.p2align	4, 0x90
__ZN4core3ptr18real_drop_in_place17h6ab0cad95da20374E:
	.cfi_startproc
	pushq	%rbp
	.cfi_def_cfa_offset 16
	.cfi_offset %rbp, -16
	movq	%rsp, %rbp
	.cfi_def_cfa_register %rbp
	subq	$16, %rsp
	movq	%rdi, -8(%rbp)
	movq	-8(%rbp), %rax
	addq	$24, %rax
	movq	%rax, %rdi
	callq	__ZN4core3ptr18real_drop_in_place17haafb84759d87e45dE
	addq	$16, %rsp
	popq	%rbp
	retq
	.cfi_endproc

	.p2align	4, 0x90
__ZN4core3ptr18real_drop_in_place17h7479a83b6311fd5fE:
	.cfi_startproc
	pushq	%rbp
	.cfi_def_cfa_offset 16
	.cfi_offset %rbp, -16
	movq	%rsp, %rbp
	.cfi_def_cfa_register %rbp
	popq	%rbp
	retq
	.cfi_endproc

	.p2align	4, 0x90
__ZN4core3ptr18real_drop_in_place17h769090433d633d89E:
	.cfi_startproc
	pushq	%rbp
	.cfi_def_cfa_offset 16
	.cfi_offset %rbp, -16
	movq	%rsp, %rbp
	.cfi_def_cfa_register %rbp
	subq	$16, %rsp
	movq	%rdi, -8(%rbp)
	movq	-8(%rbp), %rax
	movq	%rax, %rdi
	callq	__ZN4core3ptr18real_drop_in_place17h2f282bef83329322E
	addq	$16, %rsp
	popq	%rbp
	retq
	.cfi_endproc

	.p2align	4, 0x90
__ZN4core3ptr18real_drop_in_place17h80e1eadc6ba0f8f7E:
	.cfi_startproc
	pushq	%rbp
	.cfi_def_cfa_offset 16
	.cfi_offset %rbp, -16
	movq	%rsp, %rbp
	.cfi_def_cfa_register %rbp
	subq	$16, %rsp
	movq	%rdi, -8(%rbp)
	movq	-8(%rbp), %rax
	movq	%rax, %rdi
	callq	__ZN4core3ptr18real_drop_in_place17h61d59176afeb8a22E
	addq	$16, %rsp
	popq	%rbp
	retq
	.cfi_endproc

	.p2align	4, 0x90
__ZN4core3ptr18real_drop_in_place17h90442ee43651c791E:
	.cfi_startproc
	pushq	%rbp
	.cfi_def_cfa_offset 16
	.cfi_offset %rbp, -16
	movq	%rsp, %rbp
	.cfi_def_cfa_register %rbp
	callq	*(%rsi)
	popq	%rbp
	retq
	.cfi_endproc

	.p2align	4, 0x90
__ZN4core3ptr18real_drop_in_place17h94d8d2616b716ae2E:
	.cfi_startproc
	pushq	%rbp
	.cfi_def_cfa_offset 16
	.cfi_offset %rbp, -16
	movq	%rsp, %rbp
	.cfi_def_cfa_register %rbp
	subq	$16, %rsp
	movq	%rdi, -8(%rbp)
	movq	-8(%rbp), %rax
	movq	%rax, %rdi
	callq	__ZN4core3ptr18real_drop_in_place17h40ee9357664d7dc0E
	addq	$16, %rsp
	popq	%rbp
	retq
	.cfi_endproc

	.p2align	4, 0x90
__ZN4core3ptr18real_drop_in_place17haafb84759d87e45dE:
Lfunc_begin30:
	.cfi_startproc
	.cfi_personality 155, _rust_eh_personality
	.cfi_lsda 16, Lexception30
	pushq	%rbp
	.cfi_def_cfa_offset 16
	.cfi_offset %rbp, -16
	movq	%rsp, %rbp
	.cfi_def_cfa_register %rbp
	subq	$32, %rsp
	movq	%rdi, -24(%rbp)
	movq	-24(%rbp), %rdi
Ltmp319:
	callq	__ZN66_$LT$alloc..vec..Vec$LT$T$GT$$u20$as$u20$core..ops..drop..Drop$GT$4drop17h7e6fb18267436a41E
Ltmp320:
	jmp	LBB169_4
LBB169_1:
	movq	-16(%rbp), %rdi
	callq	__Unwind_Resume
	ud2
LBB169_2:
	addq	$32, %rsp
	popq	%rbp
	retq
LBB169_3:
	movq	-24(%rbp), %rax
	movq	%rax, %rdi
	callq	__ZN4core3ptr18real_drop_in_place17hc7411755b6bb1620E
	jmp	LBB169_1
LBB169_4:
	movq	-24(%rbp), %rax
	movq	%rax, %rdi
	callq	__ZN4core3ptr18real_drop_in_place17hc7411755b6bb1620E
	jmp	LBB169_2
LBB169_5:
Ltmp321:
	movq	%rax, -16(%rbp)
	movl	%edx, -8(%rbp)
	jmp	LBB169_3
Lfunc_end30:
	.cfi_endproc
	.section	__TEXT,__gcc_except_tab
	.p2align	2
GCC_except_table169:
Lexception30:
	.byte	255
	.byte	255
	.byte	1
	.uleb128 Lcst_end30-Lcst_begin30
Lcst_begin30:
	.uleb128 Ltmp319-Lfunc_begin30
	.uleb128 Ltmp320-Ltmp319
	.uleb128 Ltmp321-Lfunc_begin30
	.byte	0
	.uleb128 Ltmp320-Lfunc_begin30
	.uleb128 Lfunc_end30-Ltmp320
	.byte	0
	.byte	0
Lcst_end30:
	.p2align	2

	.section	__TEXT,__text,regular,pure_instructions
	.p2align	4, 0x90
__ZN4core3ptr18real_drop_in_place17hb3f050d7616e3382E:
	.cfi_startproc
	pushq	%rbp
	.cfi_def_cfa_offset 16
	.cfi_offset %rbp, -16
	movq	%rsp, %rbp
	.cfi_def_cfa_register %rbp
	subq	$16, %rsp
	movq	%rdi, -8(%rbp)
	movq	-8(%rbp), %rax
	movq	%rax, %rdi
	callq	__ZN4core3ptr18real_drop_in_place17h5538adda2a3dd408E
	addq	$16, %rsp
	popq	%rbp
	retq
	.cfi_endproc

	.p2align	4, 0x90
__ZN4core3ptr18real_drop_in_place17hba940374fc5e954dE:
	.cfi_startproc
	pushq	%rbp
	.cfi_def_cfa_offset 16
	.cfi_offset %rbp, -16
	movq	%rsp, %rbp
	.cfi_def_cfa_register %rbp
	subq	$16, %rsp
	xorl	%eax, %eax
	movl	%eax, %ecx
	movq	%rdi, -8(%rbp)
	movq	-8(%rbp), %rdx
	cmpq	$0, (%rdx)
	movl	$1, %edx
	cmovbeq	%rcx, %rdx
	cmpq	$0, %rdx
	jne	LBB171_2
LBB171_1:
	addq	$16, %rsp
	popq	%rbp
	retq
LBB171_2:
	movq	-8(%rbp), %rax
	movq	%rax, %rdi
	callq	__ZN4core3ptr18real_drop_in_place17h0bc1e67eb0e9aa9eE
	jmp	LBB171_1
	.cfi_endproc

	.p2align	4, 0x90
__ZN4core3ptr18real_drop_in_place17hbd244058d832624cE:
	.cfi_startproc
	pushq	%rbp
	.cfi_def_cfa_offset 16
	.cfi_offset %rbp, -16
	movq	%rsp, %rbp
	.cfi_def_cfa_register %rbp
	subq	$16, %rsp
	movq	%rdi, -8(%rbp)
	movq	-8(%rbp), %rax
	movb	(%rax), %cl
	andb	$1, %cl
	movzbl	%cl, %edx
	movl	%edx, %eax
	cmpq	$0, %rax
	jne	LBB172_2
LBB172_1:
	addq	$16, %rsp
	popq	%rbp
	retq
LBB172_2:
	movq	-8(%rbp), %rax
	addq	$8, %rax
	movq	%rax, %rdi
	callq	__ZN4core3ptr18real_drop_in_place17h94d8d2616b716ae2E
	jmp	LBB172_1
	.cfi_endproc

	.p2align	4, 0x90
__ZN4core3ptr18real_drop_in_place17hbe6d2c49d595ed03E:
	.cfi_startproc
	pushq	%rbp
	.cfi_def_cfa_offset 16
	.cfi_offset %rbp, -16
	movq	%rsp, %rbp
	.cfi_def_cfa_register %rbp
	subq	$16, %rsp
	movq	%rdi, -8(%rbp)
	movq	-8(%rbp), %rax
	movq	%rax, %rdi
	callq	__ZN4core3ptr18real_drop_in_place17he239720239f596d4E
	addq	$16, %rsp
	popq	%rbp
	retq
	.cfi_endproc

	.p2align	4, 0x90
__ZN4core3ptr18real_drop_in_place17hc17b956e9bcf49b9E:
	.cfi_startproc
	pushq	%rbp
	.cfi_def_cfa_offset 16
	.cfi_offset %rbp, -16
	movq	%rsp, %rbp
	.cfi_def_cfa_register %rbp
	callq	__ZN77_$LT$alloc..raw_vec..RawVec$LT$T$C$A$GT$$u20$as$u20$core..ops..drop..Drop$GT$4drop17hcbd769255ba4170dE
	popq	%rbp
	retq
	.cfi_endproc

	.p2align	4, 0x90
__ZN4core3ptr18real_drop_in_place17hc51585cd83908081E:
	.cfi_startproc
	pushq	%rbp
	.cfi_def_cfa_offset 16
	.cfi_offset %rbp, -16
	movq	%rsp, %rbp
	.cfi_def_cfa_register %rbp
	callq	__ZN95_$LT$alloc..collections..btree..map..IntoIter$LT$K$C$V$GT$$u20$as$u20$core..ops..drop..Drop$GT$4drop17h1e867d2fc2e6db12E
	popq	%rbp
	retq
	.cfi_endproc

	.p2align	4, 0x90
__ZN4core3ptr18real_drop_in_place17hc7411755b6bb1620E:
	.cfi_startproc
	pushq	%rbp
	.cfi_def_cfa_offset 16
	.cfi_offset %rbp, -16
	movq	%rsp, %rbp
	.cfi_def_cfa_register %rbp
	callq	__ZN77_$LT$alloc..raw_vec..RawVec$LT$T$C$A$GT$$u20$as$u20$core..ops..drop..Drop$GT$4drop17h524dc311f454e1b9E
	popq	%rbp
	retq
	.cfi_endproc

	.p2align	4, 0x90
__ZN4core3ptr18real_drop_in_place17hc9bb483e6409be7bE:
	.cfi_startproc
	pushq	%rbp
	.cfi_def_cfa_offset 16
	.cfi_offset %rbp, -16
	movq	%rsp, %rbp
	.cfi_def_cfa_register %rbp
	subq	$16, %rsp
	movq	%rdi, -8(%rbp)
	movq	-8(%rbp), %rax
	cmpq	$0, (%rax)
	je	LBB177_2
	jmp	LBB177_3
LBB177_1:
	addq	$16, %rsp
	popq	%rbp
	retq
LBB177_2:
	movq	-8(%rbp), %rax
	addq	$8, %rax
	movq	%rax, %rdi
	callq	__ZN4core3ptr18real_drop_in_place17hf41454ab830ed941E
	jmp	LBB177_1
LBB177_3:
	movq	-8(%rbp), %rax
	addq	$8, %rax
	movq	%rax, %rdi
	callq	__ZN4core3ptr18real_drop_in_place17h94d8d2616b716ae2E
	jmp	LBB177_1
	.cfi_endproc

	.p2align	4, 0x90
__ZN4core3ptr18real_drop_in_place17hcf3573a1642759c0E:
Lfunc_begin31:
	.cfi_startproc
	.cfi_personality 155, _rust_eh_personality
	.cfi_lsda 16, Lexception31
	pushq	%rbp
	.cfi_def_cfa_offset 16
	.cfi_offset %rbp, -16
	movq	%rsp, %rbp
	.cfi_def_cfa_register %rbp
	subq	$32, %rsp
	movq	%rdi, -24(%rbp)
	movq	-24(%rbp), %rdi
Ltmp322:
	callq	__ZN4core3ptr18real_drop_in_place17h397d3a0e48bbb87cE
Ltmp323:
	jmp	LBB178_4
LBB178_1:
	movq	-16(%rbp), %rdi
	callq	__Unwind_Resume
	ud2
LBB178_2:
	addq	$32, %rsp
	popq	%rbp
	retq
LBB178_3:
	movq	-24(%rbp), %rax
	addq	$24, %rax
	movq	%rax, %rdi
	callq	__ZN4core3ptr18real_drop_in_place17hf41454ab830ed941E
	jmp	LBB178_1
LBB178_4:
	movq	-24(%rbp), %rax
	addq	$24, %rax
	movq	%rax, %rdi
	callq	__ZN4core3ptr18real_drop_in_place17hf41454ab830ed941E
	jmp	LBB178_2
LBB178_5:
Ltmp324:
	movq	%rax, -16(%rbp)
	movl	%edx, -8(%rbp)
	jmp	LBB178_3
Lfunc_end31:
	.cfi_endproc
	.section	__TEXT,__gcc_except_tab
	.p2align	2
GCC_except_table178:
Lexception31:
	.byte	255
	.byte	255
	.byte	1
	.uleb128 Lcst_end31-Lcst_begin31
Lcst_begin31:
	.uleb128 Ltmp322-Lfunc_begin31
	.uleb128 Ltmp323-Ltmp322
	.uleb128 Ltmp324-Lfunc_begin31
	.byte	0
	.uleb128 Ltmp323-Lfunc_begin31
	.uleb128 Lfunc_end31-Ltmp323
	.byte	0
	.byte	0
Lcst_end31:
	.p2align	2

	.section	__TEXT,__text,regular,pure_instructions
	.p2align	4, 0x90
__ZN4core3ptr18real_drop_in_place17hda2544e7c0eb7314E:
	.cfi_startproc
	pushq	%rbp
	.cfi_def_cfa_offset 16
	.cfi_offset %rbp, -16
	movq	%rsp, %rbp
	.cfi_def_cfa_register %rbp
	subq	$16, %rsp
	movq	%rdi, -8(%rbp)
	movq	-8(%rbp), %rax
	movb	(%rax), %cl
	andb	$1, %cl
	movzbl	%cl, %edx
	movl	%edx, %eax
	cmpq	$0, %rax
	jne	LBB179_2
LBB179_1:
	addq	$16, %rsp
	popq	%rbp
	retq
LBB179_2:
	movq	-8(%rbp), %rax
	addq	$8, %rax
	movq	%rax, %rdi
	callq	__ZN4core3ptr18real_drop_in_place17h94d8d2616b716ae2E
	jmp	LBB179_1
	.cfi_endproc

	.p2align	4, 0x90
__ZN4core3ptr18real_drop_in_place17he239720239f596d4E:
Lfunc_begin32:
	.cfi_startproc
	.cfi_personality 155, _rust_eh_personality
	.cfi_lsda 16, Lexception32
	pushq	%rbp
	.cfi_def_cfa_offset 16
	.cfi_offset %rbp, -16
	movq	%rsp, %rbp
	.cfi_def_cfa_register %rbp
	subq	$32, %rsp
	movq	%rdi, -24(%rbp)
	movq	-24(%rbp), %rax
	movq	(%rax), %rdi
	movq	8(%rax), %rax
	movq	(%rax), %rax
Ltmp325:
	callq	*%rax
Ltmp326:
	jmp	LBB180_3
LBB180_1:
	addq	$32, %rsp
	popq	%rbp
	retq
LBB180_2:
	movq	-16(%rbp), %rdi
	callq	__Unwind_Resume
	ud2
LBB180_3:
	movq	-24(%rbp), %rax
	movq	(%rax), %rdi
	movq	8(%rax), %rsi
	callq	__ZN5alloc5alloc8box_free17hbe0df5002b0d92c2E
	jmp	LBB180_1
LBB180_4:
	movq	-24(%rbp), %rax
	movq	(%rax), %rdi
	movq	8(%rax), %rsi
	callq	__ZN5alloc5alloc8box_free17hbe0df5002b0d92c2E
	jmp	LBB180_2
LBB180_5:
Ltmp327:
	movq	%rax, -16(%rbp)
	movl	%edx, -8(%rbp)
	jmp	LBB180_4
Lfunc_end32:
	.cfi_endproc
	.section	__TEXT,__gcc_except_tab
	.p2align	2
GCC_except_table180:
Lexception32:
	.byte	255
	.byte	255
	.byte	1
	.uleb128 Lcst_end32-Lcst_begin32
Lcst_begin32:
	.uleb128 Ltmp325-Lfunc_begin32
	.uleb128 Ltmp326-Ltmp325
	.uleb128 Ltmp327-Lfunc_begin32
	.byte	0
	.uleb128 Ltmp326-Lfunc_begin32
	.uleb128 Lfunc_end32-Ltmp326
	.byte	0
	.byte	0
Lcst_end32:
	.p2align	2

	.section	__TEXT,__text,regular,pure_instructions
	.p2align	4, 0x90
__ZN4core3ptr18real_drop_in_place17he919cbe3bcefc60cE:
	.cfi_startproc
	pushq	%rbp
	.cfi_def_cfa_offset 16
	.cfi_offset %rbp, -16
	movq	%rsp, %rbp
	.cfi_def_cfa_register %rbp
	subq	$16, %rsp
	xorl	%eax, %eax
	movl	%eax, %ecx
	movq	%rdi, -8(%rbp)
	movq	-8(%rbp), %rdx
	cmpq	$0, (%rdx)
	movl	$1, %edx
	cmovbeq	%rcx, %rdx
	cmpq	$0, %rdx
	jne	LBB181_2
LBB181_1:
	addq	$16, %rsp
	popq	%rbp
	retq
LBB181_2:
	movq	-8(%rbp), %rax
	movq	%rax, %rdi
	callq	__ZN4core3ptr18real_drop_in_place17h397d3a0e48bbb87cE
	jmp	LBB181_1
	.cfi_endproc

	.p2align	4, 0x90
__ZN4core3ptr18real_drop_in_place17hef849281d57fefd4E:
	.cfi_startproc
	pushq	%rbp
	.cfi_def_cfa_offset 16
	.cfi_offset %rbp, -16
	movq	%rsp, %rbp
	.cfi_def_cfa_register %rbp
	subq	$16, %rsp
	xorl	%eax, %eax
	movl	%eax, %ecx
	movq	%rdi, -8(%rbp)
	movq	-8(%rbp), %rdx
	movb	24(%rdx), %sil
	subb	$6, %sil
	cmpb	$0, %sil
	movl	$1, %edx
	cmovbeq	%rcx, %rdx
	cmpq	$0, %rdx
	jne	LBB182_2
LBB182_1:
	addq	$16, %rsp
	popq	%rbp
	retq
LBB182_2:
	movq	-8(%rbp), %rax
	movq	%rax, %rdi
	callq	__ZN4core3ptr18real_drop_in_place17hcf3573a1642759c0E
	jmp	LBB182_1
	.cfi_endproc

	.p2align	4, 0x90
__ZN4core3ptr18real_drop_in_place17hf24f43d2f47b4e17E:
Lfunc_begin33:
	.cfi_startproc
	.cfi_personality 155, _rust_eh_personality
	.cfi_lsda 16, Lexception33
	pushq	%rbp
	.cfi_def_cfa_offset 16
	.cfi_offset %rbp, -16
	movq	%rsp, %rbp
	.cfi_def_cfa_register %rbp
	subq	$64, %rsp
	xorl	%eax, %eax
	movq	%rdi, -56(%rbp)
	movq	%rsi, -48(%rbp)
	movq	-48(%rbp), %rcx
	testb	$1, %al
	movq	%rcx, -64(%rbp)
	jne	LBB183_7
	jmp	LBB183_12
LBB183_1:
	addq	$64, %rsp
	popq	%rbp
	retq
LBB183_2:
	movq	-16(%rbp), %rdi
	callq	__Unwind_Resume
	ud2
LBB183_3:
	movq	-56(%rbp), %rax
	movq	-40(%rbp), %rcx
	shlq	$5, %rcx
	addq	%rcx, %rax
	movq	-40(%rbp), %rcx
	addq	$1, %rcx
	movq	%rcx, -40(%rbp)
	movq	%rax, %rdi
	callq	__ZN4core3ptr18real_drop_in_place17hf41454ab830ed941E
LBB183_4:
	movq	-64(%rbp), %rax
	cmpq	%rax, -40(%rbp)
	je	LBB183_2
	jmp	LBB183_3
LBB183_5:
	movq	-56(%rbp), %rax
	movq	-40(%rbp), %rcx
	movq	%rcx, %rdx
	shlq	$5, %rdx
	addq	%rdx, %rax
	incq	%rcx
	movq	%rcx, -40(%rbp)
Ltmp331:
	movq	%rax, %rdi
	callq	__ZN4core3ptr18real_drop_in_place17hf41454ab830ed941E
Ltmp332:
	jmp	LBB183_6
LBB183_6:
	movq	-64(%rbp), %rax
	cmpq	%rax, -40(%rbp)
	je	LBB183_1
	jmp	LBB183_5
LBB183_7:
	movq	$0, -40(%rbp)
	jmp	LBB183_6
LBB183_8:
	movq	-32(%rbp), %rdi
	movq	-32(%rbp), %rax
	addq	$32, %rax
	movq	%rax, -32(%rbp)
	callq	__ZN4core3ptr18real_drop_in_place17hf41454ab830ed941E
LBB183_9:
	movq	-32(%rbp), %rax
	cmpq	-24(%rbp), %rax
	je	LBB183_2
	jmp	LBB183_8
LBB183_10:
	movq	-32(%rbp), %rax
	movq	%rax, %rcx
	addq	$32, %rcx
	movq	%rcx, -32(%rbp)
Ltmp328:
	movq	%rax, %rdi
	callq	__ZN4core3ptr18real_drop_in_place17hf41454ab830ed941E
Ltmp329:
	jmp	LBB183_11
LBB183_11:
	movq	-32(%rbp), %rax
	cmpq	-24(%rbp), %rax
	je	LBB183_1
	jmp	LBB183_10
LBB183_12:
	movq	-56(%rbp), %rax
	movq	%rax, -32(%rbp)
	movq	-64(%rbp), %rax
	shlq	$5, %rax
	addq	-32(%rbp), %rax
	movq	%rax, -24(%rbp)
	jmp	LBB183_11
LBB183_13:
Ltmp330:
	movq	%rax, -16(%rbp)
	movl	%edx, -8(%rbp)
	jmp	LBB183_9
LBB183_14:
Ltmp333:
	movq	%rax, -16(%rbp)
	movl	%edx, -8(%rbp)
	jmp	LBB183_4
Lfunc_end33:
	.cfi_endproc
	.section	__TEXT,__gcc_except_tab
	.p2align	2
GCC_except_table183:
Lexception33:
	.byte	255
	.byte	255
	.byte	1
	.uleb128 Lcst_end33-Lcst_begin33
Lcst_begin33:
	.uleb128 Lfunc_begin33-Lfunc_begin33
	.uleb128 Ltmp331-Lfunc_begin33
	.byte	0
	.byte	0
	.uleb128 Ltmp331-Lfunc_begin33
	.uleb128 Ltmp332-Ltmp331
	.uleb128 Ltmp333-Lfunc_begin33
	.byte	0
	.uleb128 Ltmp332-Lfunc_begin33
	.uleb128 Ltmp328-Ltmp332
	.byte	0
	.byte	0
	.uleb128 Ltmp328-Lfunc_begin33
	.uleb128 Ltmp329-Ltmp328
	.uleb128 Ltmp330-Lfunc_begin33
	.byte	0
Lcst_end33:
	.p2align	2

	.section	__TEXT,__text,regular,pure_instructions
	.p2align	4, 0x90
__ZN4core3ptr18real_drop_in_place17hf41454ab830ed941E:
	.cfi_startproc
	pushq	%rbp
	.cfi_def_cfa_offset 16
	.cfi_offset %rbp, -16
	movq	%rsp, %rbp
	.cfi_def_cfa_register %rbp
	subq	$16, %rsp
	movq	%rdi, -8(%rbp)
	movq	-8(%rbp), %rax
	movzbl	(%rax), %ecx
	movl	%ecx, %eax
	movq	%rax, %rdx
	subq	$3, %rdx
	movq	%rax, -16(%rbp)
	jb	LBB184_1
	jmp	LBB184_5
LBB184_5:
	movq	-16(%rbp), %rax
	subq	$3, %rax
	je	LBB184_2
	jmp	LBB184_6
LBB184_6:
	movq	-16(%rbp), %rax
	subq	$4, %rax
	je	LBB184_3
	jmp	LBB184_4
LBB184_1:
	addq	$16, %rsp
	popq	%rbp
	retq
LBB184_2:
	movq	-8(%rbp), %rax
	addq	$8, %rax
	movq	%rax, %rdi
	callq	__ZN4core3ptr18real_drop_in_place17h397d3a0e48bbb87cE
	jmp	LBB184_1
LBB184_3:
	movq	-8(%rbp), %rax
	addq	$8, %rax
	movq	%rax, %rdi
	callq	__ZN4core3ptr18real_drop_in_place17h2b4f7159a46d5c41E
	jmp	LBB184_1
LBB184_4:
	movq	-8(%rbp), %rax
	addq	$8, %rax
	movq	%rax, %rdi
	callq	__ZN4core3ptr18real_drop_in_place17hb3f050d7616e3382E
	jmp	LBB184_1
	.cfi_endproc

	.p2align	4, 0x90
__ZN4core3ptr18real_drop_in_place17hf7950030576194d1E:
Lfunc_begin34:
	.cfi_startproc
	.cfi_personality 155, _rust_eh_personality
	.cfi_lsda 16, Lexception34
	pushq	%rbp
	.cfi_def_cfa_offset 16
	.cfi_offset %rbp, -16
	movq	%rsp, %rbp
	.cfi_def_cfa_register %rbp
	subq	$32, %rsp
	movq	%rdi, -24(%rbp)
	movq	-24(%rbp), %rax
	cmpq	$0, (%rax)
	je	LBB185_2
	jmp	LBB185_5
LBB185_1:
	movq	-16(%rbp), %rdi
	callq	__Unwind_Resume
	ud2
LBB185_2:
	addq	$32, %rsp
	popq	%rbp
	retq
LBB185_3:
	movq	-24(%rbp), %rax
	addq	$56, %rax
	movq	%rax, %rdi
	callq	__ZN4core3ptr18real_drop_in_place17hf41454ab830ed941E
	jmp	LBB185_1
LBB185_4:
	movq	-24(%rbp), %rax
	addq	$56, %rax
	movq	%rax, %rdi
	callq	__ZN4core3ptr18real_drop_in_place17hf41454ab830ed941E
	jmp	LBB185_2
LBB185_5:
	movq	-24(%rbp), %rax
	addq	$32, %rax
Ltmp334:
	movq	%rax, %rdi
	callq	__ZN4core3ptr18real_drop_in_place17h397d3a0e48bbb87cE
Ltmp335:
	jmp	LBB185_4
LBB185_6:
Ltmp336:
	movq	%rax, -16(%rbp)
	movl	%edx, -8(%rbp)
	jmp	LBB185_3
Lfunc_end34:
	.cfi_endproc
	.section	__TEXT,__gcc_except_tab
	.p2align	2
GCC_except_table185:
Lexception34:
	.byte	255
	.byte	255
	.byte	1
	.uleb128 Lcst_end34-Lcst_begin34
Lcst_begin34:
	.uleb128 Lfunc_begin34-Lfunc_begin34
	.uleb128 Ltmp334-Lfunc_begin34
	.byte	0
	.byte	0
	.uleb128 Ltmp334-Lfunc_begin34
	.uleb128 Ltmp335-Ltmp334
	.uleb128 Ltmp336-Lfunc_begin34
	.byte	0
Lcst_end34:
	.p2align	2

	.section	__TEXT,__text,regular,pure_instructions
	.p2align	4, 0x90
__ZN4core3ptr18real_drop_in_place17hfb44039b78fb0ea9E:
	.cfi_startproc
	pushq	%rbp
	.cfi_def_cfa_offset 16
	.cfi_offset %rbp, -16
	movq	%rsp, %rbp
	.cfi_def_cfa_register %rbp
	subq	$16, %rsp
	xorl	%eax, %eax
	movl	%eax, %ecx
	movq	%rdi, -8(%rbp)
	movq	-8(%rbp), %rdx
	cmpq	$0, (%rdx)
	movl	$1, %edx
	cmovbeq	%rcx, %rdx
	cmpq	$0, %rdx
	jne	LBB186_2
LBB186_1:
	addq	$16, %rsp
	popq	%rbp
	retq
LBB186_2:
	movq	-8(%rbp), %rdi
	callq	__ZN4core3ptr18real_drop_in_place17h94d8d2616b716ae2E
	jmp	LBB186_1
	.cfi_endproc

	.p2align	4, 0x90
__ZN4core3ptr19swap_nonoverlapping17h8938be9dd645b3dfE:
	.cfi_startproc
	pushq	%rbp
	.cfi_def_cfa_offset 16
	.cfi_offset %rbp, -16
	movq	%rsp, %rbp
	.cfi_def_cfa_register %rbp
	subq	$48, %rsp
	movq	$8, -8(%rbp)
	movq	-8(%rbp), %rax
	movq	%rdx, -16(%rbp)
	movq	%rdi, -24(%rbp)
	movq	%rsi, -32(%rbp)
	movq	%rax, -40(%rbp)
	movq	-40(%rbp), %rax
	movq	-16(%rbp), %rcx
	imulq	%rcx, %rax
	movq	-24(%rbp), %rdi
	movq	-32(%rbp), %rsi
	movq	%rax, %rdx
	callq	__ZN4core3ptr25swap_nonoverlapping_bytes17ha203792b44046ebdE
	addq	$48, %rsp
	popq	%rbp
	retq
	.cfi_endproc

	.p2align	4, 0x90
__ZN4core3ptr19swap_nonoverlapping17h9642ae25dba67750E:
	.cfi_startproc
	pushq	%rbp
	.cfi_def_cfa_offset 16
	.cfi_offset %rbp, -16
	movq	%rsp, %rbp
	.cfi_def_cfa_register %rbp
	subq	$48, %rsp
	movq	$32, -8(%rbp)
	movq	-8(%rbp), %rax
	movq	%rdx, -16(%rbp)
	movq	%rdi, -24(%rbp)
	movq	%rsi, -32(%rbp)
	movq	%rax, -40(%rbp)
	movq	-40(%rbp), %rax
	movq	-16(%rbp), %rcx
	imulq	%rcx, %rax
	movq	-24(%rbp), %rdi
	movq	-32(%rbp), %rsi
	movq	%rax, %rdx
	callq	__ZN4core3ptr25swap_nonoverlapping_bytes17ha203792b44046ebdE
	addq	$48, %rsp
	popq	%rbp
	retq
	.cfi_endproc

	.p2align	4, 0x90
__ZN4core3ptr20slice_from_raw_parts17h3f6283f676733e3fE:
	.cfi_startproc
	pushq	%rbp
	.cfi_def_cfa_offset 16
	.cfi_offset %rbp, -16
	movq	%rsp, %rbp
	.cfi_def_cfa_register %rbp
	subq	$32, %rsp
	movq	%rdi, -16(%rbp)
	movq	%rsi, -8(%rbp)
	movq	-16(%rbp), %rax
	movq	-8(%rbp), %rcx
	movq	%rax, -32(%rbp)
	movq	%rcx, -24(%rbp)
	movq	-32(%rbp), %rax
	movq	-24(%rbp), %rdx
	addq	$32, %rsp
	popq	%rbp
	retq
	.cfi_endproc

	.p2align	4, 0x90
__ZN4core3ptr20slice_from_raw_parts17h870249d18a2b2e43E:
	.cfi_startproc
	pushq	%rbp
	.cfi_def_cfa_offset 16
	.cfi_offset %rbp, -16
	movq	%rsp, %rbp
	.cfi_def_cfa_register %rbp
	subq	$32, %rsp
	movq	%rdi, -16(%rbp)
	movq	%rsi, -8(%rbp)
	movq	-16(%rbp), %rax
	movq	-8(%rbp), %rcx
	movq	%rax, -32(%rbp)
	movq	%rcx, -24(%rbp)
	movq	-32(%rbp), %rax
	movq	-24(%rbp), %rdx
	addq	$32, %rsp
	popq	%rbp
	retq
	.cfi_endproc

	.p2align	4, 0x90
__ZN4core3ptr20slice_from_raw_parts17hf375c166e050924bE:
	.cfi_startproc
	pushq	%rbp
	.cfi_def_cfa_offset 16
	.cfi_offset %rbp, -16
	movq	%rsp, %rbp
	.cfi_def_cfa_register %rbp
	subq	$32, %rsp
	movq	%rdi, -16(%rbp)
	movq	%rsi, -8(%rbp)
	movq	-16(%rbp), %rax
	movq	-8(%rbp), %rcx
	movq	%rax, -32(%rbp)
	movq	%rcx, -24(%rbp)
	movq	-32(%rbp), %rax
	movq	-24(%rbp), %rdx
	addq	$32, %rsp
	popq	%rbp
	retq
	.cfi_endproc

	.p2align	4, 0x90
__ZN4core3ptr23swap_nonoverlapping_one17h9839fdf89e09ad9eE:
Lfunc_begin35:
	.cfi_startproc
	.cfi_personality 155, _rust_eh_personality
	.cfi_lsda 16, Lexception35
	pushq	%rbp
	.cfi_def_cfa_offset 16
	.cfi_offset %rbp, -16
	movq	%rsp, %rbp
	.cfi_def_cfa_register %rbp
	subq	$64, %rsp
	movb	$0, -25(%rbp)
	movq	$8, -8(%rbp)
	movq	-8(%rbp), %rax
	movq	%rdi, -40(%rbp)
	movq	%rsi, -48(%rbp)
	movq	%rax, -56(%rbp)
	jmp	LBB192_2
LBB192_1:
	movq	-24(%rbp), %rdi
	callq	__Unwind_Resume
	ud2
LBB192_2:
	movq	-56(%rbp), %rax
	cmpq	$32, %rax
